
file.exe:     file format pei-i386


Disassembly of section .text:

00401000 <___mingw_CRTStartup>:
  401000:	53                   	push   ebx
  401001:	83 ec 38             	sub    esp,0x38
  401004:	a1 14 b1 40 00       	mov    eax,ds:0x40b114
  401009:	85 c0                	test   eax,eax
  40100b:	74 1c                	je     401029 <___mingw_CRTStartup+0x29>
  40100d:	c7 44 24 08 00 00 00 	mov    DWORD PTR [esp+0x8],0x0
  401014:	00 
  401015:	c7 44 24 04 02 00 00 	mov    DWORD PTR [esp+0x4],0x2
  40101c:	00 
  40101d:	c7 04 24 00 00 00 00 	mov    DWORD PTR [esp],0x0
  401024:	ff d0                	call   eax
  401026:	83 ec 0c             	sub    esp,0xc
  401029:	c7 04 24 10 11 40 00 	mov    DWORD PTR [esp],0x401110
  401030:	e8 cf 8a 00 00       	call   409b04 <_SetUnhandledExceptionFilter@4>
  401035:	83 ec 04             	sub    esp,0x4
  401038:	e8 f3 82 00 00       	call   409330 <___cpu_features_init>
  40103d:	e8 ce 83 00 00       	call   409410 <__fpreset>
  401042:	8d 44 24 2c          	lea    eax,[esp+0x2c]
  401046:	89 44 24 10          	mov    DWORD PTR [esp+0x10],eax
  40104a:	a1 00 a0 40 00       	mov    eax,ds:0x40a000
  40104f:	c7 44 24 04 00 d0 40 	mov    DWORD PTR [esp+0x4],0x40d000
  401056:	00 
  401057:	c7 04 24 04 d0 40 00 	mov    DWORD PTR [esp],0x40d004
  40105e:	c7 44 24 2c 00 00 00 	mov    DWORD PTR [esp+0x2c],0x0
  401065:	00 
  401066:	89 44 24 0c          	mov    DWORD PTR [esp+0xc],eax
  40106a:	8d 44 24 28          	lea    eax,[esp+0x28]
  40106e:	89 44 24 08          	mov    DWORD PTR [esp+0x8],eax
  401072:	e8 e5 89 00 00       	call   409a5c <___getmainargs>
  401077:	a1 18 d0 40 00       	mov    eax,ds:0x40d018
  40107c:	85 c0                	test   eax,eax
  40107e:	74 42                	je     4010c2 <___mingw_CRTStartup+0xc2>
  401080:	8b 1d 20 e1 40 00    	mov    ebx,DWORD PTR ds:0x40e120
  401086:	a3 04 a0 40 00       	mov    ds:0x40a004,eax
  40108b:	89 44 24 04          	mov    DWORD PTR [esp+0x4],eax
  40108f:	8b 43 10             	mov    eax,DWORD PTR [ebx+0x10]
  401092:	89 04 24             	mov    DWORD PTR [esp],eax
  401095:	e8 ca 89 00 00       	call   409a64 <__setmode>
  40109a:	a1 18 d0 40 00       	mov    eax,ds:0x40d018
  40109f:	89 44 24 04          	mov    DWORD PTR [esp+0x4],eax
  4010a3:	8b 43 30             	mov    eax,DWORD PTR [ebx+0x30]
  4010a6:	89 04 24             	mov    DWORD PTR [esp],eax
  4010a9:	e8 b6 89 00 00       	call   409a64 <__setmode>
  4010ae:	a1 18 d0 40 00       	mov    eax,ds:0x40d018
  4010b3:	89 44 24 04          	mov    DWORD PTR [esp+0x4],eax
  4010b7:	8b 43 50             	mov    eax,DWORD PTR [ebx+0x50]
  4010ba:	89 04 24             	mov    DWORD PTR [esp],eax
  4010bd:	e8 a2 89 00 00       	call   409a64 <__setmode>
  4010c2:	e8 a5 89 00 00       	call   409a6c <___p__fmode>
  4010c7:	8b 15 04 a0 40 00    	mov    edx,DWORD PTR ds:0x40a004
  4010cd:	89 10                	mov    DWORD PTR [eax],edx
  4010cf:	e8 bc 84 00 00       	call   409590 <__pei386_runtime_relocator>
  4010d4:	83 e4 f0             	and    esp,0xfffffff0
  4010d7:	e8 14 87 00 00       	call   4097f0 <___main>
  4010dc:	e8 93 89 00 00       	call   409a74 <___p__environ>
  4010e1:	8b 00                	mov    eax,DWORD PTR [eax]
  4010e3:	89 44 24 08          	mov    DWORD PTR [esp+0x8],eax
  4010e7:	a1 00 d0 40 00       	mov    eax,ds:0x40d000
  4010ec:	89 44 24 04          	mov    DWORD PTR [esp+0x4],eax
  4010f0:	a1 04 d0 40 00       	mov    eax,ds:0x40d004
  4010f5:	89 04 24             	mov    DWORD PTR [esp],eax
  4010f8:	e8 80 02 00 00       	call   40137d <_main>
  4010fd:	89 c3                	mov    ebx,eax
  4010ff:	e8 78 89 00 00       	call   409a7c <__cexit>
  401104:	89 1c 24             	mov    DWORD PTR [esp],ebx
  401107:	e8 00 8a 00 00       	call   409b0c <_ExitProcess@4>
  40110c:	8d 74 26 00          	lea    esi,[esi+eiz*1+0x0]

00401110 <__gnu_exception_handler@4>:
  401110:	53                   	push   ebx
  401111:	83 ec 28             	sub    esp,0x28
  401114:	8b 44 24 30          	mov    eax,DWORD PTR [esp+0x30]
  401118:	8b 00                	mov    eax,DWORD PTR [eax]
  40111a:	8b 00                	mov    eax,DWORD PTR [eax]
  40111c:	3d 91 00 00 c0       	cmp    eax,0xc0000091
  401121:	77 3d                	ja     401160 <__gnu_exception_handler@4+0x50>
  401123:	3d 8d 00 00 c0       	cmp    eax,0xc000008d
  401128:	72 4d                	jb     401177 <__gnu_exception_handler@4+0x67>
  40112a:	bb 01 00 00 00       	mov    ebx,0x1
  40112f:	c7 44 24 04 00 00 00 	mov    DWORD PTR [esp+0x4],0x0
  401136:	00 
  401137:	c7 04 24 08 00 00 00 	mov    DWORD PTR [esp],0x8
  40113e:	e8 41 89 00 00       	call   409a84 <_signal>
  401143:	83 f8 01             	cmp    eax,0x1
  401146:	0f 84 f4 00 00 00    	je     401240 <__gnu_exception_handler@4+0x130>
  40114c:	85 c0                	test   eax,eax
  40114e:	0f 85 a0 00 00 00    	jne    4011f4 <__gnu_exception_handler@4+0xe4>
  401154:	31 c0                	xor    eax,eax
  401156:	83 c4 28             	add    esp,0x28
  401159:	5b                   	pop    ebx
  40115a:	c2 04 00             	ret    0x4
  40115d:	8d 76 00             	lea    esi,[esi+0x0]
  401160:	3d 94 00 00 c0       	cmp    eax,0xc0000094
  401165:	74 4b                	je     4011b2 <__gnu_exception_handler@4+0xa2>
  401167:	3d 96 00 00 c0       	cmp    eax,0xc0000096
  40116c:	74 17                	je     401185 <__gnu_exception_handler@4+0x75>
  40116e:	3d 93 00 00 c0       	cmp    eax,0xc0000093
  401173:	75 df                	jne    401154 <__gnu_exception_handler@4+0x44>
  401175:	eb b3                	jmp    40112a <__gnu_exception_handler@4+0x1a>
  401177:	3d 05 00 00 c0       	cmp    eax,0xc0000005
  40117c:	74 42                	je     4011c0 <__gnu_exception_handler@4+0xb0>
  40117e:	3d 1d 00 00 c0       	cmp    eax,0xc000001d
  401183:	75 cf                	jne    401154 <__gnu_exception_handler@4+0x44>
  401185:	c7 44 24 04 00 00 00 	mov    DWORD PTR [esp+0x4],0x0
  40118c:	00 
  40118d:	c7 04 24 04 00 00 00 	mov    DWORD PTR [esp],0x4
  401194:	e8 eb 88 00 00       	call   409a84 <_signal>
  401199:	83 f8 01             	cmp    eax,0x1
  40119c:	74 69                	je     401207 <__gnu_exception_handler@4+0xf7>
  40119e:	85 c0                	test   eax,eax
  4011a0:	74 b2                	je     401154 <__gnu_exception_handler@4+0x44>
  4011a2:	c7 04 24 04 00 00 00 	mov    DWORD PTR [esp],0x4
  4011a9:	ff d0                	call   eax
  4011ab:	b8 ff ff ff ff       	mov    eax,0xffffffff
  4011b0:	eb a4                	jmp    401156 <__gnu_exception_handler@4+0x46>
  4011b2:	31 db                	xor    ebx,ebx
  4011b4:	e9 76 ff ff ff       	jmp    40112f <__gnu_exception_handler@4+0x1f>
  4011b9:	8d b4 26 00 00 00 00 	lea    esi,[esi+eiz*1+0x0]
  4011c0:	c7 44 24 04 00 00 00 	mov    DWORD PTR [esp+0x4],0x0
  4011c7:	00 
  4011c8:	c7 04 24 0b 00 00 00 	mov    DWORD PTR [esp],0xb
  4011cf:	e8 b0 88 00 00       	call   409a84 <_signal>
  4011d4:	83 f8 01             	cmp    eax,0x1
  4011d7:	74 4a                	je     401223 <__gnu_exception_handler@4+0x113>
  4011d9:	85 c0                	test   eax,eax
  4011db:	0f 84 73 ff ff ff    	je     401154 <__gnu_exception_handler@4+0x44>
  4011e1:	c7 04 24 0b 00 00 00 	mov    DWORD PTR [esp],0xb
  4011e8:	ff d0                	call   eax
  4011ea:	b8 ff ff ff ff       	mov    eax,0xffffffff
  4011ef:	e9 62 ff ff ff       	jmp    401156 <__gnu_exception_handler@4+0x46>
  4011f4:	c7 04 24 08 00 00 00 	mov    DWORD PTR [esp],0x8
  4011fb:	ff d0                	call   eax
  4011fd:	b8 ff ff ff ff       	mov    eax,0xffffffff
  401202:	e9 4f ff ff ff       	jmp    401156 <__gnu_exception_handler@4+0x46>
  401207:	c7 44 24 04 01 00 00 	mov    DWORD PTR [esp+0x4],0x1
  40120e:	00 
  40120f:	c7 04 24 04 00 00 00 	mov    DWORD PTR [esp],0x4
  401216:	e8 69 88 00 00       	call   409a84 <_signal>
  40121b:	83 c8 ff             	or     eax,0xffffffff
  40121e:	e9 33 ff ff ff       	jmp    401156 <__gnu_exception_handler@4+0x46>
  401223:	c7 44 24 04 01 00 00 	mov    DWORD PTR [esp+0x4],0x1
  40122a:	00 
  40122b:	c7 04 24 0b 00 00 00 	mov    DWORD PTR [esp],0xb
  401232:	e8 4d 88 00 00       	call   409a84 <_signal>
  401237:	83 c8 ff             	or     eax,0xffffffff
  40123a:	e9 17 ff ff ff       	jmp    401156 <__gnu_exception_handler@4+0x46>
  40123f:	90                   	nop
  401240:	c7 44 24 04 01 00 00 	mov    DWORD PTR [esp+0x4],0x1
  401247:	00 
  401248:	c7 04 24 08 00 00 00 	mov    DWORD PTR [esp],0x8
  40124f:	e8 30 88 00 00       	call   409a84 <_signal>
  401254:	85 db                	test   ebx,ebx
  401256:	b8 ff ff ff ff       	mov    eax,0xffffffff
  40125b:	0f 84 f5 fe ff ff    	je     401156 <__gnu_exception_handler@4+0x46>
  401261:	89 44 24 1c          	mov    DWORD PTR [esp+0x1c],eax
  401265:	e8 a6 81 00 00       	call   409410 <__fpreset>
  40126a:	8b 44 24 1c          	mov    eax,DWORD PTR [esp+0x1c]
  40126e:	e9 e3 fe ff ff       	jmp    401156 <__gnu_exception_handler@4+0x46>
  401273:	8d b6 00 00 00 00    	lea    esi,[esi+0x0]
  401279:	8d bc 27 00 00 00 00 	lea    edi,[edi+eiz*1+0x0]

00401280 <_mainCRTStartup>:
  401280:	83 ec 1c             	sub    esp,0x1c
  401283:	c7 04 24 01 00 00 00 	mov    DWORD PTR [esp],0x1
  40128a:	ff 15 18 e1 40 00    	call   DWORD PTR ds:0x40e118
  401290:	e8 6b fd ff ff       	call   401000 <___mingw_CRTStartup>
  401295:	8d 74 26 00          	lea    esi,[esi+eiz*1+0x0]
  401299:	8d bc 27 00 00 00 00 	lea    edi,[edi+eiz*1+0x0]

004012a0 <_WinMainCRTStartup>:
  4012a0:	83 ec 1c             	sub    esp,0x1c
  4012a3:	c7 04 24 02 00 00 00 	mov    DWORD PTR [esp],0x2
  4012aa:	ff 15 18 e1 40 00    	call   DWORD PTR ds:0x40e118
  4012b0:	e8 4b fd ff ff       	call   401000 <___mingw_CRTStartup>
  4012b5:	8d 74 26 00          	lea    esi,[esi+eiz*1+0x0]
  4012b9:	8d bc 27 00 00 00 00 	lea    edi,[edi+eiz*1+0x0]

004012c0 <_atexit>:
  4012c0:	a1 30 e1 40 00       	mov    eax,ds:0x40e130
  4012c5:	ff e0                	jmp    eax
  4012c7:	89 f6                	mov    esi,esi
  4012c9:	8d bc 27 00 00 00 00 	lea    edi,[edi+eiz*1+0x0]

004012d0 <__onexit>:
  4012d0:	a1 24 e1 40 00       	mov    eax,ds:0x40e124
  4012d5:	ff e0                	jmp    eax
  4012d7:	90                   	nop
  4012d8:	90                   	nop
  4012d9:	90                   	nop
  4012da:	90                   	nop
  4012db:	90                   	nop
  4012dc:	90                   	nop
  4012dd:	90                   	nop
  4012de:	90                   	nop
  4012df:	90                   	nop

004012e0 <___gcc_register_frame>:
  4012e0:	a1 0c a0 40 00       	mov    eax,ds:0x40a00c
  4012e5:	85 c0                	test   eax,eax
  4012e7:	74 41                	je     40132a <___gcc_register_frame+0x4a>
  4012e9:	55                   	push   ebp
  4012ea:	89 e5                	mov    ebp,esp
  4012ec:	83 ec 18             	sub    esp,0x18
  4012ef:	c7 04 24 00 b0 40 00 	mov    DWORD PTR [esp],0x40b000
  4012f6:	e8 19 88 00 00       	call   409b14 <_GetModuleHandleA@4>
  4012fb:	83 ec 04             	sub    esp,0x4
  4012fe:	85 c0                	test   eax,eax
  401300:	ba 00 00 00 00       	mov    edx,0x0
  401305:	74 15                	je     40131c <___gcc_register_frame+0x3c>
  401307:	c7 44 24 04 0e b0 40 	mov    DWORD PTR [esp+0x4],0x40b00e
  40130e:	00 
  40130f:	89 04 24             	mov    DWORD PTR [esp],eax
  401312:	e8 05 88 00 00       	call   409b1c <_GetProcAddress@8>
  401317:	83 ec 08             	sub    esp,0x8
  40131a:	89 c2                	mov    edx,eax
  40131c:	85 d2                	test   edx,edx
  40131e:	74 09                	je     401329 <___gcc_register_frame+0x49>
  401320:	c7 04 24 0c a0 40 00 	mov    DWORD PTR [esp],0x40a00c
  401327:	ff d2                	call   edx
  401329:	c9                   	leave  
  40132a:	f3 c3                	repz ret 
  40132c:	8d 74 26 00          	lea    esi,[esi+eiz*1+0x0]

00401330 <___gcc_deregister_frame>:
  401330:	55                   	push   ebp
  401331:	89 e5                	mov    ebp,esp
  401333:	5d                   	pop    ebp
  401334:	c3                   	ret    
  401335:	90                   	nop
  401336:	90                   	nop
  401337:	90                   	nop
  401338:	90                   	nop
  401339:	90                   	nop
  40133a:	90                   	nop
  40133b:	90                   	nop
  40133c:	90                   	nop
  40133d:	90                   	nop
  40133e:	90                   	nop
  40133f:	90                   	nop

00401340 <_badboy>:
  401340:	55                   	push   ebp
  401341:	89 e5                	mov    ebp,esp
  401343:	83 ec 18             	sub    esp,0x18
  401346:	c7 04 24 24 b0 40 00 	mov    DWORD PTR [esp],0x40b024
  40134d:	e8 3a 87 00 00       	call   409a8c <_puts>
  401352:	8b 45 08             	mov    eax,DWORD PTR [ebp+0x8]
  401355:	89 04 24             	mov    DWORD PTR [esp],eax
  401358:	e8 37 87 00 00       	call   409a94 <_exit>

0040135d <_goodboy>:
  40135d:	55                   	push   ebp
  40135e:	89 e5                	mov    ebp,esp
  401360:	83 ec 18             	sub    esp,0x18
  401363:	c7 04 24 51 b0 40 00 	mov    DWORD PTR [esp],0x40b051
  40136a:	e8 1d 87 00 00       	call   409a8c <_puts>
  40136f:	c7 04 24 60 b0 40 00 	mov    DWORD PTR [esp],0x40b060
  401376:	e8 11 87 00 00       	call   409a8c <_puts>
  40137b:	c9                   	leave  
  40137c:	c3                   	ret    

0040137d <_main>:
  40137d:	55                   	push   ebp
  40137e:	89 e5                	mov    ebp,esp
  401380:	83 e4 f0             	and    esp,0xfffffff0
  401383:	b8 20 80 00 00       	mov    eax,0x8020
  401388:	e8 a3 86 00 00       	call   409a30 <___chkstk_ms>
  40138d:	29 c4                	sub    esp,eax
  40138f:	e8 5c 84 00 00       	call   4097f0 <___main>
  401394:	83 7d 08 02          	cmp    DWORD PTR [ebp+0x8],0x2
  401398:	74 2b                	je     4013c5 <_main+0x48>
  40139a:	c7 04 24 84 b0 40 00 	mov    DWORD PTR [esp],0x40b084
  4013a1:	e8 e6 86 00 00       	call   409a8c <_puts>
  4013a6:	8b 45 0c             	mov    eax,DWORD PTR [ebp+0xc]
  4013a9:	8b 00                	mov    eax,DWORD PTR [eax]
  4013ab:	89 44 24 04          	mov    DWORD PTR [esp+0x4],eax
  4013af:	c7 04 24 a3 b0 40 00 	mov    DWORD PTR [esp],0x40b0a3
  4013b6:	e8 e1 86 00 00       	call   409a9c <_printf>
  4013bb:	b8 01 00 00 00       	mov    eax,0x1
  4013c0:	e9 4d 01 00 00       	jmp    401512 <_main+0x195>
  4013c5:	8b 45 0c             	mov    eax,DWORD PTR [ebp+0xc]
  4013c8:	83 c0 04             	add    eax,0x4
  4013cb:	8b 00                	mov    eax,DWORD PTR [eax]
  4013cd:	89 44 24 04          	mov    DWORD PTR [esp+0x4],eax
  4013d1:	c7 04 24 ba b0 40 00 	mov    DWORD PTR [esp],0x40b0ba
  4013d8:	e8 bf 86 00 00       	call   409a9c <_printf>
  4013dd:	8b 45 0c             	mov    eax,DWORD PTR [ebp+0xc]
  4013e0:	83 c0 04             	add    eax,0x4
  4013e3:	8b 00                	mov    eax,DWORD PTR [eax]
  4013e5:	c7 44 24 04 c7 b0 40 	mov    DWORD PTR [esp+0x4],0x40b0c7
  4013ec:	00 
  4013ed:	89 04 24             	mov    DWORD PTR [esp],eax
  4013f0:	e8 af 86 00 00       	call   409aa4 <_fopen>
  4013f5:	89 84 24 1c 80 00 00 	mov    DWORD PTR [esp+0x801c],eax
  4013fc:	83 bc 24 1c 80 00 00 	cmp    DWORD PTR [esp+0x801c],0x0
  401403:	00 
  401404:	75 16                	jne    40141c <_main+0x9f>
  401406:	c7 04 24 ca b0 40 00 	mov    DWORD PTR [esp],0x40b0ca
  40140d:	e8 9a 86 00 00       	call   409aac <_perror>
  401412:	b8 02 00 00 00       	mov    eax,0x2
  401417:	e9 f6 00 00 00       	jmp    401512 <_main+0x195>
  40141c:	c7 44 24 08 02 00 00 	mov    DWORD PTR [esp+0x8],0x2
  401423:	00 
  401424:	c7 44 24 04 00 00 00 	mov    DWORD PTR [esp+0x4],0x0
  40142b:	00 
  40142c:	8b 84 24 1c 80 00 00 	mov    eax,DWORD PTR [esp+0x801c]
  401433:	89 04 24             	mov    DWORD PTR [esp],eax
  401436:	e8 79 86 00 00       	call   409ab4 <_fseek>
  40143b:	8b 84 24 1c 80 00 00 	mov    eax,DWORD PTR [esp+0x801c]
  401442:	89 04 24             	mov    DWORD PTR [esp],eax
  401445:	e8 72 86 00 00       	call   409abc <_ftell>
  40144a:	89 84 24 18 80 00 00 	mov    DWORD PTR [esp+0x8018],eax
  401451:	c7 44 24 08 00 00 00 	mov    DWORD PTR [esp+0x8],0x0
  401458:	00 
  401459:	c7 44 24 04 00 00 00 	mov    DWORD PTR [esp+0x4],0x0
  401460:	00 
  401461:	8b 84 24 1c 80 00 00 	mov    eax,DWORD PTR [esp+0x801c]
  401468:	89 04 24             	mov    DWORD PTR [esp],eax
  40146b:	e8 44 86 00 00       	call   409ab4 <_fseek>
  401470:	8b 84 24 18 80 00 00 	mov    eax,DWORD PTR [esp+0x8018]
  401477:	89 44 24 04          	mov    DWORD PTR [esp+0x4],eax
  40147b:	c7 04 24 cf b0 40 00 	mov    DWORD PTR [esp],0x40b0cf
  401482:	e8 15 86 00 00       	call   409a9c <_printf>
  401487:	81 bc 24 18 80 00 00 	cmp    DWORD PTR [esp+0x8018],0x7fff
  40148e:	ff 7f 00 00 
  401492:	76 30                	jbe    4014c4 <_main+0x147>
  401494:	8b 45 0c             	mov    eax,DWORD PTR [ebp+0xc]
  401497:	83 c0 04             	add    eax,0x4
  40149a:	8b 00                	mov    eax,DWORD PTR [eax]
  40149c:	89 44 24 04          	mov    DWORD PTR [esp+0x4],eax
  4014a0:	c7 04 24 e7 b0 40 00 	mov    DWORD PTR [esp],0x40b0e7
  4014a7:	e8 f0 85 00 00       	call   409a9c <_printf>
  4014ac:	c7 04 24 fb b0 40 00 	mov    DWORD PTR [esp],0x40b0fb
  4014b3:	e8 d4 85 00 00       	call   409a8c <_puts>
  4014b8:	c7 04 24 01 00 00 00 	mov    DWORD PTR [esp],0x1
  4014bf:	e8 d0 85 00 00       	call   409a94 <_exit>
  4014c4:	8b 84 24 1c 80 00 00 	mov    eax,DWORD PTR [esp+0x801c]
  4014cb:	89 44 24 0c          	mov    DWORD PTR [esp+0xc],eax
  4014cf:	c7 44 24 08 01 00 00 	mov    DWORD PTR [esp+0x8],0x1
  4014d6:	00 
  4014d7:	8b 84 24 18 80 00 00 	mov    eax,DWORD PTR [esp+0x8018]
  4014de:	89 44 24 04          	mov    DWORD PTR [esp+0x4],eax
  4014e2:	8d 44 24 18          	lea    eax,[esp+0x18]
  4014e6:	89 04 24             	mov    DWORD PTR [esp],eax
  4014e9:	e8 d6 85 00 00       	call   409ac4 <_fread>
  4014ee:	8b 84 24 1c 80 00 00 	mov    eax,DWORD PTR [esp+0x801c]
  4014f5:	89 04 24             	mov    DWORD PTR [esp],eax
  4014f8:	e8 cf 85 00 00       	call   409acc <_fclose>
  4014fd:	8d 44 24 18          	lea    eax,[esp+0x18]
  401501:	89 04 24             	mov    DWORD PTR [esp],eax
  401504:	e8 0b 00 00 00       	call   401514 <_check>
  401509:	85 c0                	test   eax,eax
  40150b:	75 05                	jne    401512 <_main+0x195>
  40150d:	e8 4b fe ff ff       	call   40135d <_goodboy>
  401512:	c9                   	leave  
  401513:	c3                   	ret    

00401514 <_check>:
  401514:	55                   	push   ebp
  401515:	89 e5                	mov    ebp,esp
  401517:	83 ec 28             	sub    esp,0x28
  40151a:	c7 45 f4 00 00 00 00 	mov    DWORD PTR [ebp-0xc],0x0
  401521:	c7 45 f0 9e 00 00 00 	mov    DWORD PTR [ebp-0x10],0x9e
  401528:	8b 55 f4             	mov    edx,DWORD PTR [ebp-0xc]
  40152b:	8b 45 08             	mov    eax,DWORD PTR [ebp+0x8]
  40152e:	01 d0                	add    eax,edx
  401530:	0f b6 00             	movzx  eax,BYTE PTR [eax]
  401533:	0f be c0             	movsx  eax,al
  401536:	34 d6                	xor    al,0xd6
  401538:	3b 45 f0             	cmp    eax,DWORD PTR [ebp-0x10]
  40153b:	74 0b                	je     401548 <_check+0x34>
  40153d:	8b 45 f4             	mov    eax,DWORD PTR [ebp-0xc]
  401540:	89 04 24             	mov    DWORD PTR [esp],eax
  401543:	e8 f8 fd ff ff       	call   401340 <_badboy>
  401548:	83 45 f4 01          	add    DWORD PTR [ebp-0xc],0x1
  40154c:	c7 45 f0 28 00 00 00 	mov    DWORD PTR [ebp-0x10],0x28
  401553:	8b 55 f4             	mov    edx,DWORD PTR [ebp-0xc]
  401556:	8b 45 08             	mov    eax,DWORD PTR [ebp+0x8]
  401559:	01 d0                	add    eax,edx
  40155b:	0f b6 00             	movzx  eax,BYTE PTR [eax]
  40155e:	83 f0 4d             	xor    eax,0x4d
  401561:	0f be c0             	movsx  eax,al
  401564:	3b 45 f0             	cmp    eax,DWORD PTR [ebp-0x10]
  401567:	74 0b                	je     401574 <_check+0x60>
  401569:	8b 45 f4             	mov    eax,DWORD PTR [ebp-0xc]
  40156c:	89 04 24             	mov    DWORD PTR [esp],eax
  40156f:	e8 cc fd ff ff       	call   401340 <_badboy>
  401574:	83 45 f4 01          	add    DWORD PTR [ebp-0xc],0x1
  401578:	c7 45 f0 77 00 00 00 	mov    DWORD PTR [ebp-0x10],0x77
  40157f:	8b 55 f4             	mov    edx,DWORD PTR [ebp-0xc]
  401582:	8b 45 08             	mov    eax,DWORD PTR [ebp+0x8]
  401585:	01 d0                	add    eax,edx
  401587:	0f b6 00             	movzx  eax,BYTE PTR [eax]
  40158a:	83 f0 0e             	xor    eax,0xe
  40158d:	0f be c0             	movsx  eax,al
  401590:	3b 45 f0             	cmp    eax,DWORD PTR [ebp-0x10]
  401593:	74 0b                	je     4015a0 <_check+0x8c>
  401595:	8b 45 f4             	mov    eax,DWORD PTR [ebp-0xc]
  401598:	89 04 24             	mov    DWORD PTR [esp],eax
  40159b:	e8 a0 fd ff ff       	call   401340 <_badboy>
  4015a0:	83 45 f4 01          	add    DWORD PTR [ebp-0xc],0x1
  4015a4:	c7 45 f0 15 00 00 00 	mov    DWORD PTR [ebp-0x10],0x15
  4015ab:	8b 55 f4             	mov    edx,DWORD PTR [ebp-0xc]
  4015ae:	8b 45 08             	mov    eax,DWORD PTR [ebp+0x8]
  4015b1:	01 d0                	add    eax,edx
  4015b3:	0f b6 00             	movzx  eax,BYTE PTR [eax]
  4015b6:	83 f0 35             	xor    eax,0x35
  4015b9:	0f be c0             	movsx  eax,al
  4015bc:	3b 45 f0             	cmp    eax,DWORD PTR [ebp-0x10]
  4015bf:	74 0b                	je     4015cc <_check+0xb8>
  4015c1:	8b 45 f4             	mov    eax,DWORD PTR [ebp-0xc]
  4015c4:	89 04 24             	mov    DWORD PTR [esp],eax
  4015c7:	e8 74 fd ff ff       	call   401340 <_badboy>
  4015cc:	83 45 f4 01          	add    DWORD PTR [ebp-0xc],0x1
  4015d0:	c7 45 f0 37 00 00 00 	mov    DWORD PTR [ebp-0x10],0x37
  4015d7:	8b 55 f4             	mov    edx,DWORD PTR [ebp-0xc]
  4015da:	8b 45 08             	mov    eax,DWORD PTR [ebp+0x8]
  4015dd:	01 d0                	add    eax,edx
  4015df:	0f b6 00             	movzx  eax,BYTE PTR [eax]
  4015e2:	83 f0 43             	xor    eax,0x43
  4015e5:	0f be c0             	movsx  eax,al
  4015e8:	3b 45 f0             	cmp    eax,DWORD PTR [ebp-0x10]
  4015eb:	74 0b                	je     4015f8 <_check+0xe4>
  4015ed:	8b 45 f4             	mov    eax,DWORD PTR [ebp-0xc]
  4015f0:	89 04 24             	mov    DWORD PTR [esp],eax
  4015f3:	e8 48 fd ff ff       	call   401340 <_badboy>
  4015f8:	83 45 f4 01          	add    DWORD PTR [ebp-0xc],0x1
  4015fc:	c7 45 f0 e0 00 00 00 	mov    DWORD PTR [ebp-0x10],0xe0
  401603:	8b 55 f4             	mov    edx,DWORD PTR [ebp-0xc]
  401606:	8b 45 08             	mov    eax,DWORD PTR [ebp+0x8]
  401609:	01 d0                	add    eax,edx
  40160b:	0f b6 00             	movzx  eax,BYTE PTR [eax]
  40160e:	0f be c0             	movsx  eax,al
  401611:	34 88                	xor    al,0x88
  401613:	3b 45 f0             	cmp    eax,DWORD PTR [ebp-0x10]
  401616:	74 0b                	je     401623 <_check+0x10f>
  401618:	8b 45 f4             	mov    eax,DWORD PTR [ebp-0xc]
  40161b:	89 04 24             	mov    DWORD PTR [esp],eax
  40161e:	e8 1d fd ff ff       	call   401340 <_badboy>
  401623:	83 45 f4 01          	add    DWORD PTR [ebp-0xc],0x1
  401627:	c7 45 f0 19 00 00 00 	mov    DWORD PTR [ebp-0x10],0x19
  40162e:	8b 55 f4             	mov    edx,DWORD PTR [ebp-0xc]
  401631:	8b 45 08             	mov    eax,DWORD PTR [ebp+0x8]
  401634:	01 d0                	add    eax,edx
  401636:	0f b6 00             	movzx  eax,BYTE PTR [eax]
  401639:	83 f0 70             	xor    eax,0x70
  40163c:	0f be c0             	movsx  eax,al
  40163f:	3b 45 f0             	cmp    eax,DWORD PTR [ebp-0x10]
  401642:	74 0b                	je     40164f <_check+0x13b>
  401644:	8b 45 f4             	mov    eax,DWORD PTR [ebp-0xc]
  401647:	89 04 24             	mov    DWORD PTR [esp],eax
  40164a:	e8 f1 fc ff ff       	call   401340 <_badboy>
  40164f:	83 45 f4 01          	add    DWORD PTR [ebp-0xc],0x1
  401653:	c7 45 f0 62 00 00 00 	mov    DWORD PTR [ebp-0x10],0x62
  40165a:	8b 55 f4             	mov    edx,DWORD PTR [ebp-0xc]
  40165d:	8b 45 08             	mov    eax,DWORD PTR [ebp+0x8]
  401660:	01 d0                	add    eax,edx
  401662:	0f b6 00             	movzx  eax,BYTE PTR [eax]
  401665:	83 f0 11             	xor    eax,0x11
  401668:	0f be c0             	movsx  eax,al
  40166b:	3b 45 f0             	cmp    eax,DWORD PTR [ebp-0x10]
  40166e:	74 0b                	je     40167b <_check+0x167>
  401670:	8b 45 f4             	mov    eax,DWORD PTR [ebp-0xc]
  401673:	89 04 24             	mov    DWORD PTR [esp],eax
  401676:	e8 c5 fc ff ff       	call   401340 <_badboy>
  40167b:	83 45 f4 01          	add    DWORD PTR [ebp-0xc],0x1
  40167f:	c7 45 f0 6d 00 00 00 	mov    DWORD PTR [ebp-0x10],0x6d
  401686:	8b 55 f4             	mov    edx,DWORD PTR [ebp-0xc]
  401689:	8b 45 08             	mov    eax,DWORD PTR [ebp+0x8]
  40168c:	01 d0                	add    eax,edx
  40168e:	0f b6 00             	movzx  eax,BYTE PTR [eax]
  401691:	83 f0 4d             	xor    eax,0x4d
  401694:	0f be c0             	movsx  eax,al
  401697:	3b 45 f0             	cmp    eax,DWORD PTR [ebp-0x10]
  40169a:	74 0b                	je     4016a7 <_check+0x193>
  40169c:	8b 45 f4             	mov    eax,DWORD PTR [ebp-0xc]
  40169f:	89 04 24             	mov    DWORD PTR [esp],eax
  4016a2:	e8 99 fc ff ff       	call   401340 <_badboy>
  4016a7:	83 45 f4 01          	add    DWORD PTR [ebp-0xc],0x1
  4016ab:	c7 45 f0 94 00 00 00 	mov    DWORD PTR [ebp-0x10],0x94
  4016b2:	8b 55 f4             	mov    edx,DWORD PTR [ebp-0xc]
  4016b5:	8b 45 08             	mov    eax,DWORD PTR [ebp+0x8]
  4016b8:	01 d0                	add    eax,edx
  4016ba:	0f b6 00             	movzx  eax,BYTE PTR [eax]
  4016bd:	0f be c0             	movsx  eax,al
  4016c0:	34 fd                	xor    al,0xfd
  4016c2:	3b 45 f0             	cmp    eax,DWORD PTR [ebp-0x10]
  4016c5:	74 0b                	je     4016d2 <_check+0x1be>
  4016c7:	8b 45 f4             	mov    eax,DWORD PTR [ebp-0xc]
  4016ca:	89 04 24             	mov    DWORD PTR [esp],eax
  4016cd:	e8 6e fc ff ff       	call   401340 <_badboy>
  4016d2:	83 45 f4 01          	add    DWORD PTR [ebp-0xc],0x1
  4016d6:	c7 45 f0 06 00 00 00 	mov    DWORD PTR [ebp-0x10],0x6
  4016dd:	8b 55 f4             	mov    edx,DWORD PTR [ebp-0xc]
  4016e0:	8b 45 08             	mov    eax,DWORD PTR [ebp+0x8]
  4016e3:	01 d0                	add    eax,edx
  4016e5:	0f b6 00             	movzx  eax,BYTE PTR [eax]
  4016e8:	83 f0 75             	xor    eax,0x75
  4016eb:	0f be c0             	movsx  eax,al
  4016ee:	3b 45 f0             	cmp    eax,DWORD PTR [ebp-0x10]
  4016f1:	74 0b                	je     4016fe <_check+0x1ea>
  4016f3:	8b 45 f4             	mov    eax,DWORD PTR [ebp-0xc]
  4016f6:	89 04 24             	mov    DWORD PTR [esp],eax
  4016f9:	e8 42 fc ff ff       	call   401340 <_badboy>
  4016fe:	83 45 f4 01          	add    DWORD PTR [ebp-0xc],0x1
  401702:	c7 45 f0 7d 00 00 00 	mov    DWORD PTR [ebp-0x10],0x7d
  401709:	8b 55 f4             	mov    edx,DWORD PTR [ebp-0xc]
  40170c:	8b 45 08             	mov    eax,DWORD PTR [ebp+0x8]
  40170f:	01 d0                	add    eax,edx
  401711:	0f b6 00             	movzx  eax,BYTE PTR [eax]
  401714:	83 f0 5d             	xor    eax,0x5d
  401717:	0f be c0             	movsx  eax,al
  40171a:	3b 45 f0             	cmp    eax,DWORD PTR [ebp-0x10]
  40171d:	74 0b                	je     40172a <_check+0x216>
  40171f:	8b 45 f4             	mov    eax,DWORD PTR [ebp-0xc]
  401722:	89 04 24             	mov    DWORD PTR [esp],eax
  401725:	e8 16 fc ff ff       	call   401340 <_badboy>
  40172a:	83 45 f4 01          	add    DWORD PTR [ebp-0xc],0x1
  40172e:	c7 45 f0 60 00 00 00 	mov    DWORD PTR [ebp-0x10],0x60
  401735:	8b 55 f4             	mov    edx,DWORD PTR [ebp-0xc]
  401738:	8b 45 08             	mov    eax,DWORD PTR [ebp+0x8]
  40173b:	01 d0                	add    eax,edx
  40173d:	0f b6 00             	movzx  eax,BYTE PTR [eax]
  401740:	83 f0 14             	xor    eax,0x14
  401743:	0f be c0             	movsx  eax,al
  401746:	3b 45 f0             	cmp    eax,DWORD PTR [ebp-0x10]
  401749:	74 0b                	je     401756 <_check+0x242>
  40174b:	8b 45 f4             	mov    eax,DWORD PTR [ebp-0xc]
  40174e:	89 04 24             	mov    DWORD PTR [esp],eax
  401751:	e8 ea fb ff ff       	call   401340 <_badboy>
  401756:	83 45 f4 01          	add    DWORD PTR [ebp-0xc],0x1
  40175a:	c7 45 f0 45 00 00 00 	mov    DWORD PTR [ebp-0x10],0x45
  401761:	8b 55 f4             	mov    edx,DWORD PTR [ebp-0xc]
  401764:	8b 45 08             	mov    eax,DWORD PTR [ebp+0x8]
  401767:	01 d0                	add    eax,edx
  401769:	0f b6 00             	movzx  eax,BYTE PTR [eax]
  40176c:	83 f0 2d             	xor    eax,0x2d
  40176f:	0f be c0             	movsx  eax,al
  401772:	3b 45 f0             	cmp    eax,DWORD PTR [ebp-0x10]
  401775:	74 0b                	je     401782 <_check+0x26e>
  401777:	8b 45 f4             	mov    eax,DWORD PTR [ebp-0xc]
  40177a:	89 04 24             	mov    DWORD PTR [esp],eax
  40177d:	e8 be fb ff ff       	call   401340 <_badboy>
  401782:	83 45 f4 01          	add    DWORD PTR [ebp-0xc],0x1
  401786:	c7 45 f0 5a 00 00 00 	mov    DWORD PTR [ebp-0x10],0x5a
  40178d:	8b 55 f4             	mov    edx,DWORD PTR [ebp-0xc]
  401790:	8b 45 08             	mov    eax,DWORD PTR [ebp+0x8]
  401793:	01 d0                	add    eax,edx
  401795:	0f b6 00             	movzx  eax,BYTE PTR [eax]
  401798:	83 f0 3f             	xor    eax,0x3f
  40179b:	0f be c0             	movsx  eax,al
  40179e:	3b 45 f0             	cmp    eax,DWORD PTR [ebp-0x10]
  4017a1:	74 0b                	je     4017ae <_check+0x29a>
  4017a3:	8b 45 f4             	mov    eax,DWORD PTR [ebp-0xc]
  4017a6:	89 04 24             	mov    DWORD PTR [esp],eax
  4017a9:	e8 92 fb ff ff       	call   401340 <_badboy>
  4017ae:	83 45 f4 01          	add    DWORD PTR [ebp-0xc],0x1
  4017b2:	c7 45 f0 6b 00 00 00 	mov    DWORD PTR [ebp-0x10],0x6b
  4017b9:	8b 55 f4             	mov    edx,DWORD PTR [ebp-0xc]
  4017bc:	8b 45 08             	mov    eax,DWORD PTR [ebp+0x8]
  4017bf:	01 d0                	add    eax,edx
  4017c1:	0f b6 00             	movzx  eax,BYTE PTR [eax]
  4017c4:	83 f0 4b             	xor    eax,0x4b
  4017c7:	0f be c0             	movsx  eax,al
  4017ca:	3b 45 f0             	cmp    eax,DWORD PTR [ebp-0x10]
  4017cd:	74 0b                	je     4017da <_check+0x2c6>
  4017cf:	8b 45 f4             	mov    eax,DWORD PTR [ebp-0xc]
  4017d2:	89 04 24             	mov    DWORD PTR [esp],eax
  4017d5:	e8 66 fb ff ff       	call   401340 <_badboy>
  4017da:	83 45 f4 01          	add    DWORD PTR [ebp-0xc],0x1
  4017de:	c7 45 f0 9d 00 00 00 	mov    DWORD PTR [ebp-0x10],0x9d
  4017e5:	8b 55 f4             	mov    edx,DWORD PTR [ebp-0xc]
  4017e8:	8b 45 08             	mov    eax,DWORD PTR [ebp+0x8]
  4017eb:	01 d0                	add    eax,edx
  4017ed:	0f b6 00             	movzx  eax,BYTE PTR [eax]
  4017f0:	0f be c0             	movsx  eax,al
  4017f3:	34 fb                	xor    al,0xfb
  4017f5:	3b 45 f0             	cmp    eax,DWORD PTR [ebp-0x10]
  4017f8:	74 0b                	je     401805 <_check+0x2f1>
  4017fa:	8b 45 f4             	mov    eax,DWORD PTR [ebp-0xc]
  4017fd:	89 04 24             	mov    DWORD PTR [esp],eax
  401800:	e8 3b fb ff ff       	call   401340 <_badboy>
  401805:	83 45 f4 01          	add    DWORD PTR [ebp-0xc],0x1
  401809:	c7 45 f0 94 00 00 00 	mov    DWORD PTR [ebp-0x10],0x94
  401810:	8b 55 f4             	mov    edx,DWORD PTR [ebp-0xc]
  401813:	8b 45 08             	mov    eax,DWORD PTR [ebp+0x8]
  401816:	01 d0                	add    eax,edx
  401818:	0f b6 00             	movzx  eax,BYTE PTR [eax]
  40181b:	0f be c0             	movsx  eax,al
  40181e:	34 fd                	xor    al,0xfd
  401820:	3b 45 f0             	cmp    eax,DWORD PTR [ebp-0x10]
  401823:	74 0b                	je     401830 <_check+0x31c>
  401825:	8b 45 f4             	mov    eax,DWORD PTR [ebp-0xc]
  401828:	89 04 24             	mov    DWORD PTR [esp],eax
  40182b:	e8 10 fb ff ff       	call   401340 <_badboy>
  401830:	83 45 f4 01          	add    DWORD PTR [ebp-0xc],0x1
  401834:	c7 45 f0 bd 00 00 00 	mov    DWORD PTR [ebp-0x10],0xbd
  40183b:	8b 55 f4             	mov    edx,DWORD PTR [ebp-0xc]
  40183e:	8b 45 08             	mov    eax,DWORD PTR [ebp+0x8]
  401841:	01 d0                	add    eax,edx
  401843:	0f b6 00             	movzx  eax,BYTE PTR [eax]
  401846:	0f be c0             	movsx  eax,al
  401849:	34 d3                	xor    al,0xd3
  40184b:	3b 45 f0             	cmp    eax,DWORD PTR [ebp-0x10]
  40184e:	74 0b                	je     40185b <_check+0x347>
  401850:	8b 45 f4             	mov    eax,DWORD PTR [ebp-0xc]
  401853:	89 04 24             	mov    DWORD PTR [esp],eax
  401856:	e8 e5 fa ff ff       	call   401340 <_badboy>
  40185b:	83 45 f4 01          	add    DWORD PTR [ebp-0xc],0x1
  40185f:	c7 45 f0 7c 00 00 00 	mov    DWORD PTR [ebp-0x10],0x7c
  401866:	8b 55 f4             	mov    edx,DWORD PTR [ebp-0xc]
  401869:	8b 45 08             	mov    eax,DWORD PTR [ebp+0x8]
  40186c:	01 d0                	add    eax,edx
  40186e:	0f b6 00             	movzx  eax,BYTE PTR [eax]
  401871:	83 f0 1d             	xor    eax,0x1d
  401874:	0f be c0             	movsx  eax,al
  401877:	3b 45 f0             	cmp    eax,DWORD PTR [ebp-0x10]
  40187a:	74 0b                	je     401887 <_check+0x373>
  40187c:	8b 45 f4             	mov    eax,DWORD PTR [ebp-0xc]
  40187f:	89 04 24             	mov    DWORD PTR [esp],eax
  401882:	e8 b9 fa ff ff       	call   401340 <_badboy>
  401887:	83 45 f4 01          	add    DWORD PTR [ebp-0xc],0x1
  40188b:	c7 45 f0 da 00 00 00 	mov    DWORD PTR [ebp-0x10],0xda
  401892:	8b 55 f4             	mov    edx,DWORD PTR [ebp-0xc]
  401895:	8b 45 08             	mov    eax,DWORD PTR [ebp+0x8]
  401898:	01 d0                	add    eax,edx
  40189a:	0f b6 00             	movzx  eax,BYTE PTR [eax]
  40189d:	0f be c0             	movsx  eax,al
  4018a0:	34 b6                	xor    al,0xb6
  4018a2:	3b 45 f0             	cmp    eax,DWORD PTR [ebp-0x10]
  4018a5:	74 0b                	je     4018b2 <_check+0x39e>
  4018a7:	8b 45 f4             	mov    eax,DWORD PTR [ebp-0xc]
  4018aa:	89 04 24             	mov    DWORD PTR [esp],eax
  4018ad:	e8 8e fa ff ff       	call   401340 <_badboy>
  4018b2:	83 45 f4 01          	add    DWORD PTR [ebp-0xc],0x1
  4018b6:	c7 45 f0 bd 00 00 00 	mov    DWORD PTR [ebp-0x10],0xbd
  4018bd:	8b 55 f4             	mov    edx,DWORD PTR [ebp-0xc]
  4018c0:	8b 45 08             	mov    eax,DWORD PTR [ebp+0x8]
  4018c3:	01 d0                	add    eax,edx
  4018c5:	0f b6 00             	movzx  eax,BYTE PTR [eax]
  4018c8:	0f be c0             	movsx  eax,al
  4018cb:	34 9d                	xor    al,0x9d
  4018cd:	3b 45 f0             	cmp    eax,DWORD PTR [ebp-0x10]
  4018d0:	74 0b                	je     4018dd <_check+0x3c9>
  4018d2:	8b 45 f4             	mov    eax,DWORD PTR [ebp-0xc]
  4018d5:	89 04 24             	mov    DWORD PTR [esp],eax
  4018d8:	e8 63 fa ff ff       	call   401340 <_badboy>
  4018dd:	83 45 f4 01          	add    DWORD PTR [ebp-0xc],0x1
  4018e1:	c7 45 f0 8c 00 00 00 	mov    DWORD PTR [ebp-0x10],0x8c
  4018e8:	8b 55 f4             	mov    edx,DWORD PTR [ebp-0xc]
  4018eb:	8b 45 08             	mov    eax,DWORD PTR [ebp+0x8]
  4018ee:	01 d0                	add    eax,edx
  4018f0:	0f b6 00             	movzx  eax,BYTE PTR [eax]
  4018f3:	0f be c0             	movsx  eax,al
  4018f6:	34 ff                	xor    al,0xff
  4018f8:	3b 45 f0             	cmp    eax,DWORD PTR [ebp-0x10]
  4018fb:	74 0b                	je     401908 <_check+0x3f4>
  4018fd:	8b 45 f4             	mov    eax,DWORD PTR [ebp-0xc]
  401900:	89 04 24             	mov    DWORD PTR [esp],eax
  401903:	e8 38 fa ff ff       	call   401340 <_badboy>
  401908:	83 45 f4 01          	add    DWORD PTR [ebp-0xc],0x1
  40190c:	c7 45 f0 39 00 00 00 	mov    DWORD PTR [ebp-0x10],0x39
  401913:	8b 55 f4             	mov    edx,DWORD PTR [ebp-0xc]
  401916:	8b 45 08             	mov    eax,DWORD PTR [ebp+0x8]
  401919:	01 d0                	add    eax,edx
  40191b:	0f b6 00             	movzx  eax,BYTE PTR [eax]
  40191e:	83 f0 4d             	xor    eax,0x4d
  401921:	0f be c0             	movsx  eax,al
  401924:	3b 45 f0             	cmp    eax,DWORD PTR [ebp-0x10]
  401927:	74 0b                	je     401934 <_check+0x420>
  401929:	8b 45 f4             	mov    eax,DWORD PTR [ebp-0xc]
  40192c:	89 04 24             	mov    DWORD PTR [esp],eax
  40192f:	e8 0c fa ff ff       	call   401340 <_badboy>
  401934:	83 45 f4 01          	add    DWORD PTR [ebp-0xc],0x1
  401938:	c7 45 f0 ae 00 00 00 	mov    DWORD PTR [ebp-0x10],0xae
  40193f:	8b 55 f4             	mov    edx,DWORD PTR [ebp-0xc]
  401942:	8b 45 08             	mov    eax,DWORD PTR [ebp+0x8]
  401945:	01 d0                	add    eax,edx
  401947:	0f b6 00             	movzx  eax,BYTE PTR [eax]
  40194a:	0f be c0             	movsx  eax,al
  40194d:	34 cb                	xor    al,0xcb
  40194f:	3b 45 f0             	cmp    eax,DWORD PTR [ebp-0x10]
  401952:	74 0b                	je     40195f <_check+0x44b>
  401954:	8b 45 f4             	mov    eax,DWORD PTR [ebp-0xc]
  401957:	89 04 24             	mov    DWORD PTR [esp],eax
  40195a:	e8 e1 f9 ff ff       	call   401340 <_badboy>
  40195f:	83 45 f4 01          	add    DWORD PTR [ebp-0xc],0x1
  401963:	c7 45 f0 e8 00 00 00 	mov    DWORD PTR [ebp-0x10],0xe8
  40196a:	8b 55 f4             	mov    edx,DWORD PTR [ebp-0xc]
  40196d:	8b 45 08             	mov    eax,DWORD PTR [ebp+0x8]
  401970:	01 d0                	add    eax,edx
  401972:	0f b6 00             	movzx  eax,BYTE PTR [eax]
  401975:	0f be c0             	movsx  eax,al
  401978:	34 98                	xor    al,0x98
  40197a:	3b 45 f0             	cmp    eax,DWORD PTR [ebp-0x10]
  40197d:	74 0b                	je     40198a <_check+0x476>
  40197f:	8b 45 f4             	mov    eax,DWORD PTR [ebp-0xc]
  401982:	89 04 24             	mov    DWORD PTR [esp],eax
  401985:	e8 b6 f9 ff ff       	call   401340 <_badboy>
  40198a:	83 45 f4 01          	add    DWORD PTR [ebp-0xc],0x1
  40198e:	c7 45 f0 ae 00 00 00 	mov    DWORD PTR [ebp-0x10],0xae
  401995:	8b 55 f4             	mov    edx,DWORD PTR [ebp-0xc]
  401998:	8b 45 08             	mov    eax,DWORD PTR [ebp+0x8]
  40199b:	01 d0                	add    eax,edx
  40199d:	0f b6 00             	movzx  eax,BYTE PTR [eax]
  4019a0:	0f be c0             	movsx  eax,al
  4019a3:	34 dd                	xor    al,0xdd
  4019a5:	3b 45 f0             	cmp    eax,DWORD PTR [ebp-0x10]
  4019a8:	74 0b                	je     4019b5 <_check+0x4a1>
  4019aa:	8b 45 f4             	mov    eax,DWORD PTR [ebp-0xc]
  4019ad:	89 04 24             	mov    DWORD PTR [esp],eax
  4019b0:	e8 8b f9 ff ff       	call   401340 <_badboy>
  4019b5:	83 45 f4 01          	add    DWORD PTR [ebp-0xc],0x1
  4019b9:	c7 45 f0 56 00 00 00 	mov    DWORD PTR [ebp-0x10],0x56
  4019c0:	8b 55 f4             	mov    edx,DWORD PTR [ebp-0xc]
  4019c3:	8b 45 08             	mov    eax,DWORD PTR [ebp+0x8]
  4019c6:	01 d0                	add    eax,edx
  4019c8:	0f b6 00             	movzx  eax,BYTE PTR [eax]
  4019cb:	83 f0 78             	xor    eax,0x78
  4019ce:	0f be c0             	movsx  eax,al
  4019d1:	3b 45 f0             	cmp    eax,DWORD PTR [ebp-0x10]
  4019d4:	74 0b                	je     4019e1 <_check+0x4cd>
  4019d6:	8b 45 f4             	mov    eax,DWORD PTR [ebp-0xc]
  4019d9:	89 04 24             	mov    DWORD PTR [esp],eax
  4019dc:	e8 5f f9 ff ff       	call   401340 <_badboy>
  4019e1:	83 45 f4 01          	add    DWORD PTR [ebp-0xc],0x1
  4019e5:	c7 45 f0 33 00 00 00 	mov    DWORD PTR [ebp-0x10],0x33
  4019ec:	8b 55 f4             	mov    edx,DWORD PTR [ebp-0xc]
  4019ef:	8b 45 08             	mov    eax,DWORD PTR [ebp+0x8]
  4019f2:	01 d0                	add    eax,edx
  4019f4:	0f b6 00             	movzx  eax,BYTE PTR [eax]
  4019f7:	83 f0 39             	xor    eax,0x39
  4019fa:	0f be c0             	movsx  eax,al
  4019fd:	3b 45 f0             	cmp    eax,DWORD PTR [ebp-0x10]
  401a00:	74 0b                	je     401a0d <_check+0x4f9>
  401a02:	8b 45 f4             	mov    eax,DWORD PTR [ebp-0xc]
  401a05:	89 04 24             	mov    DWORD PTR [esp],eax
  401a08:	e8 33 f9 ff ff       	call   401340 <_badboy>
  401a0d:	83 45 f4 01          	add    DWORD PTR [ebp-0xc],0x1
  401a11:	c7 45 f0 3f 00 00 00 	mov    DWORD PTR [ebp-0x10],0x3f
  401a18:	8b 55 f4             	mov    edx,DWORD PTR [ebp-0xc]
  401a1b:	8b 45 08             	mov    eax,DWORD PTR [ebp+0x8]
  401a1e:	01 d0                	add    eax,edx
  401a20:	0f b6 00             	movzx  eax,BYTE PTR [eax]
  401a23:	83 f0 78             	xor    eax,0x78
  401a26:	0f be c0             	movsx  eax,al
  401a29:	3b 45 f0             	cmp    eax,DWORD PTR [ebp-0x10]
  401a2c:	74 0b                	je     401a39 <_check+0x525>
  401a2e:	8b 45 f4             	mov    eax,DWORD PTR [ebp-0xc]
  401a31:	89 04 24             	mov    DWORD PTR [esp],eax
  401a34:	e8 07 f9 ff ff       	call   401340 <_badboy>
  401a39:	83 45 f4 01          	add    DWORD PTR [ebp-0xc],0x1
  401a3d:	c7 45 f0 56 00 00 00 	mov    DWORD PTR [ebp-0x10],0x56
  401a44:	8b 55 f4             	mov    edx,DWORD PTR [ebp-0xc]
  401a47:	8b 45 08             	mov    eax,DWORD PTR [ebp+0x8]
  401a4a:	01 d0                	add    eax,edx
  401a4c:	0f b6 00             	movzx  eax,BYTE PTR [eax]
  401a4f:	83 f0 39             	xor    eax,0x39
  401a52:	0f be c0             	movsx  eax,al
  401a55:	3b 45 f0             	cmp    eax,DWORD PTR [ebp-0x10]
  401a58:	74 0b                	je     401a65 <_check+0x551>
  401a5a:	8b 45 f4             	mov    eax,DWORD PTR [ebp-0xc]
  401a5d:	89 04 24             	mov    DWORD PTR [esp],eax
  401a60:	e8 db f8 ff ff       	call   401340 <_badboy>
  401a65:	83 45 f4 01          	add    DWORD PTR [ebp-0xc],0x1
  401a69:	c7 45 f0 a8 00 00 00 	mov    DWORD PTR [ebp-0x10],0xa8
  401a70:	8b 55 f4             	mov    edx,DWORD PTR [ebp-0xc]
  401a73:	8b 45 08             	mov    eax,DWORD PTR [ebp+0x8]
  401a76:	01 d0                	add    eax,edx
  401a78:	0f b6 00             	movzx  eax,BYTE PTR [eax]
  401a7b:	0f be c0             	movsx  eax,al
  401a7e:	34 88                	xor    al,0x88
  401a80:	3b 45 f0             	cmp    eax,DWORD PTR [ebp-0x10]
  401a83:	74 0b                	je     401a90 <_check+0x57c>
  401a85:	8b 45 f4             	mov    eax,DWORD PTR [ebp-0xc]
  401a88:	89 04 24             	mov    DWORD PTR [esp],eax
  401a8b:	e8 b0 f8 ff ff       	call   401340 <_badboy>
  401a90:	83 45 f4 01          	add    DWORD PTR [ebp-0xc],0x1
  401a94:	c7 45 f0 38 00 00 00 	mov    DWORD PTR [ebp-0x10],0x38
  401a9b:	8b 55 f4             	mov    edx,DWORD PTR [ebp-0xc]
  401a9e:	8b 45 08             	mov    eax,DWORD PTR [ebp+0x8]
  401aa1:	01 d0                	add    eax,edx
  401aa3:	0f b6 00             	movzx  eax,BYTE PTR [eax]
  401aa6:	83 f0 5e             	xor    eax,0x5e
  401aa9:	0f be c0             	movsx  eax,al
  401aac:	3b 45 f0             	cmp    eax,DWORD PTR [ebp-0x10]
  401aaf:	74 0b                	je     401abc <_check+0x5a8>
  401ab1:	8b 45 f4             	mov    eax,DWORD PTR [ebp-0xc]
  401ab4:	89 04 24             	mov    DWORD PTR [esp],eax
  401ab7:	e8 84 f8 ff ff       	call   401340 <_badboy>
  401abc:	83 45 f4 01          	add    DWORD PTR [ebp-0xc],0x1
  401ac0:	c7 45 f0 87 00 00 00 	mov    DWORD PTR [ebp-0x10],0x87
  401ac7:	8b 55 f4             	mov    edx,DWORD PTR [ebp-0xc]
  401aca:	8b 45 08             	mov    eax,DWORD PTR [ebp+0x8]
  401acd:	01 d0                	add    eax,edx
  401acf:	0f b6 00             	movzx  eax,BYTE PTR [eax]
  401ad2:	0f be c0             	movsx  eax,al
  401ad5:	34 f2                	xor    al,0xf2
  401ad7:	3b 45 f0             	cmp    eax,DWORD PTR [ebp-0x10]
  401ada:	74 0b                	je     401ae7 <_check+0x5d3>
  401adc:	8b 45 f4             	mov    eax,DWORD PTR [ebp-0xc]
  401adf:	89 04 24             	mov    DWORD PTR [esp],eax
  401ae2:	e8 59 f8 ff ff       	call   401340 <_badboy>
  401ae7:	83 45 f4 01          	add    DWORD PTR [ebp-0xc],0x1
  401aeb:	c7 45 f0 26 00 00 00 	mov    DWORD PTR [ebp-0x10],0x26
  401af2:	8b 55 f4             	mov    edx,DWORD PTR [ebp-0xc]
  401af5:	8b 45 08             	mov    eax,DWORD PTR [ebp+0x8]
  401af8:	01 d0                	add    eax,edx
  401afa:	0f b6 00             	movzx  eax,BYTE PTR [eax]
  401afd:	83 f0 54             	xor    eax,0x54
  401b00:	0f be c0             	movsx  eax,al
  401b03:	3b 45 f0             	cmp    eax,DWORD PTR [ebp-0x10]
  401b06:	74 0b                	je     401b13 <_check+0x5ff>
  401b08:	8b 45 f4             	mov    eax,DWORD PTR [ebp-0xc]
  401b0b:	89 04 24             	mov    DWORD PTR [esp],eax
  401b0e:	e8 2d f8 ff ff       	call   401340 <_badboy>
  401b13:	83 45 f4 01          	add    DWORD PTR [ebp-0xc],0x1
  401b17:	c7 45 f0 3f 00 00 00 	mov    DWORD PTR [ebp-0x10],0x3f
  401b1e:	8b 55 f4             	mov    edx,DWORD PTR [ebp-0xc]
  401b21:	8b 45 08             	mov    eax,DWORD PTR [ebp+0x8]
  401b24:	01 d0                	add    eax,edx
  401b26:	0f b6 00             	movzx  eax,BYTE PTR [eax]
  401b29:	83 f0 4b             	xor    eax,0x4b
  401b2c:	0f be c0             	movsx  eax,al
  401b2f:	3b 45 f0             	cmp    eax,DWORD PTR [ebp-0x10]
  401b32:	74 0b                	je     401b3f <_check+0x62b>
  401b34:	8b 45 f4             	mov    eax,DWORD PTR [ebp-0xc]
  401b37:	89 04 24             	mov    DWORD PTR [esp],eax
  401b3a:	e8 01 f8 ff ff       	call   401340 <_badboy>
  401b3f:	83 45 f4 01          	add    DWORD PTR [ebp-0xc],0x1
  401b43:	c7 45 f0 54 00 00 00 	mov    DWORD PTR [ebp-0x10],0x54
  401b4a:	8b 55 f4             	mov    edx,DWORD PTR [ebp-0xc]
  401b4d:	8b 45 08             	mov    eax,DWORD PTR [ebp+0x8]
  401b50:	01 d0                	add    eax,edx
  401b52:	0f b6 00             	movzx  eax,BYTE PTR [eax]
  401b55:	83 f0 3c             	xor    eax,0x3c
  401b58:	0f be c0             	movsx  eax,al
  401b5b:	3b 45 f0             	cmp    eax,DWORD PTR [ebp-0x10]
  401b5e:	74 0b                	je     401b6b <_check+0x657>
  401b60:	8b 45 f4             	mov    eax,DWORD PTR [ebp-0xc]
  401b63:	89 04 24             	mov    DWORD PTR [esp],eax
  401b66:	e8 d5 f7 ff ff       	call   401340 <_badboy>
  401b6b:	83 45 f4 01          	add    DWORD PTR [ebp-0xc],0x1
  401b6f:	c7 45 f0 b0 00 00 00 	mov    DWORD PTR [ebp-0x10],0xb0
  401b76:	8b 55 f4             	mov    edx,DWORD PTR [ebp-0xc]
  401b79:	8b 45 08             	mov    eax,DWORD PTR [ebp+0x8]
  401b7c:	01 d0                	add    eax,edx
  401b7e:	0f b6 00             	movzx  eax,BYTE PTR [eax]
  401b81:	0f be c0             	movsx  eax,al
  401b84:	34 d5                	xor    al,0xd5
  401b86:	3b 45 f0             	cmp    eax,DWORD PTR [ebp-0x10]
  401b89:	74 0b                	je     401b96 <_check+0x682>
  401b8b:	8b 45 f4             	mov    eax,DWORD PTR [ebp-0xc]
  401b8e:	89 04 24             	mov    DWORD PTR [esp],eax
  401b91:	e8 aa f7 ff ff       	call   401340 <_badboy>
  401b96:	83 45 f4 01          	add    DWORD PTR [ebp-0xc],0x1
  401b9a:	c7 45 f0 a0 00 00 00 	mov    DWORD PTR [ebp-0x10],0xa0
  401ba1:	8b 55 f4             	mov    edx,DWORD PTR [ebp-0xc]
  401ba4:	8b 45 08             	mov    eax,DWORD PTR [ebp+0x8]
  401ba7:	01 d0                	add    eax,edx
  401ba9:	0f b6 00             	movzx  eax,BYTE PTR [eax]
  401bac:	0f be c0             	movsx  eax,al
  401baf:	34 d2                	xor    al,0xd2
  401bb1:	3b 45 f0             	cmp    eax,DWORD PTR [ebp-0x10]
  401bb4:	74 0b                	je     401bc1 <_check+0x6ad>
  401bb6:	8b 45 f4             	mov    eax,DWORD PTR [ebp-0xc]
  401bb9:	89 04 24             	mov    DWORD PTR [esp],eax
  401bbc:	e8 7f f7 ff ff       	call   401340 <_badboy>
  401bc1:	83 45 f4 01          	add    DWORD PTR [ebp-0xc],0x1
  401bc5:	c7 45 f0 db 00 00 00 	mov    DWORD PTR [ebp-0x10],0xdb
  401bcc:	8b 55 f4             	mov    edx,DWORD PTR [ebp-0xc]
  401bcf:	8b 45 08             	mov    eax,DWORD PTR [ebp+0x8]
  401bd2:	01 d0                	add    eax,edx
  401bd4:	0f b6 00             	movzx  eax,BYTE PTR [eax]
  401bd7:	0f be c0             	movsx  eax,al
  401bda:	34 f7                	xor    al,0xf7
  401bdc:	3b 45 f0             	cmp    eax,DWORD PTR [ebp-0x10]
  401bdf:	74 0b                	je     401bec <_check+0x6d8>
  401be1:	8b 45 f4             	mov    eax,DWORD PTR [ebp-0xc]
  401be4:	89 04 24             	mov    DWORD PTR [esp],eax
  401be7:	e8 54 f7 ff ff       	call   401340 <_badboy>
  401bec:	83 45 f4 01          	add    DWORD PTR [ebp-0xc],0x1
  401bf0:	c7 45 f0 51 00 00 00 	mov    DWORD PTR [ebp-0x10],0x51
  401bf7:	8b 55 f4             	mov    edx,DWORD PTR [ebp-0xc]
  401bfa:	8b 45 08             	mov    eax,DWORD PTR [ebp+0x8]
  401bfd:	01 d0                	add    eax,edx
  401bff:	0f b6 00             	movzx  eax,BYTE PTR [eax]
  401c02:	83 f0 71             	xor    eax,0x71
  401c05:	0f be c0             	movsx  eax,al
  401c08:	3b 45 f0             	cmp    eax,DWORD PTR [ebp-0x10]
  401c0b:	74 0b                	je     401c18 <_check+0x704>
  401c0d:	8b 45 f4             	mov    eax,DWORD PTR [ebp-0xc]
  401c10:	89 04 24             	mov    DWORD PTR [esp],eax
  401c13:	e8 28 f7 ff ff       	call   401340 <_badboy>
  401c18:	83 45 f4 01          	add    DWORD PTR [ebp-0xc],0x1
  401c1c:	c7 45 f0 78 00 00 00 	mov    DWORD PTR [ebp-0x10],0x78
  401c23:	8b 55 f4             	mov    edx,DWORD PTR [ebp-0xc]
  401c26:	8b 45 08             	mov    eax,DWORD PTR [ebp+0x8]
  401c29:	01 d0                	add    eax,edx
  401c2b:	0f b6 00             	movzx  eax,BYTE PTR [eax]
  401c2e:	83 f0 1c             	xor    eax,0x1c
  401c31:	0f be c0             	movsx  eax,al
  401c34:	3b 45 f0             	cmp    eax,DWORD PTR [ebp-0x10]
  401c37:	74 0b                	je     401c44 <_check+0x730>
  401c39:	8b 45 f4             	mov    eax,DWORD PTR [ebp-0xc]
  401c3c:	89 04 24             	mov    DWORD PTR [esp],eax
  401c3f:	e8 fc f6 ff ff       	call   401340 <_badboy>
  401c44:	83 45 f4 01          	add    DWORD PTR [ebp-0xc],0x1
  401c48:	c7 45 f0 9d 00 00 00 	mov    DWORD PTR [ebp-0x10],0x9d
  401c4f:	8b 55 f4             	mov    edx,DWORD PTR [ebp-0xc]
  401c52:	8b 45 08             	mov    eax,DWORD PTR [ebp+0x8]
  401c55:	01 d0                	add    eax,edx
  401c57:	0f b6 00             	movzx  eax,BYTE PTR [eax]
  401c5a:	0f be c0             	movsx  eax,al
  401c5d:	34 f2                	xor    al,0xf2
  401c5f:	3b 45 f0             	cmp    eax,DWORD PTR [ebp-0x10]
  401c62:	74 0b                	je     401c6f <_check+0x75b>
  401c64:	8b 45 f4             	mov    eax,DWORD PTR [ebp-0xc]
  401c67:	89 04 24             	mov    DWORD PTR [esp],eax
  401c6a:	e8 d1 f6 ff ff       	call   401340 <_badboy>
  401c6f:	83 45 f4 01          	add    DWORD PTR [ebp-0xc],0x1
  401c73:	c7 45 f0 d2 00 00 00 	mov    DWORD PTR [ebp-0x10],0xd2
  401c7a:	8b 55 f4             	mov    edx,DWORD PTR [ebp-0xc]
  401c7d:	8b 45 08             	mov    eax,DWORD PTR [ebp+0x8]
  401c80:	01 d0                	add    eax,edx
  401c82:	0f b6 00             	movzx  eax,BYTE PTR [eax]
  401c85:	0f be c0             	movsx  eax,al
  401c88:	34 bc                	xor    al,0xbc
  401c8a:	3b 45 f0             	cmp    eax,DWORD PTR [ebp-0x10]
  401c8d:	74 0b                	je     401c9a <_check+0x786>
  401c8f:	8b 45 f4             	mov    eax,DWORD PTR [ebp-0xc]
  401c92:	89 04 24             	mov    DWORD PTR [esp],eax
  401c95:	e8 a6 f6 ff ff       	call   401340 <_badboy>
  401c9a:	83 45 f4 01          	add    DWORD PTR [ebp-0xc],0x1
  401c9e:	c7 45 f0 d0 00 00 00 	mov    DWORD PTR [ebp-0x10],0xd0
  401ca5:	8b 55 f4             	mov    edx,DWORD PTR [ebp-0xc]
  401ca8:	8b 45 08             	mov    eax,DWORD PTR [ebp+0x8]
  401cab:	01 d0                	add    eax,edx
  401cad:	0f b6 00             	movzx  eax,BYTE PTR [eax]
  401cb0:	0f be c0             	movsx  eax,al
  401cb3:	34 f7                	xor    al,0xf7
  401cb5:	3b 45 f0             	cmp    eax,DWORD PTR [ebp-0x10]
  401cb8:	74 0b                	je     401cc5 <_check+0x7b1>
  401cba:	8b 45 f4             	mov    eax,DWORD PTR [ebp-0xc]
  401cbd:	89 04 24             	mov    DWORD PTR [esp],eax
  401cc0:	e8 7b f6 ff ff       	call   401340 <_badboy>
  401cc5:	83 45 f4 01          	add    DWORD PTR [ebp-0xc],0x1
  401cc9:	c7 45 f0 4f 00 00 00 	mov    DWORD PTR [ebp-0x10],0x4f
  401cd0:	8b 55 f4             	mov    edx,DWORD PTR [ebp-0xc]
  401cd3:	8b 45 08             	mov    eax,DWORD PTR [ebp+0x8]
  401cd6:	01 d0                	add    eax,edx
  401cd8:	0f b6 00             	movzx  eax,BYTE PTR [eax]
  401cdb:	83 f0 3b             	xor    eax,0x3b
  401cde:	0f be c0             	movsx  eax,al
  401ce1:	3b 45 f0             	cmp    eax,DWORD PTR [ebp-0x10]
  401ce4:	74 0b                	je     401cf1 <_check+0x7dd>
  401ce6:	8b 45 f4             	mov    eax,DWORD PTR [ebp-0xc]
  401ce9:	89 04 24             	mov    DWORD PTR [esp],eax
  401cec:	e8 4f f6 ff ff       	call   401340 <_badboy>
  401cf1:	83 45 f4 01          	add    DWORD PTR [ebp-0xc],0x1
  401cf5:	c7 45 f0 3f 00 00 00 	mov    DWORD PTR [ebp-0x10],0x3f
  401cfc:	8b 55 f4             	mov    edx,DWORD PTR [ebp-0xc]
  401cff:	8b 45 08             	mov    eax,DWORD PTR [ebp+0x8]
  401d02:	01 d0                	add    eax,edx
  401d04:	0f b6 00             	movzx  eax,BYTE PTR [eax]
  401d07:	83 f0 1f             	xor    eax,0x1f
  401d0a:	0f be c0             	movsx  eax,al
  401d0d:	3b 45 f0             	cmp    eax,DWORD PTR [ebp-0x10]
  401d10:	74 0b                	je     401d1d <_check+0x809>
  401d12:	8b 45 f4             	mov    eax,DWORD PTR [ebp-0xc]
  401d15:	89 04 24             	mov    DWORD PTR [esp],eax
  401d18:	e8 23 f6 ff ff       	call   401340 <_badboy>
  401d1d:	83 45 f4 01          	add    DWORD PTR [ebp-0xc],0x1
  401d21:	c7 45 f0 33 00 00 00 	mov    DWORD PTR [ebp-0x10],0x33
  401d28:	8b 55 f4             	mov    edx,DWORD PTR [ebp-0xc]
  401d2b:	8b 45 08             	mov    eax,DWORD PTR [ebp+0x8]
  401d2e:	01 d0                	add    eax,edx
  401d30:	0f b6 00             	movzx  eax,BYTE PTR [eax]
  401d33:	83 f0 54             	xor    eax,0x54
  401d36:	0f be c0             	movsx  eax,al
  401d39:	3b 45 f0             	cmp    eax,DWORD PTR [ebp-0x10]
  401d3c:	74 0b                	je     401d49 <_check+0x835>
  401d3e:	8b 45 f4             	mov    eax,DWORD PTR [ebp-0xc]
  401d41:	89 04 24             	mov    DWORD PTR [esp],eax
  401d44:	e8 f7 f5 ff ff       	call   401340 <_badboy>
  401d49:	83 45 f4 01          	add    DWORD PTR [ebp-0xc],0x1
  401d4d:	c7 45 f0 bf 00 00 00 	mov    DWORD PTR [ebp-0x10],0xbf
  401d54:	8b 55 f4             	mov    edx,DWORD PTR [ebp-0xc]
  401d57:	8b 45 08             	mov    eax,DWORD PTR [ebp+0x8]
  401d5a:	01 d0                	add    eax,edx
  401d5c:	0f b6 00             	movzx  eax,BYTE PTR [eax]
  401d5f:	0f be c0             	movsx  eax,al
  401d62:	34 d6                	xor    al,0xd6
  401d64:	3b 45 f0             	cmp    eax,DWORD PTR [ebp-0x10]
  401d67:	74 0b                	je     401d74 <_check+0x860>
  401d69:	8b 45 f4             	mov    eax,DWORD PTR [ebp-0xc]
  401d6c:	89 04 24             	mov    DWORD PTR [esp],eax
  401d6f:	e8 cc f5 ff ff       	call   401340 <_badboy>
  401d74:	83 45 f4 01          	add    DWORD PTR [ebp-0xc],0x1
  401d78:	c7 45 f0 0f 00 00 00 	mov    DWORD PTR [ebp-0x10],0xf
  401d7f:	8b 55 f4             	mov    edx,DWORD PTR [ebp-0xc]
  401d82:	8b 45 08             	mov    eax,DWORD PTR [ebp+0x8]
  401d85:	01 d0                	add    eax,edx
  401d87:	0f b6 00             	movzx  eax,BYTE PTR [eax]
  401d8a:	83 f0 79             	xor    eax,0x79
  401d8d:	0f be c0             	movsx  eax,al
  401d90:	3b 45 f0             	cmp    eax,DWORD PTR [ebp-0x10]
  401d93:	74 0b                	je     401da0 <_check+0x88c>
  401d95:	8b 45 f4             	mov    eax,DWORD PTR [ebp-0xc]
  401d98:	89 04 24             	mov    DWORD PTR [esp],eax
  401d9b:	e8 a0 f5 ff ff       	call   401340 <_badboy>
  401da0:	83 45 f4 01          	add    DWORD PTR [ebp-0xc],0x1
  401da4:	c7 45 f0 20 00 00 00 	mov    DWORD PTR [ebp-0x10],0x20
  401dab:	8b 55 f4             	mov    edx,DWORD PTR [ebp-0xc]
  401dae:	8b 45 08             	mov    eax,DWORD PTR [ebp+0x8]
  401db1:	01 d0                	add    eax,edx
  401db3:	0f b6 00             	movzx  eax,BYTE PTR [eax]
  401db6:	83 f0 45             	xor    eax,0x45
  401db9:	0f be c0             	movsx  eax,al
  401dbc:	3b 45 f0             	cmp    eax,DWORD PTR [ebp-0x10]
  401dbf:	74 0b                	je     401dcc <_check+0x8b8>
  401dc1:	8b 45 f4             	mov    eax,DWORD PTR [ebp-0xc]
  401dc4:	89 04 24             	mov    DWORD PTR [esp],eax
  401dc7:	e8 74 f5 ff ff       	call   401340 <_badboy>
  401dcc:	83 45 f4 01          	add    DWORD PTR [ebp-0xc],0x1
  401dd0:	c7 45 f0 51 00 00 00 	mov    DWORD PTR [ebp-0x10],0x51
  401dd7:	8b 55 f4             	mov    edx,DWORD PTR [ebp-0xc]
  401dda:	8b 45 08             	mov    eax,DWORD PTR [ebp+0x8]
  401ddd:	01 d0                	add    eax,edx
  401ddf:	0f b6 00             	movzx  eax,BYTE PTR [eax]
  401de2:	83 f0 71             	xor    eax,0x71
  401de5:	0f be c0             	movsx  eax,al
  401de8:	3b 45 f0             	cmp    eax,DWORD PTR [ebp-0x10]
  401deb:	74 0b                	je     401df8 <_check+0x8e4>
  401ded:	8b 45 f4             	mov    eax,DWORD PTR [ebp-0xc]
  401df0:	89 04 24             	mov    DWORD PTR [esp],eax
  401df3:	e8 48 f5 ff ff       	call   401340 <_badboy>
  401df8:	83 45 f4 01          	add    DWORD PTR [ebp-0xc],0x1
  401dfc:	c7 45 f0 43 00 00 00 	mov    DWORD PTR [ebp-0x10],0x43
  401e03:	8b 55 f4             	mov    edx,DWORD PTR [ebp-0xc]
  401e06:	8b 45 08             	mov    eax,DWORD PTR [ebp+0x8]
  401e09:	01 d0                	add    eax,edx
  401e0b:	0f b6 00             	movzx  eax,BYTE PTR [eax]
  401e0e:	83 f0 36             	xor    eax,0x36
  401e11:	0f be c0             	movsx  eax,al
  401e14:	3b 45 f0             	cmp    eax,DWORD PTR [ebp-0x10]
  401e17:	74 0b                	je     401e24 <_check+0x910>
  401e19:	8b 45 f4             	mov    eax,DWORD PTR [ebp-0xc]
  401e1c:	89 04 24             	mov    DWORD PTR [esp],eax
  401e1f:	e8 1c f5 ff ff       	call   401340 <_badboy>
  401e24:	83 45 f4 01          	add    DWORD PTR [ebp-0xc],0x1
  401e28:	c7 45 f0 48 00 00 00 	mov    DWORD PTR [ebp-0x10],0x48
  401e2f:	8b 55 f4             	mov    edx,DWORD PTR [ebp-0xc]
  401e32:	8b 45 08             	mov    eax,DWORD PTR [ebp+0x8]
  401e35:	01 d0                	add    eax,edx
  401e37:	0f b6 00             	movzx  eax,BYTE PTR [eax]
  401e3a:	83 f0 38             	xor    eax,0x38
  401e3d:	0f be c0             	movsx  eax,al
  401e40:	3b 45 f0             	cmp    eax,DWORD PTR [ebp-0x10]
  401e43:	74 0b                	je     401e50 <_check+0x93c>
  401e45:	8b 45 f4             	mov    eax,DWORD PTR [ebp-0xc]
  401e48:	89 04 24             	mov    DWORD PTR [esp],eax
  401e4b:	e8 f0 f4 ff ff       	call   401340 <_badboy>
  401e50:	83 45 f4 01          	add    DWORD PTR [ebp-0xc],0x1
  401e54:	c7 45 f0 e4 00 00 00 	mov    DWORD PTR [ebp-0x10],0xe4
  401e5b:	8b 55 f4             	mov    edx,DWORD PTR [ebp-0xc]
  401e5e:	8b 45 08             	mov    eax,DWORD PTR [ebp+0x8]
  401e61:	01 d0                	add    eax,edx
  401e63:	0f b6 00             	movzx  eax,BYTE PTR [eax]
  401e66:	0f be c0             	movsx  eax,al
  401e69:	34 c5                	xor    al,0xc5
  401e6b:	3b 45 f0             	cmp    eax,DWORD PTR [ebp-0x10]
  401e6e:	74 0b                	je     401e7b <_check+0x967>
  401e70:	8b 45 f4             	mov    eax,DWORD PTR [ebp-0xc]
  401e73:	89 04 24             	mov    DWORD PTR [esp],eax
  401e76:	e8 c5 f4 ff ff       	call   401340 <_badboy>
  401e7b:	83 45 f4 01          	add    DWORD PTR [ebp-0xc],0x1
  401e7f:	c7 45 f0 72 00 00 00 	mov    DWORD PTR [ebp-0x10],0x72
  401e86:	8b 55 f4             	mov    edx,DWORD PTR [ebp-0xc]
  401e89:	8b 45 08             	mov    eax,DWORD PTR [ebp+0x8]
  401e8c:	01 d0                	add    eax,edx
  401e8e:	0f b6 00             	movzx  eax,BYTE PTR [eax]
  401e91:	83 f0 78             	xor    eax,0x78
  401e94:	0f be c0             	movsx  eax,al
  401e97:	3b 45 f0             	cmp    eax,DWORD PTR [ebp-0x10]
  401e9a:	74 0b                	je     401ea7 <_check+0x993>
  401e9c:	8b 45 f4             	mov    eax,DWORD PTR [ebp-0xc]
  401e9f:	89 04 24             	mov    DWORD PTR [esp],eax
  401ea2:	e8 99 f4 ff ff       	call   401340 <_badboy>
  401ea7:	83 45 f4 01          	add    DWORD PTR [ebp-0xc],0x1
  401eab:	c7 45 f0 58 00 00 00 	mov    DWORD PTR [ebp-0x10],0x58
  401eb2:	8b 55 f4             	mov    edx,DWORD PTR [ebp-0xc]
  401eb5:	8b 45 08             	mov    eax,DWORD PTR [ebp+0x8]
  401eb8:	01 d0                	add    eax,edx
  401eba:	0f b6 00             	movzx  eax,BYTE PTR [eax]
  401ebd:	83 f0 52             	xor    eax,0x52
  401ec0:	0f be c0             	movsx  eax,al
  401ec3:	3b 45 f0             	cmp    eax,DWORD PTR [ebp-0x10]
  401ec6:	74 0b                	je     401ed3 <_check+0x9bf>
  401ec8:	8b 45 f4             	mov    eax,DWORD PTR [ebp-0xc]
  401ecb:	89 04 24             	mov    DWORD PTR [esp],eax
  401ece:	e8 6d f4 ff ff       	call   401340 <_badboy>
  401ed3:	83 45 f4 01          	add    DWORD PTR [ebp-0xc],0x1
  401ed7:	c7 45 f0 e3 00 00 00 	mov    DWORD PTR [ebp-0x10],0xe3
  401ede:	8b 55 f4             	mov    edx,DWORD PTR [ebp-0xc]
  401ee1:	8b 45 08             	mov    eax,DWORD PTR [ebp+0x8]
  401ee4:	01 d0                	add    eax,edx
  401ee6:	0f b6 00             	movzx  eax,BYTE PTR [eax]
  401ee9:	0f be c0             	movsx  eax,al
  401eec:	34 ab                	xor    al,0xab
  401eee:	3b 45 f0             	cmp    eax,DWORD PTR [ebp-0x10]
  401ef1:	74 0b                	je     401efe <_check+0x9ea>
  401ef3:	8b 45 f4             	mov    eax,DWORD PTR [ebp-0xc]
  401ef6:	89 04 24             	mov    DWORD PTR [esp],eax
  401ef9:	e8 42 f4 ff ff       	call   401340 <_badboy>
  401efe:	83 45 f4 01          	add    DWORD PTR [ebp-0xc],0x1
  401f02:	c7 45 f0 b3 00 00 00 	mov    DWORD PTR [ebp-0x10],0xb3
  401f09:	8b 55 f4             	mov    edx,DWORD PTR [ebp-0xc]
  401f0c:	8b 45 08             	mov    eax,DWORD PTR [ebp+0x8]
  401f0f:	01 d0                	add    eax,edx
  401f11:	0f b6 00             	movzx  eax,BYTE PTR [eax]
  401f14:	0f be c0             	movsx  eax,al
  401f17:	34 d6                	xor    al,0xd6
  401f19:	3b 45 f0             	cmp    eax,DWORD PTR [ebp-0x10]
  401f1c:	74 0b                	je     401f29 <_check+0xa15>
  401f1e:	8b 45 f4             	mov    eax,DWORD PTR [ebp-0xc]
  401f21:	89 04 24             	mov    DWORD PTR [esp],eax
  401f24:	e8 17 f4 ff ff       	call   401340 <_badboy>
  401f29:	83 45 f4 01          	add    DWORD PTR [ebp-0xc],0x1
  401f2d:	c7 45 f0 f1 00 00 00 	mov    DWORD PTR [ebp-0x10],0xf1
  401f34:	8b 55 f4             	mov    edx,DWORD PTR [ebp-0xc]
  401f37:	8b 45 08             	mov    eax,DWORD PTR [ebp+0x8]
  401f3a:	01 d0                	add    eax,edx
  401f3c:	0f b6 00             	movzx  eax,BYTE PTR [eax]
  401f3f:	0f be c0             	movsx  eax,al
  401f42:	34 98                	xor    al,0x98
  401f44:	3b 45 f0             	cmp    eax,DWORD PTR [ebp-0x10]
  401f47:	74 0b                	je     401f54 <_check+0xa40>
  401f49:	8b 45 f4             	mov    eax,DWORD PTR [ebp-0xc]
  401f4c:	89 04 24             	mov    DWORD PTR [esp],eax
  401f4f:	e8 ec f3 ff ff       	call   401340 <_badboy>
  401f54:	83 45 f4 01          	add    DWORD PTR [ebp-0xc],0x1
  401f58:	c7 45 f0 81 00 00 00 	mov    DWORD PTR [ebp-0x10],0x81
  401f5f:	8b 55 f4             	mov    edx,DWORD PTR [ebp-0xc]
  401f62:	8b 45 08             	mov    eax,DWORD PTR [ebp+0x8]
  401f65:	01 d0                	add    eax,edx
  401f67:	0f b6 00             	movzx  eax,BYTE PTR [eax]
  401f6a:	0f be c0             	movsx  eax,al
  401f6d:	34 f2                	xor    al,0xf2
  401f6f:	3b 45 f0             	cmp    eax,DWORD PTR [ebp-0x10]
  401f72:	74 0b                	je     401f7f <_check+0xa6b>
  401f74:	8b 45 f4             	mov    eax,DWORD PTR [ebp-0xc]
  401f77:	89 04 24             	mov    DWORD PTR [esp],eax
  401f7a:	e8 c1 f3 ff ff       	call   401340 <_badboy>
  401f7f:	83 45 f4 01          	add    DWORD PTR [ebp-0xc],0x1
  401f83:	c7 45 f0 85 00 00 00 	mov    DWORD PTR [ebp-0x10],0x85
  401f8a:	8b 55 f4             	mov    edx,DWORD PTR [ebp-0xc]
  401f8d:	8b 45 08             	mov    eax,DWORD PTR [ebp+0x8]
  401f90:	01 d0                	add    eax,edx
  401f92:	0f b6 00             	movzx  eax,BYTE PTR [eax]
  401f95:	0f be c0             	movsx  eax,al
  401f98:	34 ed                	xor    al,0xed
  401f9a:	3b 45 f0             	cmp    eax,DWORD PTR [ebp-0x10]
  401f9d:	74 0b                	je     401faa <_check+0xa96>
  401f9f:	8b 45 f4             	mov    eax,DWORD PTR [ebp-0xc]
  401fa2:	89 04 24             	mov    DWORD PTR [esp],eax
  401fa5:	e8 96 f3 ff ff       	call   401340 <_badboy>
  401faa:	83 45 f4 01          	add    DWORD PTR [ebp-0xc],0x1
  401fae:	c7 45 f0 28 00 00 00 	mov    DWORD PTR [ebp-0x10],0x28
  401fb5:	8b 55 f4             	mov    edx,DWORD PTR [ebp-0xc]
  401fb8:	8b 45 08             	mov    eax,DWORD PTR [ebp+0x8]
  401fbb:	01 d0                	add    eax,edx
  401fbd:	0f b6 00             	movzx  eax,BYTE PTR [eax]
  401fc0:	83 f0 41             	xor    eax,0x41
  401fc3:	0f be c0             	movsx  eax,al
  401fc6:	3b 45 f0             	cmp    eax,DWORD PTR [ebp-0x10]
  401fc9:	74 0b                	je     401fd6 <_check+0xac2>
  401fcb:	8b 45 f4             	mov    eax,DWORD PTR [ebp-0xc]
  401fce:	89 04 24             	mov    DWORD PTR [esp],eax
  401fd1:	e8 6a f3 ff ff       	call   401340 <_badboy>
  401fd6:	83 45 f4 01          	add    DWORD PTR [ebp-0xc],0x1
  401fda:	c7 45 f0 5b 00 00 00 	mov    DWORD PTR [ebp-0x10],0x5b
  401fe1:	8b 55 f4             	mov    edx,DWORD PTR [ebp-0xc]
  401fe4:	8b 45 08             	mov    eax,DWORD PTR [ebp+0x8]
  401fe7:	01 d0                	add    eax,edx
  401fe9:	0f b6 00             	movzx  eax,BYTE PTR [eax]
  401fec:	83 f0 29             	xor    eax,0x29
  401fef:	0f be c0             	movsx  eax,al
  401ff2:	3b 45 f0             	cmp    eax,DWORD PTR [ebp-0x10]
  401ff5:	74 0b                	je     402002 <_check+0xaee>
  401ff7:	8b 45 f4             	mov    eax,DWORD PTR [ebp-0xc]
  401ffa:	89 04 24             	mov    DWORD PTR [esp],eax
  401ffd:	e8 3e f3 ff ff       	call   401340 <_badboy>
  402002:	83 45 f4 01          	add    DWORD PTR [ebp-0xc],0x1
  402006:	c7 45 f0 cc 00 00 00 	mov    DWORD PTR [ebp-0x10],0xcc
  40200d:	8b 55 f4             	mov    edx,DWORD PTR [ebp-0xc]
  402010:	8b 45 08             	mov    eax,DWORD PTR [ebp+0x8]
  402013:	01 d0                	add    eax,edx
  402015:	0f b6 00             	movzx  eax,BYTE PTR [eax]
  402018:	0f be c0             	movsx  eax,al
  40201b:	34 a3                	xor    al,0xa3
  40201d:	3b 45 f0             	cmp    eax,DWORD PTR [ebp-0x10]
  402020:	74 0b                	je     40202d <_check+0xb19>
  402022:	8b 45 f4             	mov    eax,DWORD PTR [ebp-0xc]
  402025:	89 04 24             	mov    DWORD PTR [esp],eax
  402028:	e8 13 f3 ff ff       	call   401340 <_badboy>
  40202d:	83 45 f4 01          	add    DWORD PTR [ebp-0xc],0x1
  402031:	c7 45 f0 d5 00 00 00 	mov    DWORD PTR [ebp-0x10],0xd5
  402038:	8b 55 f4             	mov    edx,DWORD PTR [ebp-0xc]
  40203b:	8b 45 08             	mov    eax,DWORD PTR [ebp+0x8]
  40203e:	01 d0                	add    eax,edx
  402040:	0f b6 00             	movzx  eax,BYTE PTR [eax]
  402043:	0f be c0             	movsx  eax,al
  402046:	34 f5                	xor    al,0xf5
  402048:	3b 45 f0             	cmp    eax,DWORD PTR [ebp-0x10]
  40204b:	74 0b                	je     402058 <_check+0xb44>
  40204d:	8b 45 f4             	mov    eax,DWORD PTR [ebp-0xc]
  402050:	89 04 24             	mov    DWORD PTR [esp],eax
  402053:	e8 e8 f2 ff ff       	call   401340 <_badboy>
  402058:	83 45 f4 01          	add    DWORD PTR [ebp-0xc],0x1
  40205c:	c7 45 f0 26 00 00 00 	mov    DWORD PTR [ebp-0x10],0x26
  402063:	8b 55 f4             	mov    edx,DWORD PTR [ebp-0xc]
  402066:	8b 45 08             	mov    eax,DWORD PTR [ebp+0x8]
  402069:	01 d0                	add    eax,edx
  40206b:	0f b6 00             	movzx  eax,BYTE PTR [eax]
  40206e:	83 f0 6b             	xor    eax,0x6b
  402071:	0f be c0             	movsx  eax,al
  402074:	3b 45 f0             	cmp    eax,DWORD PTR [ebp-0x10]
  402077:	74 0b                	je     402084 <_check+0xb70>
  402079:	8b 45 f4             	mov    eax,DWORD PTR [ebp-0xc]
  40207c:	89 04 24             	mov    DWORD PTR [esp],eax
  40207f:	e8 bc f2 ff ff       	call   401340 <_badboy>
  402084:	83 45 f4 01          	add    DWORD PTR [ebp-0xc],0x1
  402088:	c7 45 f0 3c 00 00 00 	mov    DWORD PTR [ebp-0x10],0x3c
  40208f:	8b 55 f4             	mov    edx,DWORD PTR [ebp-0xc]
  402092:	8b 45 08             	mov    eax,DWORD PTR [ebp+0x8]
  402095:	01 d0                	add    eax,edx
  402097:	0f b6 00             	movzx  eax,BYTE PTR [eax]
  40209a:	83 f0 55             	xor    eax,0x55
  40209d:	0f be c0             	movsx  eax,al
  4020a0:	3b 45 f0             	cmp    eax,DWORD PTR [ebp-0x10]
  4020a3:	74 0b                	je     4020b0 <_check+0xb9c>
  4020a5:	8b 45 f4             	mov    eax,DWORD PTR [ebp-0xc]
  4020a8:	89 04 24             	mov    DWORD PTR [esp],eax
  4020ab:	e8 90 f2 ff ff       	call   401340 <_badboy>
  4020b0:	83 45 f4 01          	add    DWORD PTR [ebp-0xc],0x1
  4020b4:	c7 45 f0 d4 00 00 00 	mov    DWORD PTR [ebp-0x10],0xd4
  4020bb:	8b 55 f4             	mov    edx,DWORD PTR [ebp-0xc]
  4020be:	8b 45 08             	mov    eax,DWORD PTR [ebp+0x8]
  4020c1:	01 d0                	add    eax,edx
  4020c3:	0f b6 00             	movzx  eax,BYTE PTR [eax]
  4020c6:	0f be c0             	movsx  eax,al
  4020c9:	34 a0                	xor    al,0xa0
  4020cb:	3b 45 f0             	cmp    eax,DWORD PTR [ebp-0x10]
  4020ce:	74 0b                	je     4020db <_check+0xbc7>
  4020d0:	8b 45 f4             	mov    eax,DWORD PTR [ebp-0xc]
  4020d3:	89 04 24             	mov    DWORD PTR [esp],eax
  4020d6:	e8 65 f2 ff ff       	call   401340 <_badboy>
  4020db:	83 45 f4 01          	add    DWORD PTR [ebp-0xc],0x1
  4020df:	c7 45 f0 99 00 00 00 	mov    DWORD PTR [ebp-0x10],0x99
  4020e6:	8b 55 f4             	mov    edx,DWORD PTR [ebp-0xc]
  4020e9:	8b 45 08             	mov    eax,DWORD PTR [ebp+0x8]
  4020ec:	01 d0                	add    eax,edx
  4020ee:	0f b6 00             	movzx  eax,BYTE PTR [eax]
  4020f1:	0f be c0             	movsx  eax,al
  4020f4:	34 ea                	xor    al,0xea
  4020f6:	3b 45 f0             	cmp    eax,DWORD PTR [ebp-0x10]
  4020f9:	74 0b                	je     402106 <_check+0xbf2>
  4020fb:	8b 45 f4             	mov    eax,DWORD PTR [ebp-0xc]
  4020fe:	89 04 24             	mov    DWORD PTR [esp],eax
  402101:	e8 3a f2 ff ff       	call   401340 <_badboy>
  402106:	83 45 f4 01          	add    DWORD PTR [ebp-0xc],0x1
  40210a:	c7 45 f0 4c 00 00 00 	mov    DWORD PTR [ebp-0x10],0x4c
  402111:	8b 55 f4             	mov    edx,DWORD PTR [ebp-0xc]
  402114:	8b 45 08             	mov    eax,DWORD PTR [ebp+0x8]
  402117:	01 d0                	add    eax,edx
  402119:	0f b6 00             	movzx  eax,BYTE PTR [eax]
  40211c:	83 f0 39             	xor    eax,0x39
  40211f:	0f be c0             	movsx  eax,al
  402122:	3b 45 f0             	cmp    eax,DWORD PTR [ebp-0x10]
  402125:	74 0b                	je     402132 <_check+0xc1e>
  402127:	8b 45 f4             	mov    eax,DWORD PTR [ebp-0xc]
  40212a:	89 04 24             	mov    DWORD PTR [esp],eax
  40212d:	e8 0e f2 ff ff       	call   401340 <_badboy>
  402132:	83 45 f4 01          	add    DWORD PTR [ebp-0xc],0x1
  402136:	c7 45 f0 5f 00 00 00 	mov    DWORD PTR [ebp-0x10],0x5f
  40213d:	8b 55 f4             	mov    edx,DWORD PTR [ebp-0xc]
  402140:	8b 45 08             	mov    eax,DWORD PTR [ebp+0x8]
  402143:	01 d0                	add    eax,edx
  402145:	0f b6 00             	movzx  eax,BYTE PTR [eax]
  402148:	83 f0 2d             	xor    eax,0x2d
  40214b:	0f be c0             	movsx  eax,al
  40214e:	3b 45 f0             	cmp    eax,DWORD PTR [ebp-0x10]
  402151:	74 0b                	je     40215e <_check+0xc4a>
  402153:	8b 45 f4             	mov    eax,DWORD PTR [ebp-0xc]
  402156:	89 04 24             	mov    DWORD PTR [esp],eax
  402159:	e8 e2 f1 ff ff       	call   401340 <_badboy>
  40215e:	83 45 f4 01          	add    DWORD PTR [ebp-0xc],0x1
  402162:	c7 45 f0 8a 00 00 00 	mov    DWORD PTR [ebp-0x10],0x8a
  402169:	8b 55 f4             	mov    edx,DWORD PTR [ebp-0xc]
  40216c:	8b 45 08             	mov    eax,DWORD PTR [ebp+0x8]
  40216f:	01 d0                	add    eax,edx
  402171:	0f b6 00             	movzx  eax,BYTE PTR [eax]
  402174:	0f be c0             	movsx  eax,al
  402177:	34 ff                	xor    al,0xff
  402179:	3b 45 f0             	cmp    eax,DWORD PTR [ebp-0x10]
  40217c:	74 0b                	je     402189 <_check+0xc75>
  40217e:	8b 45 f4             	mov    eax,DWORD PTR [ebp-0xc]
  402181:	89 04 24             	mov    DWORD PTR [esp],eax
  402184:	e8 b7 f1 ff ff       	call   401340 <_badboy>
  402189:	83 45 f4 01          	add    DWORD PTR [ebp-0xc],0x1
  40218d:	c7 45 f0 22 00 00 00 	mov    DWORD PTR [ebp-0x10],0x22
  402194:	8b 55 f4             	mov    edx,DWORD PTR [ebp-0xc]
  402197:	8b 45 08             	mov    eax,DWORD PTR [ebp+0x8]
  40219a:	01 d0                	add    eax,edx
  40219c:	0f b6 00             	movzx  eax,BYTE PTR [eax]
  40219f:	83 f0 45             	xor    eax,0x45
  4021a2:	0f be c0             	movsx  eax,al
  4021a5:	3b 45 f0             	cmp    eax,DWORD PTR [ebp-0x10]
  4021a8:	74 0b                	je     4021b5 <_check+0xca1>
  4021aa:	8b 45 f4             	mov    eax,DWORD PTR [ebp-0xc]
  4021ad:	89 04 24             	mov    DWORD PTR [esp],eax
  4021b0:	e8 8b f1 ff ff       	call   401340 <_badboy>
  4021b5:	83 45 f4 01          	add    DWORD PTR [ebp-0xc],0x1
  4021b9:	c7 45 f0 5c 00 00 00 	mov    DWORD PTR [ebp-0x10],0x5c
  4021c0:	8b 55 f4             	mov    edx,DWORD PTR [ebp-0xc]
  4021c3:	8b 45 08             	mov    eax,DWORD PTR [ebp+0x8]
  4021c6:	01 d0                	add    eax,edx
  4021c8:	0f b6 00             	movzx  eax,BYTE PTR [eax]
  4021cb:	83 f0 35             	xor    eax,0x35
  4021ce:	0f be c0             	movsx  eax,al
  4021d1:	3b 45 f0             	cmp    eax,DWORD PTR [ebp-0x10]
  4021d4:	74 0b                	je     4021e1 <_check+0xccd>
  4021d6:	8b 45 f4             	mov    eax,DWORD PTR [ebp-0xc]
  4021d9:	89 04 24             	mov    DWORD PTR [esp],eax
  4021dc:	e8 5f f1 ff ff       	call   401340 <_badboy>
  4021e1:	83 45 f4 01          	add    DWORD PTR [ebp-0xc],0x1
  4021e5:	c7 45 f0 69 00 00 00 	mov    DWORD PTR [ebp-0x10],0x69
  4021ec:	8b 55 f4             	mov    edx,DWORD PTR [ebp-0xc]
  4021ef:	8b 45 08             	mov    eax,DWORD PTR [ebp+0x8]
  4021f2:	01 d0                	add    eax,edx
  4021f4:	0f b6 00             	movzx  eax,BYTE PTR [eax]
  4021f7:	83 f0 49             	xor    eax,0x49
  4021fa:	0f be c0             	movsx  eax,al
  4021fd:	3b 45 f0             	cmp    eax,DWORD PTR [ebp-0x10]
  402200:	74 0b                	je     40220d <_check+0xcf9>
  402202:	8b 45 f4             	mov    eax,DWORD PTR [ebp-0xc]
  402205:	89 04 24             	mov    DWORD PTR [esp],eax
  402208:	e8 33 f1 ff ff       	call   401340 <_badboy>
  40220d:	83 45 f4 01          	add    DWORD PTR [ebp-0xc],0x1
  402211:	c7 45 f0 99 00 00 00 	mov    DWORD PTR [ebp-0x10],0x99
  402218:	8b 55 f4             	mov    edx,DWORD PTR [ebp-0xc]
  40221b:	8b 45 08             	mov    eax,DWORD PTR [ebp+0x8]
  40221e:	01 d0                	add    eax,edx
  402220:	0f b6 00             	movzx  eax,BYTE PTR [eax]
  402223:	0f be c0             	movsx  eax,al
  402226:	34 f0                	xor    al,0xf0
  402228:	3b 45 f0             	cmp    eax,DWORD PTR [ebp-0x10]
  40222b:	74 0b                	je     402238 <_check+0xd24>
  40222d:	8b 45 f4             	mov    eax,DWORD PTR [ebp-0xc]
  402230:	89 04 24             	mov    DWORD PTR [esp],eax
  402233:	e8 08 f1 ff ff       	call   401340 <_badboy>
  402238:	83 45 f4 01          	add    DWORD PTR [ebp-0xc],0x1
  40223c:	c7 45 f0 b1 00 00 00 	mov    DWORD PTR [ebp-0x10],0xb1
  402243:	8b 55 f4             	mov    edx,DWORD PTR [ebp-0xc]
  402246:	8b 45 08             	mov    eax,DWORD PTR [ebp+0x8]
  402249:	01 d0                	add    eax,edx
  40224b:	0f b6 00             	movzx  eax,BYTE PTR [eax]
  40224e:	0f be c0             	movsx  eax,al
  402251:	34 c2                	xor    al,0xc2
  402253:	3b 45 f0             	cmp    eax,DWORD PTR [ebp-0x10]
  402256:	74 0b                	je     402263 <_check+0xd4f>
  402258:	8b 45 f4             	mov    eax,DWORD PTR [ebp-0xc]
  40225b:	89 04 24             	mov    DWORD PTR [esp],eax
  40225e:	e8 dd f0 ff ff       	call   401340 <_badboy>
  402263:	83 45 f4 01          	add    DWORD PTR [ebp-0xc],0x1
  402267:	c7 45 f0 10 00 00 00 	mov    DWORD PTR [ebp-0x10],0x10
  40226e:	8b 55 f4             	mov    edx,DWORD PTR [ebp-0xc]
  402271:	8b 45 08             	mov    eax,DWORD PTR [ebp+0x8]
  402274:	01 d0                	add    eax,edx
  402276:	0f b6 00             	movzx  eax,BYTE PTR [eax]
  402279:	83 f0 30             	xor    eax,0x30
  40227c:	0f be c0             	movsx  eax,al
  40227f:	3b 45 f0             	cmp    eax,DWORD PTR [ebp-0x10]
  402282:	74 0b                	je     40228f <_check+0xd7b>
  402284:	8b 45 f4             	mov    eax,DWORD PTR [ebp-0xc]
  402287:	89 04 24             	mov    DWORD PTR [esp],eax
  40228a:	e8 b1 f0 ff ff       	call   401340 <_badboy>
  40228f:	83 45 f4 01          	add    DWORD PTR [ebp-0xc],0x1
  402293:	c7 45 f0 fb 00 00 00 	mov    DWORD PTR [ebp-0x10],0xfb
  40229a:	8b 55 f4             	mov    edx,DWORD PTR [ebp-0xc]
  40229d:	8b 45 08             	mov    eax,DWORD PTR [ebp+0x8]
  4022a0:	01 d0                	add    eax,edx
  4022a2:	0f b6 00             	movzx  eax,BYTE PTR [eax]
  4022a5:	0f be c0             	movsx  eax,al
  4022a8:	34 94                	xor    al,0x94
  4022aa:	3b 45 f0             	cmp    eax,DWORD PTR [ebp-0x10]
  4022ad:	74 0b                	je     4022ba <_check+0xda6>
  4022af:	8b 45 f4             	mov    eax,DWORD PTR [ebp-0xc]
  4022b2:	89 04 24             	mov    DWORD PTR [esp],eax
  4022b5:	e8 86 f0 ff ff       	call   401340 <_badboy>
  4022ba:	83 45 f4 01          	add    DWORD PTR [ebp-0xc],0x1
  4022be:	c7 45 f0 f1 00 00 00 	mov    DWORD PTR [ebp-0x10],0xf1
  4022c5:	8b 55 f4             	mov    edx,DWORD PTR [ebp-0xc]
  4022c8:	8b 45 08             	mov    eax,DWORD PTR [ebp+0x8]
  4022cb:	01 d0                	add    eax,edx
  4022cd:	0f b6 00             	movzx  eax,BYTE PTR [eax]
  4022d0:	0f be c0             	movsx  eax,al
  4022d3:	34 9f                	xor    al,0x9f
  4022d5:	3b 45 f0             	cmp    eax,DWORD PTR [ebp-0x10]
  4022d8:	74 0b                	je     4022e5 <_check+0xdd1>
  4022da:	8b 45 f4             	mov    eax,DWORD PTR [ebp-0xc]
  4022dd:	89 04 24             	mov    DWORD PTR [esp],eax
  4022e0:	e8 5b f0 ff ff       	call   401340 <_badboy>
  4022e5:	83 45 f4 01          	add    DWORD PTR [ebp-0xc],0x1
  4022e9:	c7 45 f0 80 00 00 00 	mov    DWORD PTR [ebp-0x10],0x80
  4022f0:	8b 55 f4             	mov    edx,DWORD PTR [ebp-0xc]
  4022f3:	8b 45 08             	mov    eax,DWORD PTR [ebp+0x8]
  4022f6:	01 d0                	add    eax,edx
  4022f8:	0f b6 00             	movzx  eax,BYTE PTR [eax]
  4022fb:	0f be c0             	movsx  eax,al
  4022fe:	34 e5                	xor    al,0xe5
  402300:	3b 45 f0             	cmp    eax,DWORD PTR [ebp-0x10]
  402303:	74 0b                	je     402310 <_check+0xdfc>
  402305:	8b 45 f4             	mov    eax,DWORD PTR [ebp-0xc]
  402308:	89 04 24             	mov    DWORD PTR [esp],eax
  40230b:	e8 30 f0 ff ff       	call   401340 <_badboy>
  402310:	83 45 f4 01          	add    DWORD PTR [ebp-0xc],0x1
  402314:	c7 45 f0 9c 00 00 00 	mov    DWORD PTR [ebp-0x10],0x9c
  40231b:	8b 55 f4             	mov    edx,DWORD PTR [ebp-0xc]
  40231e:	8b 45 08             	mov    eax,DWORD PTR [ebp+0x8]
  402321:	01 d0                	add    eax,edx
  402323:	0f b6 00             	movzx  eax,BYTE PTR [eax]
  402326:	0f be c0             	movsx  eax,al
  402329:	34 bc                	xor    al,0xbc
  40232b:	3b 45 f0             	cmp    eax,DWORD PTR [ebp-0x10]
  40232e:	74 0b                	je     40233b <_check+0xe27>
  402330:	8b 45 f4             	mov    eax,DWORD PTR [ebp-0xc]
  402333:	89 04 24             	mov    DWORD PTR [esp],eax
  402336:	e8 05 f0 ff ff       	call   401340 <_badboy>
  40233b:	83 45 f4 01          	add    DWORD PTR [ebp-0xc],0x1
  40233f:	c7 45 f0 ff 00 00 00 	mov    DWORD PTR [ebp-0x10],0xff
  402346:	8b 55 f4             	mov    edx,DWORD PTR [ebp-0xc]
  402349:	8b 45 08             	mov    eax,DWORD PTR [ebp+0x8]
  40234c:	01 d0                	add    eax,edx
  40234e:	0f b6 00             	movzx  eax,BYTE PTR [eax]
  402351:	0f be c0             	movsx  eax,al
  402354:	34 90                	xor    al,0x90
  402356:	3b 45 f0             	cmp    eax,DWORD PTR [ebp-0x10]
  402359:	74 0b                	je     402366 <_check+0xe52>
  40235b:	8b 45 f4             	mov    eax,DWORD PTR [ebp-0xc]
  40235e:	89 04 24             	mov    DWORD PTR [esp],eax
  402361:	e8 da ef ff ff       	call   401340 <_badboy>
  402366:	83 45 f4 01          	add    DWORD PTR [ebp-0xc],0x1
  40236a:	c7 45 f0 8b 00 00 00 	mov    DWORD PTR [ebp-0x10],0x8b
  402371:	8b 55 f4             	mov    edx,DWORD PTR [ebp-0xc]
  402374:	8b 45 08             	mov    eax,DWORD PTR [ebp+0x8]
  402377:	01 d0                	add    eax,edx
  402379:	0f b6 00             	movzx  eax,BYTE PTR [eax]
  40237c:	0f be c0             	movsx  eax,al
  40237f:	34 ed                	xor    al,0xed
  402381:	3b 45 f0             	cmp    eax,DWORD PTR [ebp-0x10]
  402384:	74 0b                	je     402391 <_check+0xe7d>
  402386:	8b 45 f4             	mov    eax,DWORD PTR [ebp-0xc]
  402389:	89 04 24             	mov    DWORD PTR [esp],eax
  40238c:	e8 af ef ff ff       	call   401340 <_badboy>
  402391:	83 45 f4 01          	add    DWORD PTR [ebp-0xc],0x1
  402395:	c7 45 f0 b9 00 00 00 	mov    DWORD PTR [ebp-0x10],0xb9
  40239c:	8b 55 f4             	mov    edx,DWORD PTR [ebp-0xc]
  40239f:	8b 45 08             	mov    eax,DWORD PTR [ebp+0x8]
  4023a2:	01 d0                	add    eax,edx
  4023a4:	0f b6 00             	movzx  eax,BYTE PTR [eax]
  4023a7:	0f be c0             	movsx  eax,al
  4023aa:	34 99                	xor    al,0x99
  4023ac:	3b 45 f0             	cmp    eax,DWORD PTR [ebp-0x10]
  4023af:	74 0b                	je     4023bc <_check+0xea8>
  4023b1:	8b 45 f4             	mov    eax,DWORD PTR [ebp-0xc]
  4023b4:	89 04 24             	mov    DWORD PTR [esp],eax
  4023b7:	e8 84 ef ff ff       	call   401340 <_badboy>
  4023bc:	83 45 f4 01          	add    DWORD PTR [ebp-0xc],0x1
  4023c0:	c7 45 f0 73 00 00 00 	mov    DWORD PTR [ebp-0x10],0x73
  4023c7:	8b 55 f4             	mov    edx,DWORD PTR [ebp-0xc]
  4023ca:	8b 45 08             	mov    eax,DWORD PTR [ebp+0x8]
  4023cd:	01 d0                	add    eax,edx
  4023cf:	0f b6 00             	movzx  eax,BYTE PTR [eax]
  4023d2:	83 f0 07             	xor    eax,0x7
  4023d5:	0f be c0             	movsx  eax,al
  4023d8:	3b 45 f0             	cmp    eax,DWORD PTR [ebp-0x10]
  4023db:	74 0b                	je     4023e8 <_check+0xed4>
  4023dd:	8b 45 f4             	mov    eax,DWORD PTR [ebp-0xc]
  4023e0:	89 04 24             	mov    DWORD PTR [esp],eax
  4023e3:	e8 58 ef ff ff       	call   401340 <_badboy>
  4023e8:	83 45 f4 01          	add    DWORD PTR [ebp-0xc],0x1
  4023ec:	c7 45 f0 5c 00 00 00 	mov    DWORD PTR [ebp-0x10],0x5c
  4023f3:	8b 55 f4             	mov    edx,DWORD PTR [ebp-0xc]
  4023f6:	8b 45 08             	mov    eax,DWORD PTR [ebp+0x8]
  4023f9:	01 d0                	add    eax,edx
  4023fb:	0f b6 00             	movzx  eax,BYTE PTR [eax]
  4023fe:	83 f0 34             	xor    eax,0x34
  402401:	0f be c0             	movsx  eax,al
  402404:	3b 45 f0             	cmp    eax,DWORD PTR [ebp-0x10]
  402407:	74 0b                	je     402414 <_check+0xf00>
  402409:	8b 45 f4             	mov    eax,DWORD PTR [ebp-0xc]
  40240c:	89 04 24             	mov    DWORD PTR [esp],eax
  40240f:	e8 2c ef ff ff       	call   401340 <_badboy>
  402414:	83 45 f4 01          	add    DWORD PTR [ebp-0xc],0x1
  402418:	c7 45 f0 d9 00 00 00 	mov    DWORD PTR [ebp-0x10],0xd9
  40241f:	8b 55 f4             	mov    edx,DWORD PTR [ebp-0xc]
  402422:	8b 45 08             	mov    eax,DWORD PTR [ebp+0x8]
  402425:	01 d0                	add    eax,edx
  402427:	0f b6 00             	movzx  eax,BYTE PTR [eax]
  40242a:	0f be c0             	movsx  eax,al
  40242d:	34 bc                	xor    al,0xbc
  40242f:	3b 45 f0             	cmp    eax,DWORD PTR [ebp-0x10]
  402432:	74 0b                	je     40243f <_check+0xf2b>
  402434:	8b 45 f4             	mov    eax,DWORD PTR [ebp-0xc]
  402437:	89 04 24             	mov    DWORD PTR [esp],eax
  40243a:	e8 01 ef ff ff       	call   401340 <_badboy>
  40243f:	83 45 f4 01          	add    DWORD PTR [ebp-0xc],0x1
  402443:	c7 45 f0 c0 00 00 00 	mov    DWORD PTR [ebp-0x10],0xc0
  40244a:	8b 55 f4             	mov    edx,DWORD PTR [ebp-0xc]
  40244d:	8b 45 08             	mov    eax,DWORD PTR [ebp+0x8]
  402450:	01 d0                	add    eax,edx
  402452:	0f b6 00             	movzx  eax,BYTE PTR [eax]
  402455:	0f be c0             	movsx  eax,al
  402458:	34 e0                	xor    al,0xe0
  40245a:	3b 45 f0             	cmp    eax,DWORD PTR [ebp-0x10]
  40245d:	74 0b                	je     40246a <_check+0xf56>
  40245f:	8b 45 f4             	mov    eax,DWORD PTR [ebp-0xc]
  402462:	89 04 24             	mov    DWORD PTR [esp],eax
  402465:	e8 d6 ee ff ff       	call   401340 <_badboy>
  40246a:	83 45 f4 01          	add    DWORD PTR [ebp-0xc],0x1
  40246e:	c7 45 f0 ef 00 00 00 	mov    DWORD PTR [ebp-0x10],0xef
  402475:	8b 55 f4             	mov    edx,DWORD PTR [ebp-0xc]
  402478:	8b 45 08             	mov    eax,DWORD PTR [ebp+0x8]
  40247b:	01 d0                	add    eax,edx
  40247d:	0f b6 00             	movzx  eax,BYTE PTR [eax]
  402480:	0f be c0             	movsx  eax,al
  402483:	34 82                	xor    al,0x82
  402485:	3b 45 f0             	cmp    eax,DWORD PTR [ebp-0x10]
  402488:	74 0b                	je     402495 <_check+0xf81>
  40248a:	8b 45 f4             	mov    eax,DWORD PTR [ebp-0xc]
  40248d:	89 04 24             	mov    DWORD PTR [esp],eax
  402490:	e8 ab ee ff ff       	call   401340 <_badboy>
  402495:	83 45 f4 01          	add    DWORD PTR [ebp-0xc],0x1
  402499:	c7 45 f0 2e 00 00 00 	mov    DWORD PTR [ebp-0x10],0x2e
  4024a0:	8b 55 f4             	mov    edx,DWORD PTR [ebp-0xc]
  4024a3:	8b 45 08             	mov    eax,DWORD PTR [ebp+0x8]
  4024a6:	01 d0                	add    eax,edx
  4024a8:	0f b6 00             	movzx  eax,BYTE PTR [eax]
  4024ab:	83 f0 41             	xor    eax,0x41
  4024ae:	0f be c0             	movsx  eax,al
  4024b1:	3b 45 f0             	cmp    eax,DWORD PTR [ebp-0x10]
  4024b4:	74 0b                	je     4024c1 <_check+0xfad>
  4024b6:	8b 45 f4             	mov    eax,DWORD PTR [ebp-0xc]
  4024b9:	89 04 24             	mov    DWORD PTR [esp],eax
  4024bc:	e8 7f ee ff ff       	call   401340 <_badboy>
  4024c1:	83 45 f4 01          	add    DWORD PTR [ebp-0xc],0x1
  4024c5:	c7 45 f0 4e 00 00 00 	mov    DWORD PTR [ebp-0x10],0x4e
  4024cc:	8b 55 f4             	mov    edx,DWORD PTR [ebp-0xc]
  4024cf:	8b 45 08             	mov    eax,DWORD PTR [ebp+0x8]
  4024d2:	01 d0                	add    eax,edx
  4024d4:	0f b6 00             	movzx  eax,BYTE PTR [eax]
  4024d7:	83 f0 3d             	xor    eax,0x3d
  4024da:	0f be c0             	movsx  eax,al
  4024dd:	3b 45 f0             	cmp    eax,DWORD PTR [ebp-0x10]
  4024e0:	74 0b                	je     4024ed <_check+0xfd9>
  4024e2:	8b 45 f4             	mov    eax,DWORD PTR [ebp-0xc]
  4024e5:	89 04 24             	mov    DWORD PTR [esp],eax
  4024e8:	e8 53 ee ff ff       	call   401340 <_badboy>
  4024ed:	83 45 f4 01          	add    DWORD PTR [ebp-0xc],0x1
  4024f1:	c7 45 f0 0c 00 00 00 	mov    DWORD PTR [ebp-0x10],0xc
  4024f8:	8b 55 f4             	mov    edx,DWORD PTR [ebp-0xc]
  4024fb:	8b 45 08             	mov    eax,DWORD PTR [ebp+0x8]
  4024fe:	01 d0                	add    eax,edx
  402500:	0f b6 00             	movzx  eax,BYTE PTR [eax]
  402503:	83 f0 78             	xor    eax,0x78
  402506:	0f be c0             	movsx  eax,al
  402509:	3b 45 f0             	cmp    eax,DWORD PTR [ebp-0x10]
  40250c:	74 0b                	je     402519 <_check+0x1005>
  40250e:	8b 45 f4             	mov    eax,DWORD PTR [ebp-0xc]
  402511:	89 04 24             	mov    DWORD PTR [esp],eax
  402514:	e8 27 ee ff ff       	call   401340 <_badboy>
  402519:	83 45 f4 01          	add    DWORD PTR [ebp-0xc],0x1
  40251d:	c7 45 f0 bb 00 00 00 	mov    DWORD PTR [ebp-0x10],0xbb
  402524:	8b 55 f4             	mov    edx,DWORD PTR [ebp-0xc]
  402527:	8b 45 08             	mov    eax,DWORD PTR [ebp+0x8]
  40252a:	01 d0                	add    eax,edx
  40252c:	0f b6 00             	movzx  eax,BYTE PTR [eax]
  40252f:	0f be c0             	movsx  eax,al
  402532:	34 9b                	xor    al,0x9b
  402534:	3b 45 f0             	cmp    eax,DWORD PTR [ebp-0x10]
  402537:	74 0b                	je     402544 <_check+0x1030>
  402539:	8b 45 f4             	mov    eax,DWORD PTR [ebp-0xc]
  40253c:	89 04 24             	mov    DWORD PTR [esp],eax
  40253f:	e8 fc ed ff ff       	call   401340 <_badboy>
  402544:	83 45 f4 01          	add    DWORD PTR [ebp-0xc],0x1
  402548:	c7 45 f0 20 00 00 00 	mov    DWORD PTR [ebp-0x10],0x20
  40254f:	8b 55 f4             	mov    edx,DWORD PTR [ebp-0xc]
  402552:	8b 45 08             	mov    eax,DWORD PTR [ebp+0x8]
  402555:	01 d0                	add    eax,edx
  402557:	0f b6 00             	movzx  eax,BYTE PTR [eax]
  40255a:	83 f0 52             	xor    eax,0x52
  40255d:	0f be c0             	movsx  eax,al
  402560:	3b 45 f0             	cmp    eax,DWORD PTR [ebp-0x10]
  402563:	74 0b                	je     402570 <_check+0x105c>
  402565:	8b 45 f4             	mov    eax,DWORD PTR [ebp-0xc]
  402568:	89 04 24             	mov    DWORD PTR [esp],eax
  40256b:	e8 d0 ed ff ff       	call   401340 <_badboy>
  402570:	83 45 f4 01          	add    DWORD PTR [ebp-0xc],0x1
  402574:	c7 45 f0 90 00 00 00 	mov    DWORD PTR [ebp-0x10],0x90
  40257b:	8b 55 f4             	mov    edx,DWORD PTR [ebp-0xc]
  40257e:	8b 45 08             	mov    eax,DWORD PTR [ebp+0x8]
  402581:	01 d0                	add    eax,edx
  402583:	0f b6 00             	movzx  eax,BYTE PTR [eax]
  402586:	0f be c0             	movsx  eax,al
  402589:	34 f5                	xor    al,0xf5
  40258b:	3b 45 f0             	cmp    eax,DWORD PTR [ebp-0x10]
  40258e:	74 0b                	je     40259b <_check+0x1087>
  402590:	8b 45 f4             	mov    eax,DWORD PTR [ebp-0xc]
  402593:	89 04 24             	mov    DWORD PTR [esp],eax
  402596:	e8 a5 ed ff ff       	call   401340 <_badboy>
  40259b:	83 45 f4 01          	add    DWORD PTR [ebp-0xc],0x1
  40259f:	c7 45 f0 f0 00 00 00 	mov    DWORD PTR [ebp-0x10],0xf0
  4025a6:	8b 55 f4             	mov    edx,DWORD PTR [ebp-0xc]
  4025a9:	8b 45 08             	mov    eax,DWORD PTR [ebp+0x8]
  4025ac:	01 d0                	add    eax,edx
  4025ae:	0f b6 00             	movzx  eax,BYTE PTR [eax]
  4025b1:	0f be c0             	movsx  eax,al
  4025b4:	34 93                	xor    al,0x93
  4025b6:	3b 45 f0             	cmp    eax,DWORD PTR [ebp-0x10]
  4025b9:	74 0b                	je     4025c6 <_check+0x10b2>
  4025bb:	8b 45 f4             	mov    eax,DWORD PTR [ebp-0xc]
  4025be:	89 04 24             	mov    DWORD PTR [esp],eax
  4025c1:	e8 7a ed ff ff       	call   401340 <_badboy>
  4025c6:	83 45 f4 01          	add    DWORD PTR [ebp-0xc],0x1
  4025ca:	c7 45 f0 4e 00 00 00 	mov    DWORD PTR [ebp-0x10],0x4e
  4025d1:	8b 55 f4             	mov    edx,DWORD PTR [ebp-0xc]
  4025d4:	8b 45 08             	mov    eax,DWORD PTR [ebp+0x8]
  4025d7:	01 d0                	add    eax,edx
  4025d9:	0f b6 00             	movzx  eax,BYTE PTR [eax]
  4025dc:	83 f0 21             	xor    eax,0x21
  4025df:	0f be c0             	movsx  eax,al
  4025e2:	3b 45 f0             	cmp    eax,DWORD PTR [ebp-0x10]
  4025e5:	74 0b                	je     4025f2 <_check+0x10de>
  4025e7:	8b 45 f4             	mov    eax,DWORD PTR [ebp-0xc]
  4025ea:	89 04 24             	mov    DWORD PTR [esp],eax
  4025ed:	e8 4e ed ff ff       	call   401340 <_badboy>
  4025f2:	83 45 f4 01          	add    DWORD PTR [ebp-0xc],0x1
  4025f6:	c7 45 f0 67 00 00 00 	mov    DWORD PTR [ebp-0x10],0x67
  4025fd:	8b 55 f4             	mov    edx,DWORD PTR [ebp-0xc]
  402600:	8b 45 08             	mov    eax,DWORD PTR [ebp+0x8]
  402603:	01 d0                	add    eax,edx
  402605:	0f b6 00             	movzx  eax,BYTE PTR [eax]
  402608:	0f be c0             	movsx  eax,al
  40260b:	3b 45 f0             	cmp    eax,DWORD PTR [ebp-0x10]
  40260e:	74 0b                	je     40261b <_check+0x1107>
  402610:	8b 45 f4             	mov    eax,DWORD PTR [ebp-0xc]
  402613:	89 04 24             	mov    DWORD PTR [esp],eax
  402616:	e8 25 ed ff ff       	call   401340 <_badboy>
  40261b:	83 45 f4 01          	add    DWORD PTR [ebp-0xc],0x1
  40261f:	c7 45 f0 63 00 00 00 	mov    DWORD PTR [ebp-0x10],0x63
  402626:	8b 55 f4             	mov    edx,DWORD PTR [ebp-0xc]
  402629:	8b 45 08             	mov    eax,DWORD PTR [ebp+0x8]
  40262c:	01 d0                	add    eax,edx
  40262e:	0f b6 00             	movzx  eax,BYTE PTR [eax]
  402631:	83 f0 0d             	xor    eax,0xd
  402634:	0f be c0             	movsx  eax,al
  402637:	3b 45 f0             	cmp    eax,DWORD PTR [ebp-0x10]
  40263a:	74 0b                	je     402647 <_check+0x1133>
  40263c:	8b 45 f4             	mov    eax,DWORD PTR [ebp-0xc]
  40263f:	89 04 24             	mov    DWORD PTR [esp],eax
  402642:	e8 f9 ec ff ff       	call   401340 <_badboy>
  402647:	83 45 f4 01          	add    DWORD PTR [ebp-0xc],0x1
  40264b:	c7 45 f0 4f 00 00 00 	mov    DWORD PTR [ebp-0x10],0x4f
  402652:	8b 55 f4             	mov    edx,DWORD PTR [ebp-0xc]
  402655:	8b 45 08             	mov    eax,DWORD PTR [ebp+0x8]
  402658:	01 d0                	add    eax,edx
  40265a:	0f b6 00             	movzx  eax,BYTE PTR [eax]
  40265d:	83 f0 26             	xor    eax,0x26
  402660:	0f be c0             	movsx  eax,al
  402663:	3b 45 f0             	cmp    eax,DWORD PTR [ebp-0x10]
  402666:	74 0b                	je     402673 <_check+0x115f>
  402668:	8b 45 f4             	mov    eax,DWORD PTR [ebp-0xc]
  40266b:	89 04 24             	mov    DWORD PTR [esp],eax
  40266e:	e8 cd ec ff ff       	call   401340 <_badboy>
  402673:	83 45 f4 01          	add    DWORD PTR [ebp-0xc],0x1
  402677:	c7 45 f0 86 00 00 00 	mov    DWORD PTR [ebp-0x10],0x86
  40267e:	8b 55 f4             	mov    edx,DWORD PTR [ebp-0xc]
  402681:	8b 45 08             	mov    eax,DWORD PTR [ebp+0x8]
  402684:	01 d0                	add    eax,edx
  402686:	0f b6 00             	movzx  eax,BYTE PTR [eax]
  402689:	0f be c0             	movsx  eax,al
  40268c:	34 fc                	xor    al,0xfc
  40268e:	3b 45 f0             	cmp    eax,DWORD PTR [ebp-0x10]
  402691:	74 0b                	je     40269e <_check+0x118a>
  402693:	8b 45 f4             	mov    eax,DWORD PTR [ebp-0xc]
  402696:	89 04 24             	mov    DWORD PTR [esp],eax
  402699:	e8 a2 ec ff ff       	call   401340 <_badboy>
  40269e:	83 45 f4 01          	add    DWORD PTR [ebp-0xc],0x1
  4026a2:	c7 45 f0 87 00 00 00 	mov    DWORD PTR [ebp-0x10],0x87
  4026a9:	8b 55 f4             	mov    edx,DWORD PTR [ebp-0xc]
  4026ac:	8b 45 08             	mov    eax,DWORD PTR [ebp+0x8]
  4026af:	01 d0                	add    eax,edx
  4026b1:	0f b6 00             	movzx  eax,BYTE PTR [eax]
  4026b4:	0f be c0             	movsx  eax,al
  4026b7:	34 e6                	xor    al,0xe6
  4026b9:	3b 45 f0             	cmp    eax,DWORD PTR [ebp-0x10]
  4026bc:	74 0b                	je     4026c9 <_check+0x11b5>
  4026be:	8b 45 f4             	mov    eax,DWORD PTR [ebp-0xc]
  4026c1:	89 04 24             	mov    DWORD PTR [esp],eax
  4026c4:	e8 77 ec ff ff       	call   401340 <_badboy>
  4026c9:	83 45 f4 01          	add    DWORD PTR [ebp-0xc],0x1
  4026cd:	c7 45 f0 12 00 00 00 	mov    DWORD PTR [ebp-0x10],0x12
  4026d4:	8b 55 f4             	mov    edx,DWORD PTR [ebp-0xc]
  4026d7:	8b 45 08             	mov    eax,DWORD PTR [ebp+0x8]
  4026da:	01 d0                	add    eax,edx
  4026dc:	0f b6 00             	movzx  eax,BYTE PTR [eax]
  4026df:	83 f0 70             	xor    eax,0x70
  4026e2:	0f be c0             	movsx  eax,al
  4026e5:	3b 45 f0             	cmp    eax,DWORD PTR [ebp-0x10]
  4026e8:	74 0b                	je     4026f5 <_check+0x11e1>
  4026ea:	8b 45 f4             	mov    eax,DWORD PTR [ebp-0xc]
  4026ed:	89 04 24             	mov    DWORD PTR [esp],eax
  4026f0:	e8 4b ec ff ff       	call   401340 <_badboy>
  4026f5:	83 45 f4 01          	add    DWORD PTR [ebp-0xc],0x1
  4026f9:	c7 45 f0 6b 00 00 00 	mov    DWORD PTR [ebp-0x10],0x6b
  402700:	8b 55 f4             	mov    edx,DWORD PTR [ebp-0xc]
  402703:	8b 45 08             	mov    eax,DWORD PTR [ebp+0x8]
  402706:	01 d0                	add    eax,edx
  402708:	0f b6 00             	movzx  eax,BYTE PTR [eax]
  40270b:	83 f0 07             	xor    eax,0x7
  40270e:	0f be c0             	movsx  eax,al
  402711:	3b 45 f0             	cmp    eax,DWORD PTR [ebp-0x10]
  402714:	74 0b                	je     402721 <_check+0x120d>
  402716:	8b 45 f4             	mov    eax,DWORD PTR [ebp-0xc]
  402719:	89 04 24             	mov    DWORD PTR [esp],eax
  40271c:	e8 1f ec ff ff       	call   401340 <_badboy>
  402721:	83 45 f4 01          	add    DWORD PTR [ebp-0xc],0x1
  402725:	c7 45 f0 f6 00 00 00 	mov    DWORD PTR [ebp-0x10],0xf6
  40272c:	8b 55 f4             	mov    edx,DWORD PTR [ebp-0xc]
  40272f:	8b 45 08             	mov    eax,DWORD PTR [ebp+0x8]
  402732:	01 d0                	add    eax,edx
  402734:	0f b6 00             	movzx  eax,BYTE PTR [eax]
  402737:	0f be c0             	movsx  eax,al
  40273a:	34 93                	xor    al,0x93
  40273c:	3b 45 f0             	cmp    eax,DWORD PTR [ebp-0x10]
  40273f:	74 0b                	je     40274c <_check+0x1238>
  402741:	8b 45 f4             	mov    eax,DWORD PTR [ebp-0xc]
  402744:	89 04 24             	mov    DWORD PTR [esp],eax
  402747:	e8 f4 eb ff ff       	call   401340 <_badboy>
  40274c:	83 45 f4 01          	add    DWORD PTR [ebp-0xc],0x1
  402750:	c7 45 f0 20 00 00 00 	mov    DWORD PTR [ebp-0x10],0x20
  402757:	8b 55 f4             	mov    edx,DWORD PTR [ebp-0xc]
  40275a:	8b 45 08             	mov    eax,DWORD PTR [ebp+0x8]
  40275d:	01 d0                	add    eax,edx
  40275f:	0f b6 00             	movzx  eax,BYTE PTR [eax]
  402762:	0f be c0             	movsx  eax,al
  402765:	3b 45 f0             	cmp    eax,DWORD PTR [ebp-0x10]
  402768:	74 0b                	je     402775 <_check+0x1261>
  40276a:	8b 45 f4             	mov    eax,DWORD PTR [ebp-0xc]
  40276d:	89 04 24             	mov    DWORD PTR [esp],eax
  402770:	e8 cb eb ff ff       	call   401340 <_badboy>
  402775:	83 45 f4 01          	add    DWORD PTR [ebp-0xc],0x1
  402779:	c7 45 f0 87 00 00 00 	mov    DWORD PTR [ebp-0x10],0x87
  402780:	8b 55 f4             	mov    edx,DWORD PTR [ebp-0xc]
  402783:	8b 45 08             	mov    eax,DWORD PTR [ebp+0x8]
  402786:	01 d0                	add    eax,edx
  402788:	0f b6 00             	movzx  eax,BYTE PTR [eax]
  40278b:	0f be c0             	movsx  eax,al
  40278e:	34 e4                	xor    al,0xe4
  402790:	3b 45 f0             	cmp    eax,DWORD PTR [ebp-0x10]
  402793:	74 0b                	je     4027a0 <_check+0x128c>
  402795:	8b 45 f4             	mov    eax,DWORD PTR [ebp-0xc]
  402798:	89 04 24             	mov    DWORD PTR [esp],eax
  40279b:	e8 a0 eb ff ff       	call   401340 <_badboy>
  4027a0:	83 45 f4 01          	add    DWORD PTR [ebp-0xc],0x1
  4027a4:	c7 45 f0 da 00 00 00 	mov    DWORD PTR [ebp-0x10],0xda
  4027ab:	8b 55 f4             	mov    edx,DWORD PTR [ebp-0xc]
  4027ae:	8b 45 08             	mov    eax,DWORD PTR [ebp+0x8]
  4027b1:	01 d0                	add    eax,edx
  4027b3:	0f b6 00             	movzx  eax,BYTE PTR [eax]
  4027b6:	0f be c0             	movsx  eax,al
  4027b9:	34 b2                	xor    al,0xb2
  4027bb:	3b 45 f0             	cmp    eax,DWORD PTR [ebp-0x10]
  4027be:	74 0b                	je     4027cb <_check+0x12b7>
  4027c0:	8b 45 f4             	mov    eax,DWORD PTR [ebp-0xc]
  4027c3:	89 04 24             	mov    DWORD PTR [esp],eax
  4027c6:	e8 75 eb ff ff       	call   401340 <_badboy>
  4027cb:	83 45 f4 01          	add    DWORD PTR [ebp-0xc],0x1
  4027cf:	c7 45 f0 65 00 00 00 	mov    DWORD PTR [ebp-0x10],0x65
  4027d6:	8b 55 f4             	mov    edx,DWORD PTR [ebp-0xc]
  4027d9:	8b 45 08             	mov    eax,DWORD PTR [ebp+0x8]
  4027dc:	01 d0                	add    eax,edx
  4027de:	0f b6 00             	movzx  eax,BYTE PTR [eax]
  4027e1:	83 f0 04             	xor    eax,0x4
  4027e4:	0f be c0             	movsx  eax,al
  4027e7:	3b 45 f0             	cmp    eax,DWORD PTR [ebp-0x10]
  4027ea:	74 0b                	je     4027f7 <_check+0x12e3>
  4027ec:	8b 45 f4             	mov    eax,DWORD PTR [ebp-0xc]
  4027ef:	89 04 24             	mov    DWORD PTR [esp],eax
  4027f2:	e8 49 eb ff ff       	call   401340 <_badboy>
  4027f7:	83 45 f4 01          	add    DWORD PTR [ebp-0xc],0x1
  4027fb:	c7 45 f0 7d 00 00 00 	mov    DWORD PTR [ebp-0x10],0x7d
  402802:	8b 55 f4             	mov    edx,DWORD PTR [ebp-0xc]
  402805:	8b 45 08             	mov    eax,DWORD PTR [ebp+0x8]
  402808:	01 d0                	add    eax,edx
  40280a:	0f b6 00             	movzx  eax,BYTE PTR [eax]
  40280d:	83 f0 0f             	xor    eax,0xf
  402810:	0f be c0             	movsx  eax,al
  402813:	3b 45 f0             	cmp    eax,DWORD PTR [ebp-0x10]
  402816:	74 0b                	je     402823 <_check+0x130f>
  402818:	8b 45 f4             	mov    eax,DWORD PTR [ebp-0xc]
  40281b:	89 04 24             	mov    DWORD PTR [esp],eax
  40281e:	e8 1d eb ff ff       	call   401340 <_badboy>
  402823:	83 45 f4 01          	add    DWORD PTR [ebp-0xc],0x1
  402827:	c7 45 f0 cd 00 00 00 	mov    DWORD PTR [ebp-0x10],0xcd
  40282e:	8b 55 f4             	mov    edx,DWORD PTR [ebp-0xc]
  402831:	8b 45 08             	mov    eax,DWORD PTR [ebp+0x8]
  402834:	01 d0                	add    eax,edx
  402836:	0f b6 00             	movzx  eax,BYTE PTR [eax]
  402839:	0f be c0             	movsx  eax,al
  40283c:	34 ac                	xor    al,0xac
  40283e:	3b 45 f0             	cmp    eax,DWORD PTR [ebp-0x10]
  402841:	74 0b                	je     40284e <_check+0x133a>
  402843:	8b 45 f4             	mov    eax,DWORD PTR [ebp-0xc]
  402846:	89 04 24             	mov    DWORD PTR [esp],eax
  402849:	e8 f2 ea ff ff       	call   401340 <_badboy>
  40284e:	83 45 f4 01          	add    DWORD PTR [ebp-0xc],0x1
  402852:	c7 45 f0 3e 00 00 00 	mov    DWORD PTR [ebp-0x10],0x3e
  402859:	8b 55 f4             	mov    edx,DWORD PTR [ebp-0xc]
  40285c:	8b 45 08             	mov    eax,DWORD PTR [ebp+0x8]
  40285f:	01 d0                	add    eax,edx
  402861:	0f b6 00             	movzx  eax,BYTE PTR [eax]
  402864:	83 f0 5d             	xor    eax,0x5d
  402867:	0f be c0             	movsx  eax,al
  40286a:	3b 45 f0             	cmp    eax,DWORD PTR [ebp-0x10]
  40286d:	74 0b                	je     40287a <_check+0x1366>
  40286f:	8b 45 f4             	mov    eax,DWORD PTR [ebp-0xc]
  402872:	89 04 24             	mov    DWORD PTR [esp],eax
  402875:	e8 c6 ea ff ff       	call   401340 <_badboy>
  40287a:	83 45 f4 01          	add    DWORD PTR [ebp-0xc],0x1
  40287e:	c7 45 f0 03 00 00 00 	mov    DWORD PTR [ebp-0x10],0x3
  402885:	8b 55 f4             	mov    edx,DWORD PTR [ebp-0xc]
  402888:	8b 45 08             	mov    eax,DWORD PTR [ebp+0x8]
  40288b:	01 d0                	add    eax,edx
  40288d:	0f b6 00             	movzx  eax,BYTE PTR [eax]
  402890:	83 f0 77             	xor    eax,0x77
  402893:	0f be c0             	movsx  eax,al
  402896:	3b 45 f0             	cmp    eax,DWORD PTR [ebp-0x10]
  402899:	74 0b                	je     4028a6 <_check+0x1392>
  40289b:	8b 45 f4             	mov    eax,DWORD PTR [ebp-0xc]
  40289e:	89 04 24             	mov    DWORD PTR [esp],eax
  4028a1:	e8 9a ea ff ff       	call   401340 <_badboy>
  4028a6:	83 45 f4 01          	add    DWORD PTR [ebp-0xc],0x1
  4028aa:	c7 45 f0 56 00 00 00 	mov    DWORD PTR [ebp-0x10],0x56
  4028b1:	8b 55 f4             	mov    edx,DWORD PTR [ebp-0xc]
  4028b4:	8b 45 08             	mov    eax,DWORD PTR [ebp+0x8]
  4028b7:	01 d0                	add    eax,edx
  4028b9:	0f b6 00             	movzx  eax,BYTE PTR [eax]
  4028bc:	83 f0 33             	xor    eax,0x33
  4028bf:	0f be c0             	movsx  eax,al
  4028c2:	3b 45 f0             	cmp    eax,DWORD PTR [ebp-0x10]
  4028c5:	74 0b                	je     4028d2 <_check+0x13be>
  4028c7:	8b 45 f4             	mov    eax,DWORD PTR [ebp-0xc]
  4028ca:	89 04 24             	mov    DWORD PTR [esp],eax
  4028cd:	e8 6e ea ff ff       	call   401340 <_badboy>
  4028d2:	83 45 f4 01          	add    DWORD PTR [ebp-0xc],0x1
  4028d6:	c7 45 f0 1b 00 00 00 	mov    DWORD PTR [ebp-0x10],0x1b
  4028dd:	8b 55 f4             	mov    edx,DWORD PTR [ebp-0xc]
  4028e0:	8b 45 08             	mov    eax,DWORD PTR [ebp+0x8]
  4028e3:	01 d0                	add    eax,edx
  4028e5:	0f b6 00             	movzx  eax,BYTE PTR [eax]
  4028e8:	83 f0 69             	xor    eax,0x69
  4028eb:	0f be c0             	movsx  eax,al
  4028ee:	3b 45 f0             	cmp    eax,DWORD PTR [ebp-0x10]
  4028f1:	74 0b                	je     4028fe <_check+0x13ea>
  4028f3:	8b 45 f4             	mov    eax,DWORD PTR [ebp-0xc]
  4028f6:	89 04 24             	mov    DWORD PTR [esp],eax
  4028f9:	e8 42 ea ff ff       	call   401340 <_badboy>
  4028fe:	83 45 f4 01          	add    DWORD PTR [ebp-0xc],0x1
  402902:	c7 45 f0 b4 00 00 00 	mov    DWORD PTR [ebp-0x10],0xb4
  402909:	8b 55 f4             	mov    edx,DWORD PTR [ebp-0xc]
  40290c:	8b 45 08             	mov    eax,DWORD PTR [ebp+0x8]
  40290f:	01 d0                	add    eax,edx
  402911:	0f b6 00             	movzx  eax,BYTE PTR [eax]
  402914:	0f be c0             	movsx  eax,al
  402917:	34 c7                	xor    al,0xc7
  402919:	3b 45 f0             	cmp    eax,DWORD PTR [ebp-0x10]
  40291c:	74 0b                	je     402929 <_check+0x1415>
  40291e:	8b 45 f4             	mov    eax,DWORD PTR [ebp-0xc]
  402921:	89 04 24             	mov    DWORD PTR [esp],eax
  402924:	e8 17 ea ff ff       	call   401340 <_badboy>
  402929:	83 45 f4 01          	add    DWORD PTR [ebp-0xc],0x1
  40292d:	c7 45 f0 b1 00 00 00 	mov    DWORD PTR [ebp-0x10],0xb1
  402934:	8b 55 f4             	mov    edx,DWORD PTR [ebp-0xc]
  402937:	8b 45 08             	mov    eax,DWORD PTR [ebp+0x8]
  40293a:	01 d0                	add    eax,edx
  40293c:	0f b6 00             	movzx  eax,BYTE PTR [eax]
  40293f:	0f be c0             	movsx  eax,al
  402942:	34 91                	xor    al,0x91
  402944:	3b 45 f0             	cmp    eax,DWORD PTR [ebp-0x10]
  402947:	74 0b                	je     402954 <_check+0x1440>
  402949:	8b 45 f4             	mov    eax,DWORD PTR [ebp-0xc]
  40294c:	89 04 24             	mov    DWORD PTR [esp],eax
  40294f:	e8 ec e9 ff ff       	call   401340 <_badboy>
  402954:	83 45 f4 01          	add    DWORD PTR [ebp-0xc],0x1
  402958:	c7 45 f0 e8 00 00 00 	mov    DWORD PTR [ebp-0x10],0xe8
  40295f:	8b 55 f4             	mov    edx,DWORD PTR [ebp-0xc]
  402962:	8b 45 08             	mov    eax,DWORD PTR [ebp+0x8]
  402965:	01 d0                	add    eax,edx
  402967:	0f b6 00             	movzx  eax,BYTE PTR [eax]
  40296a:	0f be c0             	movsx  eax,al
  40296d:	34 81                	xor    al,0x81
  40296f:	3b 45 f0             	cmp    eax,DWORD PTR [ebp-0x10]
  402972:	74 0b                	je     40297f <_check+0x146b>
  402974:	8b 45 f4             	mov    eax,DWORD PTR [ebp-0xc]
  402977:	89 04 24             	mov    DWORD PTR [esp],eax
  40297a:	e8 c1 e9 ff ff       	call   401340 <_badboy>
  40297f:	83 45 f4 01          	add    DWORD PTR [ebp-0xc],0x1
  402983:	c7 45 f0 cd 00 00 00 	mov    DWORD PTR [ebp-0x10],0xcd
  40298a:	8b 55 f4             	mov    edx,DWORD PTR [ebp-0xc]
  40298d:	8b 45 08             	mov    eax,DWORD PTR [ebp+0x8]
  402990:	01 d0                	add    eax,edx
  402992:	0f b6 00             	movzx  eax,BYTE PTR [eax]
  402995:	0f be c0             	movsx  eax,al
  402998:	34 a3                	xor    al,0xa3
  40299a:	3b 45 f0             	cmp    eax,DWORD PTR [ebp-0x10]
  40299d:	74 0b                	je     4029aa <_check+0x1496>
  40299f:	8b 45 f4             	mov    eax,DWORD PTR [ebp-0xc]
  4029a2:	89 04 24             	mov    DWORD PTR [esp],eax
  4029a5:	e8 96 e9 ff ff       	call   401340 <_badboy>
  4029aa:	83 45 f4 01          	add    DWORD PTR [ebp-0xc],0x1
  4029ae:	c7 45 f0 7d 00 00 00 	mov    DWORD PTR [ebp-0x10],0x7d
  4029b5:	8b 55 f4             	mov    edx,DWORD PTR [ebp-0xc]
  4029b8:	8b 45 08             	mov    eax,DWORD PTR [ebp+0x8]
  4029bb:	01 d0                	add    eax,edx
  4029bd:	0f b6 00             	movzx  eax,BYTE PTR [eax]
  4029c0:	83 f0 5d             	xor    eax,0x5d
  4029c3:	0f be c0             	movsx  eax,al
  4029c6:	3b 45 f0             	cmp    eax,DWORD PTR [ebp-0x10]
  4029c9:	74 0b                	je     4029d6 <_check+0x14c2>
  4029cb:	8b 45 f4             	mov    eax,DWORD PTR [ebp-0xc]
  4029ce:	89 04 24             	mov    DWORD PTR [esp],eax
  4029d1:	e8 6a e9 ff ff       	call   401340 <_badboy>
  4029d6:	83 45 f4 01          	add    DWORD PTR [ebp-0xc],0x1
  4029da:	c7 45 f0 f8 00 00 00 	mov    DWORD PTR [ebp-0x10],0xf8
  4029e1:	8b 55 f4             	mov    edx,DWORD PTR [ebp-0xc]
  4029e4:	8b 45 08             	mov    eax,DWORD PTR [ebp+0x8]
  4029e7:	01 d0                	add    eax,edx
  4029e9:	0f b6 00             	movzx  eax,BYTE PTR [eax]
  4029ec:	0f be c0             	movsx  eax,al
  4029ef:	34 8c                	xor    al,0x8c
  4029f1:	3b 45 f0             	cmp    eax,DWORD PTR [ebp-0x10]
  4029f4:	74 0b                	je     402a01 <_check+0x14ed>
  4029f6:	8b 45 f4             	mov    eax,DWORD PTR [ebp-0xc]
  4029f9:	89 04 24             	mov    DWORD PTR [esp],eax
  4029fc:	e8 3f e9 ff ff       	call   401340 <_badboy>
  402a01:	83 45 f4 01          	add    DWORD PTR [ebp-0xc],0x1
  402a05:	c7 45 f0 9a 00 00 00 	mov    DWORD PTR [ebp-0x10],0x9a
  402a0c:	8b 55 f4             	mov    edx,DWORD PTR [ebp-0xc]
  402a0f:	8b 45 08             	mov    eax,DWORD PTR [ebp+0x8]
  402a12:	01 d0                	add    eax,edx
  402a14:	0f b6 00             	movzx  eax,BYTE PTR [eax]
  402a17:	0f be c0             	movsx  eax,al
  402a1a:	34 f2                	xor    al,0xf2
  402a1c:	3b 45 f0             	cmp    eax,DWORD PTR [ebp-0x10]
  402a1f:	74 0b                	je     402a2c <_check+0x1518>
  402a21:	8b 45 f4             	mov    eax,DWORD PTR [ebp-0xc]
  402a24:	89 04 24             	mov    DWORD PTR [esp],eax
  402a27:	e8 14 e9 ff ff       	call   401340 <_badboy>
  402a2c:	83 45 f4 01          	add    DWORD PTR [ebp-0xc],0x1
  402a30:	c7 45 f0 2f 00 00 00 	mov    DWORD PTR [ebp-0x10],0x2f
  402a37:	8b 55 f4             	mov    edx,DWORD PTR [ebp-0xc]
  402a3a:	8b 45 08             	mov    eax,DWORD PTR [ebp+0x8]
  402a3d:	01 d0                	add    eax,edx
  402a3f:	0f b6 00             	movzx  eax,BYTE PTR [eax]
  402a42:	83 f0 4a             	xor    eax,0x4a
  402a45:	0f be c0             	movsx  eax,al
  402a48:	3b 45 f0             	cmp    eax,DWORD PTR [ebp-0x10]
  402a4b:	74 0b                	je     402a58 <_check+0x1544>
  402a4d:	8b 45 f4             	mov    eax,DWORD PTR [ebp-0xc]
  402a50:	89 04 24             	mov    DWORD PTR [esp],eax
  402a53:	e8 e8 e8 ff ff       	call   401340 <_badboy>
  402a58:	83 45 f4 01          	add    DWORD PTR [ebp-0xc],0x1
  402a5c:	c7 45 f0 0f 00 00 00 	mov    DWORD PTR [ebp-0x10],0xf
  402a63:	8b 55 f4             	mov    edx,DWORD PTR [ebp-0xc]
  402a66:	8b 45 08             	mov    eax,DWORD PTR [ebp+0x8]
  402a69:	01 d0                	add    eax,edx
  402a6b:	0f b6 00             	movzx  eax,BYTE PTR [eax]
  402a6e:	83 f0 2f             	xor    eax,0x2f
  402a71:	0f be c0             	movsx  eax,al
  402a74:	3b 45 f0             	cmp    eax,DWORD PTR [ebp-0x10]
  402a77:	74 0b                	je     402a84 <_check+0x1570>
  402a79:	8b 45 f4             	mov    eax,DWORD PTR [ebp-0xc]
  402a7c:	89 04 24             	mov    DWORD PTR [esp],eax
  402a7f:	e8 bc e8 ff ff       	call   401340 <_badboy>
  402a84:	83 45 f4 01          	add    DWORD PTR [ebp-0xc],0x1
  402a88:	c7 45 f0 62 00 00 00 	mov    DWORD PTR [ebp-0x10],0x62
  402a8f:	8b 55 f4             	mov    edx,DWORD PTR [ebp-0xc]
  402a92:	8b 45 08             	mov    eax,DWORD PTR [ebp+0x8]
  402a95:	01 d0                	add    eax,edx
  402a97:	0f b6 00             	movzx  eax,BYTE PTR [eax]
  402a9a:	83 f0 31             	xor    eax,0x31
  402a9d:	0f be c0             	movsx  eax,al
  402aa0:	3b 45 f0             	cmp    eax,DWORD PTR [ebp-0x10]
  402aa3:	74 0b                	je     402ab0 <_check+0x159c>
  402aa5:	8b 45 f4             	mov    eax,DWORD PTR [ebp-0xc]
  402aa8:	89 04 24             	mov    DWORD PTR [esp],eax
  402aab:	e8 90 e8 ff ff       	call   401340 <_badboy>
  402ab0:	83 45 f4 01          	add    DWORD PTR [ebp-0xc],0x1
  402ab4:	c7 45 f0 e4 00 00 00 	mov    DWORD PTR [ebp-0x10],0xe4
  402abb:	8b 55 f4             	mov    edx,DWORD PTR [ebp-0xc]
  402abe:	8b 45 08             	mov    eax,DWORD PTR [ebp+0x8]
  402ac1:	01 d0                	add    eax,edx
  402ac3:	0f b6 00             	movzx  eax,BYTE PTR [eax]
  402ac6:	0f be c0             	movsx  eax,al
  402ac9:	34 8b                	xor    al,0x8b
  402acb:	3b 45 f0             	cmp    eax,DWORD PTR [ebp-0x10]
  402ace:	74 0b                	je     402adb <_check+0x15c7>
  402ad0:	8b 45 f4             	mov    eax,DWORD PTR [ebp-0xc]
  402ad3:	89 04 24             	mov    DWORD PTR [esp],eax
  402ad6:	e8 65 e8 ff ff       	call   401340 <_badboy>
  402adb:	83 45 f4 01          	add    DWORD PTR [ebp-0xc],0x1
  402adf:	c7 45 f0 5e 00 00 00 	mov    DWORD PTR [ebp-0x10],0x5e
  402ae6:	8b 55 f4             	mov    edx,DWORD PTR [ebp-0xc]
  402ae9:	8b 45 08             	mov    eax,DWORD PTR [ebp+0x8]
  402aec:	01 d0                	add    eax,edx
  402aee:	0f b6 00             	movzx  eax,BYTE PTR [eax]
  402af1:	83 f0 2b             	xor    eax,0x2b
  402af4:	0f be c0             	movsx  eax,al
  402af7:	3b 45 f0             	cmp    eax,DWORD PTR [ebp-0x10]
  402afa:	74 0b                	je     402b07 <_check+0x15f3>
  402afc:	8b 45 f4             	mov    eax,DWORD PTR [ebp-0xc]
  402aff:	89 04 24             	mov    DWORD PTR [esp],eax
  402b02:	e8 39 e8 ff ff       	call   401340 <_badboy>
  402b07:	83 45 f4 01          	add    DWORD PTR [ebp-0xc],0x1
  402b0b:	c7 45 f0 7c 00 00 00 	mov    DWORD PTR [ebp-0x10],0x7c
  402b12:	8b 55 f4             	mov    edx,DWORD PTR [ebp-0xc]
  402b15:	8b 45 08             	mov    eax,DWORD PTR [ebp+0x8]
  402b18:	01 d0                	add    eax,edx
  402b1a:	0f b6 00             	movzx  eax,BYTE PTR [eax]
  402b1d:	83 f0 10             	xor    eax,0x10
  402b20:	0f be c0             	movsx  eax,al
  402b23:	3b 45 f0             	cmp    eax,DWORD PTR [ebp-0x10]
  402b26:	74 0b                	je     402b33 <_check+0x161f>
  402b28:	8b 45 f4             	mov    eax,DWORD PTR [ebp-0xc]
  402b2b:	89 04 24             	mov    DWORD PTR [esp],eax
  402b2e:	e8 0d e8 ff ff       	call   401340 <_badboy>
  402b33:	83 45 f4 01          	add    DWORD PTR [ebp-0xc],0x1
  402b37:	c7 45 f0 82 00 00 00 	mov    DWORD PTR [ebp-0x10],0x82
  402b3e:	8b 55 f4             	mov    edx,DWORD PTR [ebp-0xc]
  402b41:	8b 45 08             	mov    eax,DWORD PTR [ebp+0x8]
  402b44:	01 d0                	add    eax,edx
  402b46:	0f b6 00             	movzx  eax,BYTE PTR [eax]
  402b49:	0f be c0             	movsx  eax,al
  402b4c:	34 a2                	xor    al,0xa2
  402b4e:	3b 45 f0             	cmp    eax,DWORD PTR [ebp-0x10]
  402b51:	74 0b                	je     402b5e <_check+0x164a>
  402b53:	8b 45 f4             	mov    eax,DWORD PTR [ebp-0xc]
  402b56:	89 04 24             	mov    DWORD PTR [esp],eax
  402b59:	e8 e2 e7 ff ff       	call   401340 <_badboy>
  402b5e:	83 45 f4 01          	add    DWORD PTR [ebp-0xc],0x1
  402b62:	c7 45 f0 ed 00 00 00 	mov    DWORD PTR [ebp-0x10],0xed
  402b69:	8b 55 f4             	mov    edx,DWORD PTR [ebp-0xc]
  402b6c:	8b 45 08             	mov    eax,DWORD PTR [ebp+0x8]
  402b6f:	01 d0                	add    eax,edx
  402b71:	0f b6 00             	movzx  eax,BYTE PTR [eax]
  402b74:	0f be c0             	movsx  eax,al
  402b77:	34 9e                	xor    al,0x9e
  402b79:	3b 45 f0             	cmp    eax,DWORD PTR [ebp-0x10]
  402b7c:	74 0b                	je     402b89 <_check+0x1675>
  402b7e:	8b 45 f4             	mov    eax,DWORD PTR [ebp-0xc]
  402b81:	89 04 24             	mov    DWORD PTR [esp],eax
  402b84:	e8 b7 e7 ff ff       	call   401340 <_badboy>
  402b89:	83 45 f4 01          	add    DWORD PTR [ebp-0xc],0x1
  402b8d:	c7 45 f0 1a 00 00 00 	mov    DWORD PTR [ebp-0x10],0x1a
  402b94:	8b 55 f4             	mov    edx,DWORD PTR [ebp-0xc]
  402b97:	8b 45 08             	mov    eax,DWORD PTR [ebp+0x8]
  402b9a:	01 d0                	add    eax,edx
  402b9c:	0f b6 00             	movzx  eax,BYTE PTR [eax]
  402b9f:	83 f0 7f             	xor    eax,0x7f
  402ba2:	0f be c0             	movsx  eax,al
  402ba5:	3b 45 f0             	cmp    eax,DWORD PTR [ebp-0x10]
  402ba8:	74 0b                	je     402bb5 <_check+0x16a1>
  402baa:	8b 45 f4             	mov    eax,DWORD PTR [ebp-0xc]
  402bad:	89 04 24             	mov    DWORD PTR [esp],eax
  402bb0:	e8 8b e7 ff ff       	call   401340 <_badboy>
  402bb5:	83 45 f4 01          	add    DWORD PTR [ebp-0xc],0x1
  402bb9:	c7 45 f0 14 00 00 00 	mov    DWORD PTR [ebp-0x10],0x14
  402bc0:	8b 55 f4             	mov    edx,DWORD PTR [ebp-0xc]
  402bc3:	8b 45 08             	mov    eax,DWORD PTR [ebp+0x8]
  402bc6:	01 d0                	add    eax,edx
  402bc8:	0f b6 00             	movzx  eax,BYTE PTR [eax]
  402bcb:	83 f0 66             	xor    eax,0x66
  402bce:	0f be c0             	movsx  eax,al
  402bd1:	3b 45 f0             	cmp    eax,DWORD PTR [ebp-0x10]
  402bd4:	74 0b                	je     402be1 <_check+0x16cd>
  402bd6:	8b 45 f4             	mov    eax,DWORD PTR [ebp-0xc]
  402bd9:	89 04 24             	mov    DWORD PTR [esp],eax
  402bdc:	e8 5f e7 ff ff       	call   401340 <_badboy>
  402be1:	83 45 f4 01          	add    DWORD PTR [ebp-0xc],0x1
  402be5:	c7 45 f0 fa 00 00 00 	mov    DWORD PTR [ebp-0x10],0xfa
  402bec:	8b 55 f4             	mov    edx,DWORD PTR [ebp-0xc]
  402bef:	8b 45 08             	mov    eax,DWORD PTR [ebp+0x8]
  402bf2:	01 d0                	add    eax,edx
  402bf4:	0f b6 00             	movzx  eax,BYTE PTR [eax]
  402bf7:	0f be c0             	movsx  eax,al
  402bfa:	34 93                	xor    al,0x93
  402bfc:	3b 45 f0             	cmp    eax,DWORD PTR [ebp-0x10]
  402bff:	74 0b                	je     402c0c <_check+0x16f8>
  402c01:	8b 45 f4             	mov    eax,DWORD PTR [ebp-0xc]
  402c04:	89 04 24             	mov    DWORD PTR [esp],eax
  402c07:	e8 34 e7 ff ff       	call   401340 <_badboy>
  402c0c:	83 45 f4 01          	add    DWORD PTR [ebp-0xc],0x1
  402c10:	c7 45 f0 04 00 00 00 	mov    DWORD PTR [ebp-0x10],0x4
  402c17:	8b 55 f4             	mov    edx,DWORD PTR [ebp-0xc]
  402c1a:	8b 45 08             	mov    eax,DWORD PTR [ebp+0x8]
  402c1d:	01 d0                	add    eax,edx
  402c1f:	0f b6 00             	movzx  eax,BYTE PTR [eax]
  402c22:	83 f0 61             	xor    eax,0x61
  402c25:	0f be c0             	movsx  eax,al
  402c28:	3b 45 f0             	cmp    eax,DWORD PTR [ebp-0x10]
  402c2b:	74 0b                	je     402c38 <_check+0x1724>
  402c2d:	8b 45 f4             	mov    eax,DWORD PTR [ebp-0xc]
  402c30:	89 04 24             	mov    DWORD PTR [esp],eax
  402c33:	e8 08 e7 ff ff       	call   401340 <_badboy>
  402c38:	83 45 f4 01          	add    DWORD PTR [ebp-0xc],0x1
  402c3c:	c7 45 f0 5e 00 00 00 	mov    DWORD PTR [ebp-0x10],0x5e
  402c43:	8b 55 f4             	mov    edx,DWORD PTR [ebp-0xc]
  402c46:	8b 45 08             	mov    eax,DWORD PTR [ebp+0x8]
  402c49:	01 d0                	add    eax,edx
  402c4b:	0f b6 00             	movzx  eax,BYTE PTR [eax]
  402c4e:	83 f0 2d             	xor    eax,0x2d
  402c51:	0f be c0             	movsx  eax,al
  402c54:	3b 45 f0             	cmp    eax,DWORD PTR [ebp-0x10]
  402c57:	74 0b                	je     402c64 <_check+0x1750>
  402c59:	8b 45 f4             	mov    eax,DWORD PTR [ebp-0xc]
  402c5c:	89 04 24             	mov    DWORD PTR [esp],eax
  402c5f:	e8 dc e6 ff ff       	call   401340 <_badboy>
  402c64:	83 45 f4 01          	add    DWORD PTR [ebp-0xc],0x1
  402c68:	c7 45 f0 86 00 00 00 	mov    DWORD PTR [ebp-0x10],0x86
  402c6f:	8b 55 f4             	mov    edx,DWORD PTR [ebp-0xc]
  402c72:	8b 45 08             	mov    eax,DWORD PTR [ebp+0x8]
  402c75:	01 d0                	add    eax,edx
  402c77:	0f b6 00             	movzx  eax,BYTE PTR [eax]
  402c7a:	0f be c0             	movsx  eax,al
  402c7d:	34 a6                	xor    al,0xa6
  402c7f:	3b 45 f0             	cmp    eax,DWORD PTR [ebp-0x10]
  402c82:	74 0b                	je     402c8f <_check+0x177b>
  402c84:	8b 45 f4             	mov    eax,DWORD PTR [ebp-0xc]
  402c87:	89 04 24             	mov    DWORD PTR [esp],eax
  402c8a:	e8 b1 e6 ff ff       	call   401340 <_badboy>
  402c8f:	83 45 f4 01          	add    DWORD PTR [ebp-0xc],0x1
  402c93:	c7 45 f0 da 00 00 00 	mov    DWORD PTR [ebp-0x10],0xda
  402c9a:	8b 55 f4             	mov    edx,DWORD PTR [ebp-0xc]
  402c9d:	8b 45 08             	mov    eax,DWORD PTR [ebp+0x8]
  402ca0:	01 d0                	add    eax,edx
  402ca2:	0f b6 00             	movzx  eax,BYTE PTR [eax]
  402ca5:	0f be c0             	movsx  eax,al
  402ca8:	34 b5                	xor    al,0xb5
  402caa:	3b 45 f0             	cmp    eax,DWORD PTR [ebp-0x10]
  402cad:	74 0b                	je     402cba <_check+0x17a6>
  402caf:	8b 45 f4             	mov    eax,DWORD PTR [ebp-0xc]
  402cb2:	89 04 24             	mov    DWORD PTR [esp],eax
  402cb5:	e8 86 e6 ff ff       	call   401340 <_badboy>
  402cba:	83 45 f4 01          	add    DWORD PTR [ebp-0xc],0x1
  402cbe:	c7 45 f0 27 00 00 00 	mov    DWORD PTR [ebp-0x10],0x27
  402cc5:	8b 55 f4             	mov    edx,DWORD PTR [ebp-0xc]
  402cc8:	8b 45 08             	mov    eax,DWORD PTR [ebp+0x8]
  402ccb:	01 d0                	add    eax,edx
  402ccd:	0f b6 00             	movzx  eax,BYTE PTR [eax]
  402cd0:	83 f0 41             	xor    eax,0x41
  402cd3:	0f be c0             	movsx  eax,al
  402cd6:	3b 45 f0             	cmp    eax,DWORD PTR [ebp-0x10]
  402cd9:	74 0b                	je     402ce6 <_check+0x17d2>
  402cdb:	8b 45 f4             	mov    eax,DWORD PTR [ebp-0xc]
  402cde:	89 04 24             	mov    DWORD PTR [esp],eax
  402ce1:	e8 5a e6 ff ff       	call   401340 <_badboy>
  402ce6:	83 45 f4 01          	add    DWORD PTR [ebp-0xc],0x1
  402cea:	c7 45 f0 73 00 00 00 	mov    DWORD PTR [ebp-0x10],0x73
  402cf1:	8b 55 f4             	mov    edx,DWORD PTR [ebp-0xc]
  402cf4:	8b 45 08             	mov    eax,DWORD PTR [ebp+0x8]
  402cf7:	01 d0                	add    eax,edx
  402cf9:	0f b6 00             	movzx  eax,BYTE PTR [eax]
  402cfc:	83 f0 53             	xor    eax,0x53
  402cff:	0f be c0             	movsx  eax,al
  402d02:	3b 45 f0             	cmp    eax,DWORD PTR [ebp-0x10]
  402d05:	74 0b                	je     402d12 <_check+0x17fe>
  402d07:	8b 45 f4             	mov    eax,DWORD PTR [ebp-0xc]
  402d0a:	89 04 24             	mov    DWORD PTR [esp],eax
  402d0d:	e8 2e e6 ff ff       	call   401340 <_badboy>
  402d12:	83 45 f4 01          	add    DWORD PTR [ebp-0xc],0x1
  402d16:	c7 45 f0 e8 00 00 00 	mov    DWORD PTR [ebp-0x10],0xe8
  402d1d:	8b 55 f4             	mov    edx,DWORD PTR [ebp-0xc]
  402d20:	8b 45 08             	mov    eax,DWORD PTR [ebp+0x8]
  402d23:	01 d0                	add    eax,edx
  402d25:	0f b6 00             	movzx  eax,BYTE PTR [eax]
  402d28:	0f be c0             	movsx  eax,al
  402d2b:	34 8e                	xor    al,0x8e
  402d2d:	3b 45 f0             	cmp    eax,DWORD PTR [ebp-0x10]
  402d30:	74 0b                	je     402d3d <_check+0x1829>
  402d32:	8b 45 f4             	mov    eax,DWORD PTR [ebp-0xc]
  402d35:	89 04 24             	mov    DWORD PTR [esp],eax
  402d38:	e8 03 e6 ff ff       	call   401340 <_badboy>
  402d3d:	83 45 f4 01          	add    DWORD PTR [ebp-0xc],0x1
  402d41:	c7 45 f0 66 00 00 00 	mov    DWORD PTR [ebp-0x10],0x66
  402d48:	8b 55 f4             	mov    edx,DWORD PTR [ebp-0xc]
  402d4b:	8b 45 08             	mov    eax,DWORD PTR [ebp+0x8]
  402d4e:	01 d0                	add    eax,edx
  402d50:	0f b6 00             	movzx  eax,BYTE PTR [eax]
  402d53:	83 f0 0f             	xor    eax,0xf
  402d56:	0f be c0             	movsx  eax,al
  402d59:	3b 45 f0             	cmp    eax,DWORD PTR [ebp-0x10]
  402d5c:	74 0b                	je     402d69 <_check+0x1855>
  402d5e:	8b 45 f4             	mov    eax,DWORD PTR [ebp-0xc]
  402d61:	89 04 24             	mov    DWORD PTR [esp],eax
  402d64:	e8 d7 e5 ff ff       	call   401340 <_badboy>
  402d69:	83 45 f4 01          	add    DWORD PTR [ebp-0xc],0x1
  402d6d:	c7 45 f0 7d 00 00 00 	mov    DWORD PTR [ebp-0x10],0x7d
  402d74:	8b 55 f4             	mov    edx,DWORD PTR [ebp-0xc]
  402d77:	8b 45 08             	mov    eax,DWORD PTR [ebp+0x8]
  402d7a:	01 d0                	add    eax,edx
  402d7c:	0f b6 00             	movzx  eax,BYTE PTR [eax]
  402d7f:	83 f0 1a             	xor    eax,0x1a
  402d82:	0f be c0             	movsx  eax,al
  402d85:	3b 45 f0             	cmp    eax,DWORD PTR [ebp-0x10]
  402d88:	74 0b                	je     402d95 <_check+0x1881>
  402d8a:	8b 45 f4             	mov    eax,DWORD PTR [ebp-0xc]
  402d8d:	89 04 24             	mov    DWORD PTR [esp],eax
  402d90:	e8 ab e5 ff ff       	call   401340 <_badboy>
  402d95:	83 45 f4 01          	add    DWORD PTR [ebp-0xc],0x1
  402d99:	c7 45 f0 12 00 00 00 	mov    DWORD PTR [ebp-0x10],0x12
  402da0:	8b 55 f4             	mov    edx,DWORD PTR [ebp-0xc]
  402da3:	8b 45 08             	mov    eax,DWORD PTR [ebp+0x8]
  402da6:	01 d0                	add    eax,edx
  402da8:	0f b6 00             	movzx  eax,BYTE PTR [eax]
  402dab:	83 f0 7a             	xor    eax,0x7a
  402dae:	0f be c0             	movsx  eax,al
  402db1:	3b 45 f0             	cmp    eax,DWORD PTR [ebp-0x10]
  402db4:	74 0b                	je     402dc1 <_check+0x18ad>
  402db6:	8b 45 f4             	mov    eax,DWORD PTR [ebp-0xc]
  402db9:	89 04 24             	mov    DWORD PTR [esp],eax
  402dbc:	e8 7f e5 ff ff       	call   401340 <_badboy>
  402dc1:	83 45 f4 01          	add    DWORD PTR [ebp-0xc],0x1
  402dc5:	c7 45 f0 0b 00 00 00 	mov    DWORD PTR [ebp-0x10],0xb
  402dcc:	8b 55 f4             	mov    edx,DWORD PTR [ebp-0xc]
  402dcf:	8b 45 08             	mov    eax,DWORD PTR [ebp+0x8]
  402dd2:	01 d0                	add    eax,edx
  402dd4:	0f b6 00             	movzx  eax,BYTE PTR [eax]
  402dd7:	83 f0 7f             	xor    eax,0x7f
  402dda:	0f be c0             	movsx  eax,al
  402ddd:	3b 45 f0             	cmp    eax,DWORD PTR [ebp-0x10]
  402de0:	74 0b                	je     402ded <_check+0x18d9>
  402de2:	8b 45 f4             	mov    eax,DWORD PTR [ebp-0xc]
  402de5:	89 04 24             	mov    DWORD PTR [esp],eax
  402de8:	e8 53 e5 ff ff       	call   401340 <_badboy>
  402ded:	83 45 f4 01          	add    DWORD PTR [ebp-0xc],0x1
  402df1:	c7 45 f0 1b 00 00 00 	mov    DWORD PTR [ebp-0x10],0x1b
  402df8:	8b 55 f4             	mov    edx,DWORD PTR [ebp-0xc]
  402dfb:	8b 45 08             	mov    eax,DWORD PTR [ebp+0x8]
  402dfe:	01 d0                	add    eax,edx
  402e00:	0f b6 00             	movzx  eax,BYTE PTR [eax]
  402e03:	83 f0 72             	xor    eax,0x72
  402e06:	0f be c0             	movsx  eax,al
  402e09:	3b 45 f0             	cmp    eax,DWORD PTR [ebp-0x10]
  402e0c:	74 0b                	je     402e19 <_check+0x1905>
  402e0e:	8b 45 f4             	mov    eax,DWORD PTR [ebp-0xc]
  402e11:	89 04 24             	mov    DWORD PTR [esp],eax
  402e14:	e8 27 e5 ff ff       	call   401340 <_badboy>
  402e19:	83 45 f4 01          	add    DWORD PTR [ebp-0xc],0x1
  402e1d:	c7 45 f0 15 00 00 00 	mov    DWORD PTR [ebp-0x10],0x15
  402e24:	8b 55 f4             	mov    edx,DWORD PTR [ebp-0xc]
  402e27:	8b 45 08             	mov    eax,DWORD PTR [ebp+0x8]
  402e2a:	01 d0                	add    eax,edx
  402e2c:	0f b6 00             	movzx  eax,BYTE PTR [eax]
  402e2f:	83 f0 7b             	xor    eax,0x7b
  402e32:	0f be c0             	movsx  eax,al
  402e35:	3b 45 f0             	cmp    eax,DWORD PTR [ebp-0x10]
  402e38:	74 0b                	je     402e45 <_check+0x1931>
  402e3a:	8b 45 f4             	mov    eax,DWORD PTR [ebp-0xc]
  402e3d:	89 04 24             	mov    DWORD PTR [esp],eax
  402e40:	e8 fb e4 ff ff       	call   401340 <_badboy>
  402e45:	83 45 f4 01          	add    DWORD PTR [ebp-0xc],0x1
  402e49:	c7 45 f0 c8 00 00 00 	mov    DWORD PTR [ebp-0x10],0xc8
  402e50:	8b 55 f4             	mov    edx,DWORD PTR [ebp-0xc]
  402e53:	8b 45 08             	mov    eax,DWORD PTR [ebp+0x8]
  402e56:	01 d0                	add    eax,edx
  402e58:	0f b6 00             	movzx  eax,BYTE PTR [eax]
  402e5b:	0f be c0             	movsx  eax,al
  402e5e:	34 af                	xor    al,0xaf
  402e60:	3b 45 f0             	cmp    eax,DWORD PTR [ebp-0x10]
  402e63:	74 0b                	je     402e70 <_check+0x195c>
  402e65:	8b 45 f4             	mov    eax,DWORD PTR [ebp-0xc]
  402e68:	89 04 24             	mov    DWORD PTR [esp],eax
  402e6b:	e8 d0 e4 ff ff       	call   401340 <_badboy>
  402e70:	83 45 f4 01          	add    DWORD PTR [ebp-0xc],0x1
  402e74:	c7 45 f0 84 00 00 00 	mov    DWORD PTR [ebp-0x10],0x84
  402e7b:	8b 55 f4             	mov    edx,DWORD PTR [ebp-0xc]
  402e7e:	8b 45 08             	mov    eax,DWORD PTR [ebp+0x8]
  402e81:	01 d0                	add    eax,edx
  402e83:	0f b6 00             	movzx  eax,BYTE PTR [eax]
  402e86:	0f be c0             	movsx  eax,al
  402e89:	34 a4                	xor    al,0xa4
  402e8b:	3b 45 f0             	cmp    eax,DWORD PTR [ebp-0x10]
  402e8e:	74 0b                	je     402e9b <_check+0x1987>
  402e90:	8b 45 f4             	mov    eax,DWORD PTR [ebp-0xc]
  402e93:	89 04 24             	mov    DWORD PTR [esp],eax
  402e96:	e8 a5 e4 ff ff       	call   401340 <_badboy>
  402e9b:	83 45 f4 01          	add    DWORD PTR [ebp-0xc],0x1
  402e9f:	c7 45 f0 6c 00 00 00 	mov    DWORD PTR [ebp-0x10],0x6c
  402ea6:	8b 55 f4             	mov    edx,DWORD PTR [ebp-0xc]
  402ea9:	8b 45 08             	mov    eax,DWORD PTR [ebp+0x8]
  402eac:	01 d0                	add    eax,edx
  402eae:	0f b6 00             	movzx  eax,BYTE PTR [eax]
  402eb1:	83 f0 0b             	xor    eax,0xb
  402eb4:	0f be c0             	movsx  eax,al
  402eb7:	3b 45 f0             	cmp    eax,DWORD PTR [ebp-0x10]
  402eba:	74 0b                	je     402ec7 <_check+0x19b3>
  402ebc:	8b 45 f4             	mov    eax,DWORD PTR [ebp-0xc]
  402ebf:	89 04 24             	mov    DWORD PTR [esp],eax
  402ec2:	e8 79 e4 ff ff       	call   401340 <_badboy>
  402ec7:	83 45 f4 01          	add    DWORD PTR [ebp-0xc],0x1
  402ecb:	c7 45 f0 7e 00 00 00 	mov    DWORD PTR [ebp-0x10],0x7e
  402ed2:	8b 55 f4             	mov    edx,DWORD PTR [ebp-0xc]
  402ed5:	8b 45 08             	mov    eax,DWORD PTR [ebp+0x8]
  402ed8:	01 d0                	add    eax,edx
  402eda:	0f b6 00             	movzx  eax,BYTE PTR [eax]
  402edd:	83 f0 1f             	xor    eax,0x1f
  402ee0:	0f be c0             	movsx  eax,al
  402ee3:	3b 45 f0             	cmp    eax,DWORD PTR [ebp-0x10]
  402ee6:	74 0b                	je     402ef3 <_check+0x19df>
  402ee8:	8b 45 f4             	mov    eax,DWORD PTR [ebp-0xc]
  402eeb:	89 04 24             	mov    DWORD PTR [esp],eax
  402eee:	e8 4d e4 ff ff       	call   401340 <_badboy>
  402ef3:	83 45 f4 01          	add    DWORD PTR [ebp-0xc],0x1
  402ef7:	c7 45 f0 51 00 00 00 	mov    DWORD PTR [ebp-0x10],0x51
  402efe:	8b 55 f4             	mov    edx,DWORD PTR [ebp-0xc]
  402f01:	8b 45 08             	mov    eax,DWORD PTR [ebp+0x8]
  402f04:	01 d0                	add    eax,edx
  402f06:	0f b6 00             	movzx  eax,BYTE PTR [eax]
  402f09:	83 f0 3c             	xor    eax,0x3c
  402f0c:	0f be c0             	movsx  eax,al
  402f0f:	3b 45 f0             	cmp    eax,DWORD PTR [ebp-0x10]
  402f12:	74 0b                	je     402f1f <_check+0x1a0b>
  402f14:	8b 45 f4             	mov    eax,DWORD PTR [ebp-0xc]
  402f17:	89 04 24             	mov    DWORD PTR [esp],eax
  402f1a:	e8 21 e4 ff ff       	call   401340 <_badboy>
  402f1f:	83 45 f4 01          	add    DWORD PTR [ebp-0xc],0x1
  402f23:	c7 45 f0 b7 00 00 00 	mov    DWORD PTR [ebp-0x10],0xb7
  402f2a:	8b 55 f4             	mov    edx,DWORD PTR [ebp-0xc]
  402f2d:	8b 45 08             	mov    eax,DWORD PTR [ebp+0x8]
  402f30:	01 d0                	add    eax,edx
  402f32:	0f b6 00             	movzx  eax,BYTE PTR [eax]
  402f35:	0f be c0             	movsx  eax,al
  402f38:	34 d2                	xor    al,0xd2
  402f3a:	3b 45 f0             	cmp    eax,DWORD PTR [ebp-0x10]
  402f3d:	74 0b                	je     402f4a <_check+0x1a36>
  402f3f:	8b 45 f4             	mov    eax,DWORD PTR [ebp-0xc]
  402f42:	89 04 24             	mov    DWORD PTR [esp],eax
  402f45:	e8 f6 e3 ff ff       	call   401340 <_badboy>
  402f4a:	83 45 f4 01          	add    DWORD PTR [ebp-0xc],0x1
  402f4e:	c7 45 f0 2a 00 00 00 	mov    DWORD PTR [ebp-0x10],0x2a
  402f55:	8b 55 f4             	mov    edx,DWORD PTR [ebp-0xc]
  402f58:	8b 45 08             	mov    eax,DWORD PTR [ebp+0x8]
  402f5b:	01 d0                	add    eax,edx
  402f5d:	0f b6 00             	movzx  eax,BYTE PTR [eax]
  402f60:	83 f0 59             	xor    eax,0x59
  402f63:	0f be c0             	movsx  eax,al
  402f66:	3b 45 f0             	cmp    eax,DWORD PTR [ebp-0x10]
  402f69:	74 0b                	je     402f76 <_check+0x1a62>
  402f6b:	8b 45 f4             	mov    eax,DWORD PTR [ebp-0xc]
  402f6e:	89 04 24             	mov    DWORD PTR [esp],eax
  402f71:	e8 ca e3 ff ff       	call   401340 <_badboy>
  402f76:	83 45 f4 01          	add    DWORD PTR [ebp-0xc],0x1
  402f7a:	c7 45 f0 ca 00 00 00 	mov    DWORD PTR [ebp-0x10],0xca
  402f81:	8b 55 f4             	mov    edx,DWORD PTR [ebp-0xc]
  402f84:	8b 45 08             	mov    eax,DWORD PTR [ebp+0x8]
  402f87:	01 d0                	add    eax,edx
  402f89:	0f b6 00             	movzx  eax,BYTE PTR [eax]
  402f8c:	0f be c0             	movsx  eax,al
  402f8f:	34 e4                	xor    al,0xe4
  402f91:	3b 45 f0             	cmp    eax,DWORD PTR [ebp-0x10]
  402f94:	74 0b                	je     402fa1 <_check+0x1a8d>
  402f96:	8b 45 f4             	mov    eax,DWORD PTR [ebp-0xc]
  402f99:	89 04 24             	mov    DWORD PTR [esp],eax
  402f9c:	e8 9f e3 ff ff       	call   401340 <_badboy>
  402fa1:	83 45 f4 01          	add    DWORD PTR [ebp-0xc],0x1
  402fa5:	c7 45 f0 a2 00 00 00 	mov    DWORD PTR [ebp-0x10],0xa2
  402fac:	8b 55 f4             	mov    edx,DWORD PTR [ebp-0xc]
  402faf:	8b 45 08             	mov    eax,DWORD PTR [ebp+0x8]
  402fb2:	01 d0                	add    eax,edx
  402fb4:	0f b6 00             	movzx  eax,BYTE PTR [eax]
  402fb7:	0f be c0             	movsx  eax,al
  402fba:	34 82                	xor    al,0x82
  402fbc:	3b 45 f0             	cmp    eax,DWORD PTR [ebp-0x10]
  402fbf:	74 0b                	je     402fcc <_check+0x1ab8>
  402fc1:	8b 45 f4             	mov    eax,DWORD PTR [ebp-0xc]
  402fc4:	89 04 24             	mov    DWORD PTR [esp],eax
  402fc7:	e8 74 e3 ff ff       	call   401340 <_badboy>
  402fcc:	83 45 f4 01          	add    DWORD PTR [ebp-0xc],0x1
  402fd0:	c7 45 f0 76 00 00 00 	mov    DWORD PTR [ebp-0x10],0x76
  402fd7:	8b 55 f4             	mov    edx,DWORD PTR [ebp-0xc]
  402fda:	8b 45 08             	mov    eax,DWORD PTR [ebp+0x8]
  402fdd:	01 d0                	add    eax,edx
  402fdf:	0f b6 00             	movzx  eax,BYTE PTR [eax]
  402fe2:	83 f0 3b             	xor    eax,0x3b
  402fe5:	0f be c0             	movsx  eax,al
  402fe8:	3b 45 f0             	cmp    eax,DWORD PTR [ebp-0x10]
  402feb:	74 0b                	je     402ff8 <_check+0x1ae4>
  402fed:	8b 45 f4             	mov    eax,DWORD PTR [ebp-0xc]
  402ff0:	89 04 24             	mov    DWORD PTR [esp],eax
  402ff3:	e8 48 e3 ff ff       	call   401340 <_badboy>
  402ff8:	83 45 f4 01          	add    DWORD PTR [ebp-0xc],0x1
  402ffc:	c7 45 f0 43 00 00 00 	mov    DWORD PTR [ebp-0x10],0x43
  403003:	8b 55 f4             	mov    edx,DWORD PTR [ebp-0xc]
  403006:	8b 45 08             	mov    eax,DWORD PTR [ebp+0x8]
  403009:	01 d0                	add    eax,edx
  40300b:	0f b6 00             	movzx  eax,BYTE PTR [eax]
  40300e:	83 f0 2a             	xor    eax,0x2a
  403011:	0f be c0             	movsx  eax,al
  403014:	3b 45 f0             	cmp    eax,DWORD PTR [ebp-0x10]
  403017:	74 0b                	je     403024 <_check+0x1b10>
  403019:	8b 45 f4             	mov    eax,DWORD PTR [ebp-0xc]
  40301c:	89 04 24             	mov    DWORD PTR [esp],eax
  40301f:	e8 1c e3 ff ff       	call   401340 <_badboy>
  403024:	83 45 f4 01          	add    DWORD PTR [ebp-0xc],0x1
  403028:	c7 45 f0 71 00 00 00 	mov    DWORD PTR [ebp-0x10],0x71
  40302f:	8b 55 f4             	mov    edx,DWORD PTR [ebp-0xc]
  403032:	8b 45 08             	mov    eax,DWORD PTR [ebp+0x8]
  403035:	01 d0                	add    eax,edx
  403037:	0f b6 00             	movzx  eax,BYTE PTR [eax]
  40303a:	83 f0 05             	xor    eax,0x5
  40303d:	0f be c0             	movsx  eax,al
  403040:	3b 45 f0             	cmp    eax,DWORD PTR [ebp-0x10]
  403043:	74 0b                	je     403050 <_check+0x1b3c>
  403045:	8b 45 f4             	mov    eax,DWORD PTR [ebp-0xc]
  403048:	89 04 24             	mov    DWORD PTR [esp],eax
  40304b:	e8 f0 e2 ff ff       	call   401340 <_badboy>
  403050:	83 45 f4 01          	add    DWORD PTR [ebp-0xc],0x1
  403054:	c7 45 f0 66 00 00 00 	mov    DWORD PTR [ebp-0x10],0x66
  40305b:	8b 55 f4             	mov    edx,DWORD PTR [ebp-0xc]
  40305e:	8b 45 08             	mov    eax,DWORD PTR [ebp+0x8]
  403061:	01 d0                	add    eax,edx
  403063:	0f b6 00             	movzx  eax,BYTE PTR [eax]
  403066:	83 f0 15             	xor    eax,0x15
  403069:	0f be c0             	movsx  eax,al
  40306c:	3b 45 f0             	cmp    eax,DWORD PTR [ebp-0x10]
  40306f:	74 0b                	je     40307c <_check+0x1b68>
  403071:	8b 45 f4             	mov    eax,DWORD PTR [ebp-0xc]
  403074:	89 04 24             	mov    DWORD PTR [esp],eax
  403077:	e8 c4 e2 ff ff       	call   401340 <_badboy>
  40307c:	83 45 f4 01          	add    DWORD PTR [ebp-0xc],0x1
  403080:	c7 45 f0 11 00 00 00 	mov    DWORD PTR [ebp-0x10],0x11
  403087:	8b 55 f4             	mov    edx,DWORD PTR [ebp-0xc]
  40308a:	8b 45 08             	mov    eax,DWORD PTR [ebp+0x8]
  40308d:	01 d0                	add    eax,edx
  40308f:	0f b6 00             	movzx  eax,BYTE PTR [eax]
  403092:	83 f0 64             	xor    eax,0x64
  403095:	0f be c0             	movsx  eax,al
  403098:	3b 45 f0             	cmp    eax,DWORD PTR [ebp-0x10]
  40309b:	74 0b                	je     4030a8 <_check+0x1b94>
  40309d:	8b 45 f4             	mov    eax,DWORD PTR [ebp-0xc]
  4030a0:	89 04 24             	mov    DWORD PTR [esp],eax
  4030a3:	e8 98 e2 ff ff       	call   401340 <_badboy>
  4030a8:	83 45 f4 01          	add    DWORD PTR [ebp-0xc],0x1
  4030ac:	c7 45 f0 b8 00 00 00 	mov    DWORD PTR [ebp-0x10],0xb8
  4030b3:	8b 55 f4             	mov    edx,DWORD PTR [ebp-0xc]
  4030b6:	8b 45 08             	mov    eax,DWORD PTR [ebp+0x8]
  4030b9:	01 d0                	add    eax,edx
  4030bb:	0f b6 00             	movzx  eax,BYTE PTR [eax]
  4030be:	0f be c0             	movsx  eax,al
  4030c1:	34 ca                	xor    al,0xca
  4030c3:	3b 45 f0             	cmp    eax,DWORD PTR [ebp-0x10]
  4030c6:	74 0b                	je     4030d3 <_check+0x1bbf>
  4030c8:	8b 45 f4             	mov    eax,DWORD PTR [ebp-0xc]
  4030cb:	89 04 24             	mov    DWORD PTR [esp],eax
  4030ce:	e8 6d e2 ff ff       	call   401340 <_badboy>
  4030d3:	83 45 f4 01          	add    DWORD PTR [ebp-0xc],0x1
  4030d7:	c7 45 f0 17 00 00 00 	mov    DWORD PTR [ebp-0x10],0x17
  4030de:	8b 55 f4             	mov    edx,DWORD PTR [ebp-0xc]
  4030e1:	8b 45 08             	mov    eax,DWORD PTR [ebp+0x8]
  4030e4:	01 d0                	add    eax,edx
  4030e6:	0f b6 00             	movzx  eax,BYTE PTR [eax]
  4030e9:	83 f0 62             	xor    eax,0x62
  4030ec:	0f be c0             	movsx  eax,al
  4030ef:	3b 45 f0             	cmp    eax,DWORD PTR [ebp-0x10]
  4030f2:	74 0b                	je     4030ff <_check+0x1beb>
  4030f4:	8b 45 f4             	mov    eax,DWORD PTR [ebp-0xc]
  4030f7:	89 04 24             	mov    DWORD PTR [esp],eax
  4030fa:	e8 41 e2 ff ff       	call   401340 <_badboy>
  4030ff:	83 45 f4 01          	add    DWORD PTR [ebp-0xc],0x1
  403103:	c7 45 f0 df 00 00 00 	mov    DWORD PTR [ebp-0x10],0xdf
  40310a:	8b 55 f4             	mov    edx,DWORD PTR [ebp-0xc]
  40310d:	8b 45 08             	mov    eax,DWORD PTR [ebp+0x8]
  403110:	01 d0                	add    eax,edx
  403112:	0f b6 00             	movzx  eax,BYTE PTR [eax]
  403115:	0f be c0             	movsx  eax,al
  403118:	34 b8                	xor    al,0xb8
  40311a:	3b 45 f0             	cmp    eax,DWORD PTR [ebp-0x10]
  40311d:	74 0b                	je     40312a <_check+0x1c16>
  40311f:	8b 45 f4             	mov    eax,DWORD PTR [ebp-0xc]
  403122:	89 04 24             	mov    DWORD PTR [esp],eax
  403125:	e8 16 e2 ff ff       	call   401340 <_badboy>
  40312a:	83 45 f4 01          	add    DWORD PTR [ebp-0xc],0x1
  40312e:	c7 45 f0 e7 00 00 00 	mov    DWORD PTR [ebp-0x10],0xe7
  403135:	8b 55 f4             	mov    edx,DWORD PTR [ebp-0xc]
  403138:	8b 45 08             	mov    eax,DWORD PTR [ebp+0x8]
  40313b:	01 d0                	add    eax,edx
  40313d:	0f b6 00             	movzx  eax,BYTE PTR [eax]
  403140:	0f be c0             	movsx  eax,al
  403143:	34 8e                	xor    al,0x8e
  403145:	3b 45 f0             	cmp    eax,DWORD PTR [ebp-0x10]
  403148:	74 0b                	je     403155 <_check+0x1c41>
  40314a:	8b 45 f4             	mov    eax,DWORD PTR [ebp-0xc]
  40314d:	89 04 24             	mov    DWORD PTR [esp],eax
  403150:	e8 eb e1 ff ff       	call   401340 <_badboy>
  403155:	83 45 f4 01          	add    DWORD PTR [ebp-0xc],0x1
  403159:	c7 45 f0 04 00 00 00 	mov    DWORD PTR [ebp-0x10],0x4
  403160:	8b 55 f4             	mov    edx,DWORD PTR [ebp-0xc]
  403163:	8b 45 08             	mov    eax,DWORD PTR [ebp+0x8]
  403166:	01 d0                	add    eax,edx
  403168:	0f b6 00             	movzx  eax,BYTE PTR [eax]
  40316b:	83 f0 24             	xor    eax,0x24
  40316e:	0f be c0             	movsx  eax,al
  403171:	3b 45 f0             	cmp    eax,DWORD PTR [ebp-0x10]
  403174:	74 0b                	je     403181 <_check+0x1c6d>
  403176:	8b 45 f4             	mov    eax,DWORD PTR [ebp-0xc]
  403179:	89 04 24             	mov    DWORD PTR [esp],eax
  40317c:	e8 bf e1 ff ff       	call   401340 <_badboy>
  403181:	83 45 f4 01          	add    DWORD PTR [ebp-0xc],0x1
  403185:	c7 45 f0 d9 00 00 00 	mov    DWORD PTR [ebp-0x10],0xd9
  40318c:	8b 55 f4             	mov    edx,DWORD PTR [ebp-0xc]
  40318f:	8b 45 08             	mov    eax,DWORD PTR [ebp+0x8]
  403192:	01 d0                	add    eax,edx
  403194:	0f b6 00             	movzx  eax,BYTE PTR [eax]
  403197:	0f be c0             	movsx  eax,al
  40319a:	34 b4                	xor    al,0xb4
  40319c:	3b 45 f0             	cmp    eax,DWORD PTR [ebp-0x10]
  40319f:	74 0b                	je     4031ac <_check+0x1c98>
  4031a1:	8b 45 f4             	mov    eax,DWORD PTR [ebp-0xc]
  4031a4:	89 04 24             	mov    DWORD PTR [esp],eax
  4031a7:	e8 94 e1 ff ff       	call   401340 <_badboy>
  4031ac:	83 45 f4 01          	add    DWORD PTR [ebp-0xc],0x1
  4031b0:	c7 45 f0 67 00 00 00 	mov    DWORD PTR [ebp-0x10],0x67
  4031b7:	8b 55 f4             	mov    edx,DWORD PTR [ebp-0xc]
  4031ba:	8b 45 08             	mov    eax,DWORD PTR [ebp+0x8]
  4031bd:	01 d0                	add    eax,edx
  4031bf:	0f b6 00             	movzx  eax,BYTE PTR [eax]
  4031c2:	83 f0 06             	xor    eax,0x6
  4031c5:	0f be c0             	movsx  eax,al
  4031c8:	3b 45 f0             	cmp    eax,DWORD PTR [ebp-0x10]
  4031cb:	74 0b                	je     4031d8 <_check+0x1cc4>
  4031cd:	8b 45 f4             	mov    eax,DWORD PTR [ebp-0xc]
  4031d0:	89 04 24             	mov    DWORD PTR [esp],eax
  4031d3:	e8 68 e1 ff ff       	call   401340 <_badboy>
  4031d8:	83 45 f4 01          	add    DWORD PTR [ebp-0xc],0x1
  4031dc:	c7 45 f0 31 00 00 00 	mov    DWORD PTR [ebp-0x10],0x31
  4031e3:	8b 55 f4             	mov    edx,DWORD PTR [ebp-0xc]
  4031e6:	8b 45 08             	mov    eax,DWORD PTR [ebp+0x8]
  4031e9:	01 d0                	add    eax,edx
  4031eb:	0f b6 00             	movzx  eax,BYTE PTR [eax]
  4031ee:	83 f0 55             	xor    eax,0x55
  4031f1:	0f be c0             	movsx  eax,al
  4031f4:	3b 45 f0             	cmp    eax,DWORD PTR [ebp-0x10]
  4031f7:	74 0b                	je     403204 <_check+0x1cf0>
  4031f9:	8b 45 f4             	mov    eax,DWORD PTR [ebp-0xc]
  4031fc:	89 04 24             	mov    DWORD PTR [esp],eax
  4031ff:	e8 3c e1 ff ff       	call   401340 <_badboy>
  403204:	83 45 f4 01          	add    DWORD PTR [ebp-0xc],0x1
  403208:	c7 45 f0 f6 00 00 00 	mov    DWORD PTR [ebp-0x10],0xf6
  40320f:	8b 55 f4             	mov    edx,DWORD PTR [ebp-0xc]
  403212:	8b 45 08             	mov    eax,DWORD PTR [ebp+0x8]
  403215:	01 d0                	add    eax,edx
  403217:	0f b6 00             	movzx  eax,BYTE PTR [eax]
  40321a:	0f be c0             	movsx  eax,al
  40321d:	34 93                	xor    al,0x93
  40321f:	3b 45 f0             	cmp    eax,DWORD PTR [ebp-0x10]
  403222:	74 0b                	je     40322f <_check+0x1d1b>
  403224:	8b 45 f4             	mov    eax,DWORD PTR [ebp-0xc]
  403227:	89 04 24             	mov    DWORD PTR [esp],eax
  40322a:	e8 11 e1 ff ff       	call   401340 <_badboy>
  40322f:	83 45 f4 01          	add    DWORD PTR [ebp-0xc],0x1
  403233:	c7 45 f0 3d 00 00 00 	mov    DWORD PTR [ebp-0x10],0x3d
  40323a:	8b 55 f4             	mov    edx,DWORD PTR [ebp-0xc]
  40323d:	8b 45 08             	mov    eax,DWORD PTR [ebp+0x8]
  403240:	01 d0                	add    eax,edx
  403242:	0f b6 00             	movzx  eax,BYTE PTR [eax]
  403245:	83 f0 1d             	xor    eax,0x1d
  403248:	0f be c0             	movsx  eax,al
  40324b:	3b 45 f0             	cmp    eax,DWORD PTR [ebp-0x10]
  40324e:	74 0b                	je     40325b <_check+0x1d47>
  403250:	8b 45 f4             	mov    eax,DWORD PTR [ebp-0xc]
  403253:	89 04 24             	mov    DWORD PTR [esp],eax
  403256:	e8 e5 e0 ff ff       	call   401340 <_badboy>
  40325b:	83 45 f4 01          	add    DWORD PTR [ebp-0xc],0x1
  40325f:	c7 45 f0 89 00 00 00 	mov    DWORD PTR [ebp-0x10],0x89
  403266:	8b 55 f4             	mov    edx,DWORD PTR [ebp-0xc]
  403269:	8b 45 08             	mov    eax,DWORD PTR [ebp+0x8]
  40326c:	01 d0                	add    eax,edx
  40326e:	0f b6 00             	movzx  eax,BYTE PTR [eax]
  403271:	0f be c0             	movsx  eax,al
  403274:	34 e1                	xor    al,0xe1
  403276:	3b 45 f0             	cmp    eax,DWORD PTR [ebp-0x10]
  403279:	74 0b                	je     403286 <_check+0x1d72>
  40327b:	8b 45 f4             	mov    eax,DWORD PTR [ebp-0xc]
  40327e:	89 04 24             	mov    DWORD PTR [esp],eax
  403281:	e8 ba e0 ff ff       	call   401340 <_badboy>
  403286:	83 45 f4 01          	add    DWORD PTR [ebp-0xc],0x1
  40328a:	c7 45 f0 c7 00 00 00 	mov    DWORD PTR [ebp-0x10],0xc7
  403291:	8b 55 f4             	mov    edx,DWORD PTR [ebp-0xc]
  403294:	8b 45 08             	mov    eax,DWORD PTR [ebp+0x8]
  403297:	01 d0                	add    eax,edx
  403299:	0f b6 00             	movzx  eax,BYTE PTR [eax]
  40329c:	0f be c0             	movsx  eax,al
  40329f:	34 ae                	xor    al,0xae
  4032a1:	3b 45 f0             	cmp    eax,DWORD PTR [ebp-0x10]
  4032a4:	74 0b                	je     4032b1 <_check+0x1d9d>
  4032a6:	8b 45 f4             	mov    eax,DWORD PTR [ebp-0xc]
  4032a9:	89 04 24             	mov    DWORD PTR [esp],eax
  4032ac:	e8 8f e0 ff ff       	call   401340 <_badboy>
  4032b1:	83 45 f4 01          	add    DWORD PTR [ebp-0xc],0x1
  4032b5:	c7 45 f0 35 00 00 00 	mov    DWORD PTR [ebp-0x10],0x35
  4032bc:	8b 55 f4             	mov    edx,DWORD PTR [ebp-0xc]
  4032bf:	8b 45 08             	mov    eax,DWORD PTR [ebp+0x8]
  4032c2:	01 d0                	add    eax,edx
  4032c4:	0f b6 00             	movzx  eax,BYTE PTR [eax]
  4032c7:	83 f0 46             	xor    eax,0x46
  4032ca:	0f be c0             	movsx  eax,al
  4032cd:	3b 45 f0             	cmp    eax,DWORD PTR [ebp-0x10]
  4032d0:	74 0b                	je     4032dd <_check+0x1dc9>
  4032d2:	8b 45 f4             	mov    eax,DWORD PTR [ebp-0xc]
  4032d5:	89 04 24             	mov    DWORD PTR [esp],eax
  4032d8:	e8 63 e0 ff ff       	call   401340 <_badboy>
  4032dd:	83 45 f4 01          	add    DWORD PTR [ebp-0xc],0x1
  4032e1:	c7 45 f0 dd 00 00 00 	mov    DWORD PTR [ebp-0x10],0xdd
  4032e8:	8b 55 f4             	mov    edx,DWORD PTR [ebp-0xc]
  4032eb:	8b 45 08             	mov    eax,DWORD PTR [ebp+0x8]
  4032ee:	01 d0                	add    eax,edx
  4032f0:	0f b6 00             	movzx  eax,BYTE PTR [eax]
  4032f3:	0f be c0             	movsx  eax,al
  4032f6:	34 fd                	xor    al,0xfd
  4032f8:	3b 45 f0             	cmp    eax,DWORD PTR [ebp-0x10]
  4032fb:	74 0b                	je     403308 <_check+0x1df4>
  4032fd:	8b 45 f4             	mov    eax,DWORD PTR [ebp-0xc]
  403300:	89 04 24             	mov    DWORD PTR [esp],eax
  403303:	e8 38 e0 ff ff       	call   401340 <_badboy>
  403308:	83 45 f4 01          	add    DWORD PTR [ebp-0xc],0x1
  40330c:	c7 45 f0 ba 00 00 00 	mov    DWORD PTR [ebp-0x10],0xba
  403313:	8b 55 f4             	mov    edx,DWORD PTR [ebp-0xc]
  403316:	8b 45 08             	mov    eax,DWORD PTR [ebp+0x8]
  403319:	01 d0                	add    eax,edx
  40331b:	0f b6 00             	movzx  eax,BYTE PTR [eax]
  40331e:	0f be c0             	movsx  eax,al
  403321:	34 dc                	xor    al,0xdc
  403323:	3b 45 f0             	cmp    eax,DWORD PTR [ebp-0x10]
  403326:	74 0b                	je     403333 <_check+0x1e1f>
  403328:	8b 45 f4             	mov    eax,DWORD PTR [ebp-0xc]
  40332b:	89 04 24             	mov    DWORD PTR [esp],eax
  40332e:	e8 0d e0 ff ff       	call   401340 <_badboy>
  403333:	83 45 f4 01          	add    DWORD PTR [ebp-0xc],0x1
  403337:	c7 45 f0 b3 00 00 00 	mov    DWORD PTR [ebp-0x10],0xb3
  40333e:	8b 55 f4             	mov    edx,DWORD PTR [ebp-0xc]
  403341:	8b 45 08             	mov    eax,DWORD PTR [ebp+0x8]
  403344:	01 d0                	add    eax,edx
  403346:	0f b6 00             	movzx  eax,BYTE PTR [eax]
  403349:	0f be c0             	movsx  eax,al
  40334c:	34 da                	xor    al,0xda
  40334e:	3b 45 f0             	cmp    eax,DWORD PTR [ebp-0x10]
  403351:	74 0b                	je     40335e <_check+0x1e4a>
  403353:	8b 45 f4             	mov    eax,DWORD PTR [ebp-0xc]
  403356:	89 04 24             	mov    DWORD PTR [esp],eax
  403359:	e8 e2 df ff ff       	call   401340 <_badboy>
  40335e:	83 45 f4 01          	add    DWORD PTR [ebp-0xc],0x1
  403362:	c7 45 f0 89 00 00 00 	mov    DWORD PTR [ebp-0x10],0x89
  403369:	8b 55 f4             	mov    edx,DWORD PTR [ebp-0xc]
  40336c:	8b 45 08             	mov    eax,DWORD PTR [ebp+0x8]
  40336f:	01 d0                	add    eax,edx
  403371:	0f b6 00             	movzx  eax,BYTE PTR [eax]
  403374:	0f be c0             	movsx  eax,al
  403377:	34 fb                	xor    al,0xfb
  403379:	3b 45 f0             	cmp    eax,DWORD PTR [ebp-0x10]
  40337c:	74 0b                	je     403389 <_check+0x1e75>
  40337e:	8b 45 f4             	mov    eax,DWORD PTR [ebp-0xc]
  403381:	89 04 24             	mov    DWORD PTR [esp],eax
  403384:	e8 b7 df ff ff       	call   401340 <_badboy>
  403389:	83 45 f4 01          	add    DWORD PTR [ebp-0xc],0x1
  40338d:	c7 45 f0 d6 00 00 00 	mov    DWORD PTR [ebp-0x10],0xd6
  403394:	8b 55 f4             	mov    edx,DWORD PTR [ebp-0xc]
  403397:	8b 45 08             	mov    eax,DWORD PTR [ebp+0x8]
  40339a:	01 d0                	add    eax,edx
  40339c:	0f b6 00             	movzx  eax,BYTE PTR [eax]
  40339f:	0f be c0             	movsx  eax,al
  4033a2:	34 a5                	xor    al,0xa5
  4033a4:	3b 45 f0             	cmp    eax,DWORD PTR [ebp-0x10]
  4033a7:	74 0b                	je     4033b4 <_check+0x1ea0>
  4033a9:	8b 45 f4             	mov    eax,DWORD PTR [ebp-0xc]
  4033ac:	89 04 24             	mov    DWORD PTR [esp],eax
  4033af:	e8 8c df ff ff       	call   401340 <_badboy>
  4033b4:	83 45 f4 01          	add    DWORD PTR [ebp-0xc],0x1
  4033b8:	c7 45 f0 8f 00 00 00 	mov    DWORD PTR [ebp-0x10],0x8f
  4033bf:	8b 55 f4             	mov    edx,DWORD PTR [ebp-0xc]
  4033c2:	8b 45 08             	mov    eax,DWORD PTR [ebp+0x8]
  4033c5:	01 d0                	add    eax,edx
  4033c7:	0f b6 00             	movzx  eax,BYTE PTR [eax]
  4033ca:	0f be c0             	movsx  eax,al
  4033cd:	34 fb                	xor    al,0xfb
  4033cf:	3b 45 f0             	cmp    eax,DWORD PTR [ebp-0x10]
  4033d2:	74 0b                	je     4033df <_check+0x1ecb>
  4033d4:	8b 45 f4             	mov    eax,DWORD PTR [ebp-0xc]
  4033d7:	89 04 24             	mov    DWORD PTR [esp],eax
  4033da:	e8 61 df ff ff       	call   401340 <_badboy>
  4033df:	83 45 f4 01          	add    DWORD PTR [ebp-0xc],0x1
  4033e3:	c7 45 f0 2d 00 00 00 	mov    DWORD PTR [ebp-0x10],0x2d
  4033ea:	8b 55 f4             	mov    edx,DWORD PTR [ebp-0xc]
  4033ed:	8b 45 08             	mov    eax,DWORD PTR [ebp+0x8]
  4033f0:	01 d0                	add    eax,edx
  4033f2:	0f b6 00             	movzx  eax,BYTE PTR [eax]
  4033f5:	83 f0 0d             	xor    eax,0xd
  4033f8:	0f be c0             	movsx  eax,al
  4033fb:	3b 45 f0             	cmp    eax,DWORD PTR [ebp-0x10]
  4033fe:	74 0b                	je     40340b <_check+0x1ef7>
  403400:	8b 45 f4             	mov    eax,DWORD PTR [ebp-0xc]
  403403:	89 04 24             	mov    DWORD PTR [esp],eax
  403406:	e8 35 df ff ff       	call   401340 <_badboy>
  40340b:	83 45 f4 01          	add    DWORD PTR [ebp-0xc],0x1
  40340f:	c7 45 f0 74 00 00 00 	mov    DWORD PTR [ebp-0x10],0x74
  403416:	8b 55 f4             	mov    edx,DWORD PTR [ebp-0xc]
  403419:	8b 45 08             	mov    eax,DWORD PTR [ebp+0x8]
  40341c:	01 d0                	add    eax,edx
  40341e:	0f b6 00             	movzx  eax,BYTE PTR [eax]
  403421:	83 f0 15             	xor    eax,0x15
  403424:	0f be c0             	movsx  eax,al
  403427:	3b 45 f0             	cmp    eax,DWORD PTR [ebp-0x10]
  40342a:	74 0b                	je     403437 <_check+0x1f23>
  40342c:	8b 45 f4             	mov    eax,DWORD PTR [ebp-0xc]
  40342f:	89 04 24             	mov    DWORD PTR [esp],eax
  403432:	e8 09 df ff ff       	call   401340 <_badboy>
  403437:	83 45 f4 01          	add    DWORD PTR [ebp-0xc],0x1
  40343b:	c7 45 f0 1a 00 00 00 	mov    DWORD PTR [ebp-0x10],0x1a
  403442:	8b 55 f4             	mov    edx,DWORD PTR [ebp-0xc]
  403445:	8b 45 08             	mov    eax,DWORD PTR [ebp+0x8]
  403448:	01 d0                	add    eax,edx
  40344a:	0f b6 00             	movzx  eax,BYTE PTR [eax]
  40344d:	83 f0 6a             	xor    eax,0x6a
  403450:	0f be c0             	movsx  eax,al
  403453:	3b 45 f0             	cmp    eax,DWORD PTR [ebp-0x10]
  403456:	74 0b                	je     403463 <_check+0x1f4f>
  403458:	8b 45 f4             	mov    eax,DWORD PTR [ebp-0xc]
  40345b:	89 04 24             	mov    DWORD PTR [esp],eax
  40345e:	e8 dd de ff ff       	call   401340 <_badboy>
  403463:	83 45 f4 01          	add    DWORD PTR [ebp-0xc],0x1
  403467:	c7 45 f0 23 00 00 00 	mov    DWORD PTR [ebp-0x10],0x23
  40346e:	8b 55 f4             	mov    edx,DWORD PTR [ebp-0xc]
  403471:	8b 45 08             	mov    eax,DWORD PTR [ebp+0x8]
  403474:	01 d0                	add    eax,edx
  403476:	0f b6 00             	movzx  eax,BYTE PTR [eax]
  403479:	83 f0 53             	xor    eax,0x53
  40347c:	0f be c0             	movsx  eax,al
  40347f:	3b 45 f0             	cmp    eax,DWORD PTR [ebp-0x10]
  403482:	74 0b                	je     40348f <_check+0x1f7b>
  403484:	8b 45 f4             	mov    eax,DWORD PTR [ebp-0xc]
  403487:	89 04 24             	mov    DWORD PTR [esp],eax
  40348a:	e8 b1 de ff ff       	call   401340 <_badboy>
  40348f:	83 45 f4 01          	add    DWORD PTR [ebp-0xc],0x1
  403493:	c7 45 f0 6f 00 00 00 	mov    DWORD PTR [ebp-0x10],0x6f
  40349a:	8b 55 f4             	mov    edx,DWORD PTR [ebp-0xc]
  40349d:	8b 45 08             	mov    eax,DWORD PTR [ebp+0x8]
  4034a0:	01 d0                	add    eax,edx
  4034a2:	0f b6 00             	movzx  eax,BYTE PTR [eax]
  4034a5:	83 f0 0a             	xor    eax,0xa
  4034a8:	0f be c0             	movsx  eax,al
  4034ab:	3b 45 f0             	cmp    eax,DWORD PTR [ebp-0x10]
  4034ae:	74 0b                	je     4034bb <_check+0x1fa7>
  4034b0:	8b 45 f4             	mov    eax,DWORD PTR [ebp-0xc]
  4034b3:	89 04 24             	mov    DWORD PTR [esp],eax
  4034b6:	e8 85 de ff ff       	call   401340 <_badboy>
  4034bb:	83 45 f4 01          	add    DWORD PTR [ebp-0xc],0x1
  4034bf:	c7 45 f0 0d 00 00 00 	mov    DWORD PTR [ebp-0x10],0xd
  4034c6:	8b 55 f4             	mov    edx,DWORD PTR [ebp-0xc]
  4034c9:	8b 45 08             	mov    eax,DWORD PTR [ebp+0x8]
  4034cc:	01 d0                	add    eax,edx
  4034ce:	0f b6 00             	movzx  eax,BYTE PTR [eax]
  4034d1:	83 f0 6c             	xor    eax,0x6c
  4034d4:	0f be c0             	movsx  eax,al
  4034d7:	3b 45 f0             	cmp    eax,DWORD PTR [ebp-0x10]
  4034da:	74 0b                	je     4034e7 <_check+0x1fd3>
  4034dc:	8b 45 f4             	mov    eax,DWORD PTR [ebp-0xc]
  4034df:	89 04 24             	mov    DWORD PTR [esp],eax
  4034e2:	e8 59 de ff ff       	call   401340 <_badboy>
  4034e7:	83 45 f4 01          	add    DWORD PTR [ebp-0xc],0x1
  4034eb:	c7 45 f0 09 00 00 00 	mov    DWORD PTR [ebp-0x10],0x9
  4034f2:	8b 55 f4             	mov    edx,DWORD PTR [ebp-0xc]
  4034f5:	8b 45 08             	mov    eax,DWORD PTR [ebp+0x8]
  4034f8:	01 d0                	add    eax,edx
  4034fa:	0f b6 00             	movzx  eax,BYTE PTR [eax]
  4034fd:	83 f0 7b             	xor    eax,0x7b
  403500:	0f be c0             	movsx  eax,al
  403503:	3b 45 f0             	cmp    eax,DWORD PTR [ebp-0x10]
  403506:	74 0b                	je     403513 <_check+0x1fff>
  403508:	8b 45 f4             	mov    eax,DWORD PTR [ebp-0xc]
  40350b:	89 04 24             	mov    DWORD PTR [esp],eax
  40350e:	e8 2d de ff ff       	call   401340 <_badboy>
  403513:	83 45 f4 01          	add    DWORD PTR [ebp-0xc],0x1
  403517:	c7 45 f0 57 00 00 00 	mov    DWORD PTR [ebp-0x10],0x57
  40351e:	8b 55 f4             	mov    edx,DWORD PTR [ebp-0xc]
  403521:	8b 45 08             	mov    eax,DWORD PTR [ebp+0x8]
  403524:	01 d0                	add    eax,edx
  403526:	0f b6 00             	movzx  eax,BYTE PTR [eax]
  403529:	83 f0 36             	xor    eax,0x36
  40352c:	0f be c0             	movsx  eax,al
  40352f:	3b 45 f0             	cmp    eax,DWORD PTR [ebp-0x10]
  403532:	74 0b                	je     40353f <_check+0x202b>
  403534:	8b 45 f4             	mov    eax,DWORD PTR [ebp-0xc]
  403537:	89 04 24             	mov    DWORD PTR [esp],eax
  40353a:	e8 01 de ff ff       	call   401340 <_badboy>
  40353f:	83 45 f4 01          	add    DWORD PTR [ebp-0xc],0x1
  403543:	c7 45 f0 4d 00 00 00 	mov    DWORD PTR [ebp-0x10],0x4d
  40354a:	8b 55 f4             	mov    edx,DWORD PTR [ebp-0xc]
  40354d:	8b 45 08             	mov    eax,DWORD PTR [ebp+0x8]
  403550:	01 d0                	add    eax,edx
  403552:	0f b6 00             	movzx  eax,BYTE PTR [eax]
  403555:	83 f0 23             	xor    eax,0x23
  403558:	0f be c0             	movsx  eax,al
  40355b:	3b 45 f0             	cmp    eax,DWORD PTR [ebp-0x10]
  40355e:	74 0b                	je     40356b <_check+0x2057>
  403560:	8b 45 f4             	mov    eax,DWORD PTR [ebp-0xc]
  403563:	89 04 24             	mov    DWORD PTR [esp],eax
  403566:	e8 d5 dd ff ff       	call   401340 <_badboy>
  40356b:	83 45 f4 01          	add    DWORD PTR [ebp-0xc],0x1
  40356f:	c7 45 f0 8a 00 00 00 	mov    DWORD PTR [ebp-0x10],0x8a
  403576:	8b 55 f4             	mov    edx,DWORD PTR [ebp-0xc]
  403579:	8b 45 08             	mov    eax,DWORD PTR [ebp+0x8]
  40357c:	01 d0                	add    eax,edx
  40357e:	0f b6 00             	movzx  eax,BYTE PTR [eax]
  403581:	0f be c0             	movsx  eax,al
  403584:	34 e9                	xor    al,0xe9
  403586:	3b 45 f0             	cmp    eax,DWORD PTR [ebp-0x10]
  403589:	74 0b                	je     403596 <_check+0x2082>
  40358b:	8b 45 f4             	mov    eax,DWORD PTR [ebp-0xc]
  40358e:	89 04 24             	mov    DWORD PTR [esp],eax
  403591:	e8 aa dd ff ff       	call   401340 <_badboy>
  403596:	83 45 f4 01          	add    DWORD PTR [ebp-0xc],0x1
  40359a:	c7 45 f0 78 00 00 00 	mov    DWORD PTR [ebp-0x10],0x78
  4035a1:	8b 55 f4             	mov    edx,DWORD PTR [ebp-0xc]
  4035a4:	8b 45 08             	mov    eax,DWORD PTR [ebp+0x8]
  4035a7:	01 d0                	add    eax,edx
  4035a9:	0f b6 00             	movzx  eax,BYTE PTR [eax]
  4035ac:	83 f0 1d             	xor    eax,0x1d
  4035af:	0f be c0             	movsx  eax,al
  4035b2:	3b 45 f0             	cmp    eax,DWORD PTR [ebp-0x10]
  4035b5:	74 0b                	je     4035c2 <_check+0x20ae>
  4035b7:	8b 45 f4             	mov    eax,DWORD PTR [ebp-0xc]
  4035ba:	89 04 24             	mov    DWORD PTR [esp],eax
  4035bd:	e8 7e dd ff ff       	call   401340 <_badboy>
  4035c2:	83 45 f4 01          	add    DWORD PTR [ebp-0xc],0x1
  4035c6:	c7 45 f0 98 00 00 00 	mov    DWORD PTR [ebp-0x10],0x98
  4035cd:	8b 55 f4             	mov    edx,DWORD PTR [ebp-0xc]
  4035d0:	8b 45 08             	mov    eax,DWORD PTR [ebp+0x8]
  4035d3:	01 d0                	add    eax,edx
  4035d5:	0f b6 00             	movzx  eax,BYTE PTR [eax]
  4035d8:	0f be c0             	movsx  eax,al
  4035db:	34 b8                	xor    al,0xb8
  4035dd:	3b 45 f0             	cmp    eax,DWORD PTR [ebp-0x10]
  4035e0:	74 0b                	je     4035ed <_check+0x20d9>
  4035e2:	8b 45 f4             	mov    eax,DWORD PTR [ebp-0xc]
  4035e5:	89 04 24             	mov    DWORD PTR [esp],eax
  4035e8:	e8 53 dd ff ff       	call   401340 <_badboy>
  4035ed:	83 45 f4 01          	add    DWORD PTR [ebp-0xc],0x1
  4035f1:	c7 45 f0 1f 00 00 00 	mov    DWORD PTR [ebp-0x10],0x1f
  4035f8:	8b 55 f4             	mov    edx,DWORD PTR [ebp-0xc]
  4035fb:	8b 45 08             	mov    eax,DWORD PTR [ebp+0x8]
  4035fe:	01 d0                	add    eax,edx
  403600:	0f b6 00             	movzx  eax,BYTE PTR [eax]
  403603:	83 f0 76             	xor    eax,0x76
  403606:	0f be c0             	movsx  eax,al
  403609:	3b 45 f0             	cmp    eax,DWORD PTR [ebp-0x10]
  40360c:	74 0b                	je     403619 <_check+0x2105>
  40360e:	8b 45 f4             	mov    eax,DWORD PTR [ebp-0xc]
  403611:	89 04 24             	mov    DWORD PTR [esp],eax
  403614:	e8 27 dd ff ff       	call   401340 <_badboy>
  403619:	83 45 f4 01          	add    DWORD PTR [ebp-0xc],0x1
  40361d:	c7 45 f0 60 00 00 00 	mov    DWORD PTR [ebp-0x10],0x60
  403624:	8b 55 f4             	mov    edx,DWORD PTR [ebp-0xc]
  403627:	8b 45 08             	mov    eax,DWORD PTR [ebp+0x8]
  40362a:	01 d0                	add    eax,edx
  40362c:	0f b6 00             	movzx  eax,BYTE PTR [eax]
  40362f:	83 f0 0e             	xor    eax,0xe
  403632:	0f be c0             	movsx  eax,al
  403635:	3b 45 f0             	cmp    eax,DWORD PTR [ebp-0x10]
  403638:	74 0b                	je     403645 <_check+0x2131>
  40363a:	8b 45 f4             	mov    eax,DWORD PTR [ebp-0xc]
  40363d:	89 04 24             	mov    DWORD PTR [esp],eax
  403640:	e8 fb dc ff ff       	call   401340 <_badboy>
  403645:	83 45 f4 01          	add    DWORD PTR [ebp-0xc],0x1
  403649:	c7 45 f0 09 00 00 00 	mov    DWORD PTR [ebp-0x10],0x9
  403650:	8b 55 f4             	mov    edx,DWORD PTR [ebp-0xc]
  403653:	8b 45 08             	mov    eax,DWORD PTR [ebp+0x8]
  403656:	01 d0                	add    eax,edx
  403658:	0f b6 00             	movzx  eax,BYTE PTR [eax]
  40365b:	83 f0 29             	xor    eax,0x29
  40365e:	0f be c0             	movsx  eax,al
  403661:	3b 45 f0             	cmp    eax,DWORD PTR [ebp-0x10]
  403664:	74 0b                	je     403671 <_check+0x215d>
  403666:	8b 45 f4             	mov    eax,DWORD PTR [ebp-0xc]
  403669:	89 04 24             	mov    DWORD PTR [esp],eax
  40366c:	e8 cf dc ff ff       	call   401340 <_badboy>
  403671:	83 45 f4 01          	add    DWORD PTR [ebp-0xc],0x1
  403675:	c7 45 f0 aa 00 00 00 	mov    DWORD PTR [ebp-0x10],0xaa
  40367c:	8b 55 f4             	mov    edx,DWORD PTR [ebp-0xc]
  40367f:	8b 45 08             	mov    eax,DWORD PTR [ebp+0x8]
  403682:	01 d0                	add    eax,edx
  403684:	0f b6 00             	movzx  eax,BYTE PTR [eax]
  403687:	0f be c0             	movsx  eax,al
  40368a:	34 f9                	xor    al,0xf9
  40368c:	3b 45 f0             	cmp    eax,DWORD PTR [ebp-0x10]
  40368f:	74 0b                	je     40369c <_check+0x2188>
  403691:	8b 45 f4             	mov    eax,DWORD PTR [ebp-0xc]
  403694:	89 04 24             	mov    DWORD PTR [esp],eax
  403697:	e8 a4 dc ff ff       	call   401340 <_badboy>
  40369c:	83 45 f4 01          	add    DWORD PTR [ebp-0xc],0x1
  4036a0:	c7 45 f0 ed 00 00 00 	mov    DWORD PTR [ebp-0x10],0xed
  4036a7:	8b 55 f4             	mov    edx,DWORD PTR [ebp-0xc]
  4036aa:	8b 45 08             	mov    eax,DWORD PTR [ebp+0x8]
  4036ad:	01 d0                	add    eax,edx
  4036af:	0f b6 00             	movzx  eax,BYTE PTR [eax]
  4036b2:	0f be c0             	movsx  eax,al
  4036b5:	34 82                	xor    al,0x82
  4036b7:	3b 45 f0             	cmp    eax,DWORD PTR [ebp-0x10]
  4036ba:	74 0b                	je     4036c7 <_check+0x21b3>
  4036bc:	8b 45 f4             	mov    eax,DWORD PTR [ebp-0xc]
  4036bf:	89 04 24             	mov    DWORD PTR [esp],eax
  4036c2:	e8 79 dc ff ff       	call   401340 <_badboy>
  4036c7:	83 45 f4 01          	add    DWORD PTR [ebp-0xc],0x1
  4036cb:	c7 45 f0 82 00 00 00 	mov    DWORD PTR [ebp-0x10],0x82
  4036d2:	8b 55 f4             	mov    edx,DWORD PTR [ebp-0xc]
  4036d5:	8b 45 08             	mov    eax,DWORD PTR [ebp+0x8]
  4036d8:	01 d0                	add    eax,edx
  4036da:	0f b6 00             	movzx  eax,BYTE PTR [eax]
  4036dd:	0f be c0             	movsx  eax,al
  4036e0:	34 f7                	xor    al,0xf7
  4036e2:	3b 45 f0             	cmp    eax,DWORD PTR [ebp-0x10]
  4036e5:	74 0b                	je     4036f2 <_check+0x21de>
  4036e7:	8b 45 f4             	mov    eax,DWORD PTR [ebp-0xc]
  4036ea:	89 04 24             	mov    DWORD PTR [esp],eax
  4036ed:	e8 4e dc ff ff       	call   401340 <_badboy>
  4036f2:	83 45 f4 01          	add    DWORD PTR [ebp-0xc],0x1
  4036f6:	c7 45 f0 38 00 00 00 	mov    DWORD PTR [ebp-0x10],0x38
  4036fd:	8b 55 f4             	mov    edx,DWORD PTR [ebp-0xc]
  403700:	8b 45 08             	mov    eax,DWORD PTR [ebp+0x8]
  403703:	01 d0                	add    eax,edx
  403705:	0f b6 00             	movzx  eax,BYTE PTR [eax]
  403708:	83 f0 54             	xor    eax,0x54
  40370b:	0f be c0             	movsx  eax,al
  40370e:	3b 45 f0             	cmp    eax,DWORD PTR [ebp-0x10]
  403711:	74 0b                	je     40371e <_check+0x220a>
  403713:	8b 45 f4             	mov    eax,DWORD PTR [ebp-0xc]
  403716:	89 04 24             	mov    DWORD PTR [esp],eax
  403719:	e8 22 dc ff ff       	call   401340 <_badboy>
  40371e:	83 45 f4 01          	add    DWORD PTR [ebp-0xc],0x1
  403722:	c7 45 f0 e0 00 00 00 	mov    DWORD PTR [ebp-0x10],0xe0
  403729:	8b 55 f4             	mov    edx,DWORD PTR [ebp-0xc]
  40372c:	8b 45 08             	mov    eax,DWORD PTR [ebp+0x8]
  40372f:	01 d0                	add    eax,edx
  403731:	0f b6 00             	movzx  eax,BYTE PTR [eax]
  403734:	0f be c0             	movsx  eax,al
  403737:	34 c0                	xor    al,0xc0
  403739:	3b 45 f0             	cmp    eax,DWORD PTR [ebp-0x10]
  40373c:	74 0b                	je     403749 <_check+0x2235>
  40373e:	8b 45 f4             	mov    eax,DWORD PTR [ebp-0xc]
  403741:	89 04 24             	mov    DWORD PTR [esp],eax
  403744:	e8 f7 db ff ff       	call   401340 <_badboy>
  403749:	83 45 f4 01          	add    DWORD PTR [ebp-0xc],0x1
  40374d:	c7 45 f0 d7 00 00 00 	mov    DWORD PTR [ebp-0x10],0xd7
  403754:	8b 55 f4             	mov    edx,DWORD PTR [ebp-0xc]
  403757:	8b 45 08             	mov    eax,DWORD PTR [ebp+0x8]
  40375a:	01 d0                	add    eax,edx
  40375c:	0f b6 00             	movzx  eax,BYTE PTR [eax]
  40375f:	0f be c0             	movsx  eax,al
  403762:	34 92                	xor    al,0x92
  403764:	3b 45 f0             	cmp    eax,DWORD PTR [ebp-0x10]
  403767:	74 0b                	je     403774 <_check+0x2260>
  403769:	8b 45 f4             	mov    eax,DWORD PTR [ebp-0xc]
  40376c:	89 04 24             	mov    DWORD PTR [esp],eax
  40376f:	e8 cc db ff ff       	call   401340 <_badboy>
  403774:	83 45 f4 01          	add    DWORD PTR [ebp-0xc],0x1
  403778:	c7 45 f0 3a 00 00 00 	mov    DWORD PTR [ebp-0x10],0x3a
  40377f:	8b 55 f4             	mov    edx,DWORD PTR [ebp-0xc]
  403782:	8b 45 08             	mov    eax,DWORD PTR [ebp+0x8]
  403785:	01 d0                	add    eax,edx
  403787:	0f b6 00             	movzx  eax,BYTE PTR [eax]
  40378a:	83 f0 5e             	xor    eax,0x5e
  40378d:	0f be c0             	movsx  eax,al
  403790:	3b 45 f0             	cmp    eax,DWORD PTR [ebp-0x10]
  403793:	74 0b                	je     4037a0 <_check+0x228c>
  403795:	8b 45 f4             	mov    eax,DWORD PTR [ebp-0xc]
  403798:	89 04 24             	mov    DWORD PTR [esp],eax
  40379b:	e8 a0 db ff ff       	call   401340 <_badboy>
  4037a0:	83 45 f4 01          	add    DWORD PTR [ebp-0xc],0x1
  4037a4:	c7 45 f0 ba 00 00 00 	mov    DWORD PTR [ebp-0x10],0xba
  4037ab:	8b 55 f4             	mov    edx,DWORD PTR [ebp-0xc]
  4037ae:	8b 45 08             	mov    eax,DWORD PTR [ebp+0x8]
  4037b1:	01 d0                	add    eax,edx
  4037b3:	0f b6 00             	movzx  eax,BYTE PTR [eax]
  4037b6:	0f be c0             	movsx  eax,al
  4037b9:	34 dd                	xor    al,0xdd
  4037bb:	3b 45 f0             	cmp    eax,DWORD PTR [ebp-0x10]
  4037be:	74 0b                	je     4037cb <_check+0x22b7>
  4037c0:	8b 45 f4             	mov    eax,DWORD PTR [ebp-0xc]
  4037c3:	89 04 24             	mov    DWORD PTR [esp],eax
  4037c6:	e8 75 db ff ff       	call   401340 <_badboy>
  4037cb:	83 45 f4 01          	add    DWORD PTR [ebp-0xc],0x1
  4037cf:	c7 45 f0 ad 00 00 00 	mov    DWORD PTR [ebp-0x10],0xad
  4037d6:	8b 55 f4             	mov    edx,DWORD PTR [ebp-0xc]
  4037d9:	8b 45 08             	mov    eax,DWORD PTR [ebp+0x8]
  4037dc:	01 d0                	add    eax,edx
  4037de:	0f b6 00             	movzx  eax,BYTE PTR [eax]
  4037e1:	0f be c0             	movsx  eax,al
  4037e4:	34 c8                	xor    al,0xc8
  4037e6:	3b 45 f0             	cmp    eax,DWORD PTR [ebp-0x10]
  4037e9:	74 0b                	je     4037f6 <_check+0x22e2>
  4037eb:	8b 45 f4             	mov    eax,DWORD PTR [ebp-0xc]
  4037ee:	89 04 24             	mov    DWORD PTR [esp],eax
  4037f1:	e8 4a db ff ff       	call   401340 <_badboy>
  4037f6:	83 45 f4 01          	add    DWORD PTR [ebp-0xc],0x1
  4037fa:	c7 45 f0 5b 00 00 00 	mov    DWORD PTR [ebp-0x10],0x5b
  403801:	8b 55 f4             	mov    edx,DWORD PTR [ebp-0xc]
  403804:	8b 45 08             	mov    eax,DWORD PTR [ebp+0x8]
  403807:	01 d0                	add    eax,edx
  403809:	0f b6 00             	movzx  eax,BYTE PTR [eax]
  40380c:	83 f0 7b             	xor    eax,0x7b
  40380f:	0f be c0             	movsx  eax,al
  403812:	3b 45 f0             	cmp    eax,DWORD PTR [ebp-0x10]
  403815:	74 0b                	je     403822 <_check+0x230e>
  403817:	8b 45 f4             	mov    eax,DWORD PTR [ebp-0xc]
  40381a:	89 04 24             	mov    DWORD PTR [esp],eax
  40381d:	e8 1e db ff ff       	call   401340 <_badboy>
  403822:	83 45 f4 01          	add    DWORD PTR [ebp-0xc],0x1
  403826:	c7 45 f0 6a 00 00 00 	mov    DWORD PTR [ebp-0x10],0x6a
  40382d:	8b 55 f4             	mov    edx,DWORD PTR [ebp-0xc]
  403830:	8b 45 08             	mov    eax,DWORD PTR [ebp+0x8]
  403833:	01 d0                	add    eax,edx
  403835:	0f b6 00             	movzx  eax,BYTE PTR [eax]
  403838:	83 f0 0b             	xor    eax,0xb
  40383b:	0f be c0             	movsx  eax,al
  40383e:	3b 45 f0             	cmp    eax,DWORD PTR [ebp-0x10]
  403841:	74 0b                	je     40384e <_check+0x233a>
  403843:	8b 45 f4             	mov    eax,DWORD PTR [ebp-0xc]
  403846:	89 04 24             	mov    DWORD PTR [esp],eax
  403849:	e8 f2 da ff ff       	call   401340 <_badboy>
  40384e:	83 45 f4 01          	add    DWORD PTR [ebp-0xc],0x1
  403852:	c7 45 f0 aa 00 00 00 	mov    DWORD PTR [ebp-0x10],0xaa
  403859:	8b 55 f4             	mov    edx,DWORD PTR [ebp-0xc]
  40385c:	8b 45 08             	mov    eax,DWORD PTR [ebp+0x8]
  40385f:	01 d0                	add    eax,edx
  403861:	0f b6 00             	movzx  eax,BYTE PTR [eax]
  403864:	0f be c0             	movsx  eax,al
  403867:	34 c4                	xor    al,0xc4
  403869:	3b 45 f0             	cmp    eax,DWORD PTR [ebp-0x10]
  40386c:	74 0b                	je     403879 <_check+0x2365>
  40386e:	8b 45 f4             	mov    eax,DWORD PTR [ebp-0xc]
  403871:	89 04 24             	mov    DWORD PTR [esp],eax
  403874:	e8 c7 da ff ff       	call   401340 <_badboy>
  403879:	83 45 f4 01          	add    DWORD PTR [ebp-0xc],0x1
  40387d:	c7 45 f0 70 00 00 00 	mov    DWORD PTR [ebp-0x10],0x70
  403884:	8b 55 f4             	mov    edx,DWORD PTR [ebp-0xc]
  403887:	8b 45 08             	mov    eax,DWORD PTR [ebp+0x8]
  40388a:	01 d0                	add    eax,edx
  40388c:	0f b6 00             	movzx  eax,BYTE PTR [eax]
  40388f:	83 f0 14             	xor    eax,0x14
  403892:	0f be c0             	movsx  eax,al
  403895:	3b 45 f0             	cmp    eax,DWORD PTR [ebp-0x10]
  403898:	74 0b                	je     4038a5 <_check+0x2391>
  40389a:	8b 45 f4             	mov    eax,DWORD PTR [ebp-0xc]
  40389d:	89 04 24             	mov    DWORD PTR [esp],eax
  4038a0:	e8 9b da ff ff       	call   401340 <_badboy>
  4038a5:	83 45 f4 01          	add    DWORD PTR [ebp-0xc],0x1
  4038a9:	c7 45 f0 be 00 00 00 	mov    DWORD PTR [ebp-0x10],0xbe
  4038b0:	8b 55 f4             	mov    edx,DWORD PTR [ebp-0xc]
  4038b3:	8b 45 08             	mov    eax,DWORD PTR [ebp+0x8]
  4038b6:	01 d0                	add    eax,edx
  4038b8:	0f b6 00             	movzx  eax,BYTE PTR [eax]
  4038bb:	0f be c0             	movsx  eax,al
  4038be:	34 9e                	xor    al,0x9e
  4038c0:	3b 45 f0             	cmp    eax,DWORD PTR [ebp-0x10]
  4038c3:	74 0b                	je     4038d0 <_check+0x23bc>
  4038c5:	8b 45 f4             	mov    eax,DWORD PTR [ebp-0xc]
  4038c8:	89 04 24             	mov    DWORD PTR [esp],eax
  4038cb:	e8 70 da ff ff       	call   401340 <_badboy>
  4038d0:	83 45 f4 01          	add    DWORD PTR [ebp-0xc],0x1
  4038d4:	c7 45 f0 67 00 00 00 	mov    DWORD PTR [ebp-0x10],0x67
  4038db:	8b 55 f4             	mov    edx,DWORD PTR [ebp-0xc]
  4038de:	8b 45 08             	mov    eax,DWORD PTR [ebp+0x8]
  4038e1:	01 d0                	add    eax,edx
  4038e3:	0f b6 00             	movzx  eax,BYTE PTR [eax]
  4038e6:	83 f0 0f             	xor    eax,0xf
  4038e9:	0f be c0             	movsx  eax,al
  4038ec:	3b 45 f0             	cmp    eax,DWORD PTR [ebp-0x10]
  4038ef:	74 0b                	je     4038fc <_check+0x23e8>
  4038f1:	8b 45 f4             	mov    eax,DWORD PTR [ebp-0xc]
  4038f4:	89 04 24             	mov    DWORD PTR [esp],eax
  4038f7:	e8 44 da ff ff       	call   401340 <_badboy>
  4038fc:	83 45 f4 01          	add    DWORD PTR [ebp-0xc],0x1
  403900:	c7 45 f0 48 00 00 00 	mov    DWORD PTR [ebp-0x10],0x48
  403907:	8b 55 f4             	mov    edx,DWORD PTR [ebp-0xc]
  40390a:	8b 45 08             	mov    eax,DWORD PTR [ebp+0x8]
  40390d:	01 d0                	add    eax,edx
  40390f:	0f b6 00             	movzx  eax,BYTE PTR [eax]
  403912:	83 f0 29             	xor    eax,0x29
  403915:	0f be c0             	movsx  eax,al
  403918:	3b 45 f0             	cmp    eax,DWORD PTR [ebp-0x10]
  40391b:	74 0b                	je     403928 <_check+0x2414>
  40391d:	8b 45 f4             	mov    eax,DWORD PTR [ebp-0xc]
  403920:	89 04 24             	mov    DWORD PTR [esp],eax
  403923:	e8 18 da ff ff       	call   401340 <_badboy>
  403928:	83 45 f4 01          	add    DWORD PTR [ebp-0xc],0x1
  40392c:	c7 45 f0 d4 00 00 00 	mov    DWORD PTR [ebp-0x10],0xd4
  403933:	8b 55 f4             	mov    edx,DWORD PTR [ebp-0xc]
  403936:	8b 45 08             	mov    eax,DWORD PTR [ebp+0x8]
  403939:	01 d0                	add    eax,edx
  40393b:	0f b6 00             	movzx  eax,BYTE PTR [eax]
  40393e:	0f be c0             	movsx  eax,al
  403941:	34 a7                	xor    al,0xa7
  403943:	3b 45 f0             	cmp    eax,DWORD PTR [ebp-0x10]
  403946:	74 0b                	je     403953 <_check+0x243f>
  403948:	8b 45 f4             	mov    eax,DWORD PTR [ebp-0xc]
  40394b:	89 04 24             	mov    DWORD PTR [esp],eax
  40394e:	e8 ed d9 ff ff       	call   401340 <_badboy>
  403953:	83 45 f4 01          	add    DWORD PTR [ebp-0xc],0x1
  403957:	c7 45 f0 10 00 00 00 	mov    DWORD PTR [ebp-0x10],0x10
  40395e:	8b 55 f4             	mov    edx,DWORD PTR [ebp-0xc]
  403961:	8b 45 08             	mov    eax,DWORD PTR [ebp+0x8]
  403964:	01 d0                	add    eax,edx
  403966:	0f b6 00             	movzx  eax,BYTE PTR [eax]
  403969:	83 f0 30             	xor    eax,0x30
  40396c:	0f be c0             	movsx  eax,al
  40396f:	3b 45 f0             	cmp    eax,DWORD PTR [ebp-0x10]
  403972:	74 0b                	je     40397f <_check+0x246b>
  403974:	8b 45 f4             	mov    eax,DWORD PTR [ebp-0xc]
  403977:	89 04 24             	mov    DWORD PTR [esp],eax
  40397a:	e8 c1 d9 ff ff       	call   401340 <_badboy>
  40397f:	83 45 f4 01          	add    DWORD PTR [ebp-0xc],0x1
  403983:	c7 45 f0 81 00 00 00 	mov    DWORD PTR [ebp-0x10],0x81
  40398a:	8b 55 f4             	mov    edx,DWORD PTR [ebp-0xc]
  40398d:	8b 45 08             	mov    eax,DWORD PTR [ebp+0x8]
  403990:	01 d0                	add    eax,edx
  403992:	0f b6 00             	movzx  eax,BYTE PTR [eax]
  403995:	0f be c0             	movsx  eax,al
  403998:	34 f3                	xor    al,0xf3
  40399a:	3b 45 f0             	cmp    eax,DWORD PTR [ebp-0x10]
  40399d:	74 0b                	je     4039aa <_check+0x2496>
  40399f:	8b 45 f4             	mov    eax,DWORD PTR [ebp-0xc]
  4039a2:	89 04 24             	mov    DWORD PTR [esp],eax
  4039a5:	e8 96 d9 ff ff       	call   401340 <_badboy>
  4039aa:	83 45 f4 01          	add    DWORD PTR [ebp-0xc],0x1
  4039ae:	c7 45 f0 ec 00 00 00 	mov    DWORD PTR [ebp-0x10],0xec
  4039b5:	8b 55 f4             	mov    edx,DWORD PTR [ebp-0xc]
  4039b8:	8b 45 08             	mov    eax,DWORD PTR [ebp+0x8]
  4039bb:	01 d0                	add    eax,edx
  4039bd:	0f b6 00             	movzx  eax,BYTE PTR [eax]
  4039c0:	0f be c0             	movsx  eax,al
  4039c3:	34 89                	xor    al,0x89
  4039c5:	3b 45 f0             	cmp    eax,DWORD PTR [ebp-0x10]
  4039c8:	74 0b                	je     4039d5 <_check+0x24c1>
  4039ca:	8b 45 f4             	mov    eax,DWORD PTR [ebp-0xc]
  4039cd:	89 04 24             	mov    DWORD PTR [esp],eax
  4039d0:	e8 6b d9 ff ff       	call   401340 <_badboy>
  4039d5:	83 45 f4 01          	add    DWORD PTR [ebp-0xc],0x1
  4039d9:	c7 45 f0 79 00 00 00 	mov    DWORD PTR [ebp-0x10],0x79
  4039e0:	8b 55 f4             	mov    edx,DWORD PTR [ebp-0xc]
  4039e3:	8b 45 08             	mov    eax,DWORD PTR [ebp+0x8]
  4039e6:	01 d0                	add    eax,edx
  4039e8:	0f b6 00             	movzx  eax,BYTE PTR [eax]
  4039eb:	83 f0 0d             	xor    eax,0xd
  4039ee:	0f be c0             	movsx  eax,al
  4039f1:	3b 45 f0             	cmp    eax,DWORD PTR [ebp-0x10]
  4039f4:	74 0b                	je     403a01 <_check+0x24ed>
  4039f6:	8b 45 f4             	mov    eax,DWORD PTR [ebp-0xc]
  4039f9:	89 04 24             	mov    DWORD PTR [esp],eax
  4039fc:	e8 3f d9 ff ff       	call   401340 <_badboy>
  403a01:	83 45 f4 01          	add    DWORD PTR [ebp-0xc],0x1
  403a05:	c7 45 f0 ba 00 00 00 	mov    DWORD PTR [ebp-0x10],0xba
  403a0c:	8b 55 f4             	mov    edx,DWORD PTR [ebp-0xc]
  403a0f:	8b 45 08             	mov    eax,DWORD PTR [ebp+0x8]
  403a12:	01 d0                	add    eax,edx
  403a14:	0f b6 00             	movzx  eax,BYTE PTR [eax]
  403a17:	0f be c0             	movsx  eax,al
  403a1a:	34 cf                	xor    al,0xcf
  403a1c:	3b 45 f0             	cmp    eax,DWORD PTR [ebp-0x10]
  403a1f:	74 0b                	je     403a2c <_check+0x2518>
  403a21:	8b 45 f4             	mov    eax,DWORD PTR [ebp-0xc]
  403a24:	89 04 24             	mov    DWORD PTR [esp],eax
  403a27:	e8 14 d9 ff ff       	call   401340 <_badboy>
  403a2c:	83 45 f4 01          	add    DWORD PTR [ebp-0xc],0x1
  403a30:	c7 45 f0 e9 00 00 00 	mov    DWORD PTR [ebp-0x10],0xe9
  403a37:	8b 55 f4             	mov    edx,DWORD PTR [ebp-0xc]
  403a3a:	8b 45 08             	mov    eax,DWORD PTR [ebp+0x8]
  403a3d:	01 d0                	add    eax,edx
  403a3f:	0f b6 00             	movzx  eax,BYTE PTR [eax]
  403a42:	0f be c0             	movsx  eax,al
  403a45:	34 9b                	xor    al,0x9b
  403a47:	3b 45 f0             	cmp    eax,DWORD PTR [ebp-0x10]
  403a4a:	74 0b                	je     403a57 <_check+0x2543>
  403a4c:	8b 45 f4             	mov    eax,DWORD PTR [ebp-0xc]
  403a4f:	89 04 24             	mov    DWORD PTR [esp],eax
  403a52:	e8 e9 d8 ff ff       	call   401340 <_badboy>
  403a57:	83 45 f4 01          	add    DWORD PTR [ebp-0xc],0x1
  403a5b:	c7 45 f0 4f 00 00 00 	mov    DWORD PTR [ebp-0x10],0x4f
  403a62:	8b 55 f4             	mov    edx,DWORD PTR [ebp-0xc]
  403a65:	8b 45 08             	mov    eax,DWORD PTR [ebp+0x8]
  403a68:	01 d0                	add    eax,edx
  403a6a:	0f b6 00             	movzx  eax,BYTE PTR [eax]
  403a6d:	83 f0 21             	xor    eax,0x21
  403a70:	0f be c0             	movsx  eax,al
  403a73:	3b 45 f0             	cmp    eax,DWORD PTR [ebp-0x10]
  403a76:	74 0b                	je     403a83 <_check+0x256f>
  403a78:	8b 45 f4             	mov    eax,DWORD PTR [ebp-0xc]
  403a7b:	89 04 24             	mov    DWORD PTR [esp],eax
  403a7e:	e8 bd d8 ff ff       	call   401340 <_badboy>
  403a83:	83 45 f4 01          	add    DWORD PTR [ebp-0xc],0x1
  403a87:	c7 45 f0 e6 00 00 00 	mov    DWORD PTR [ebp-0x10],0xe6
  403a8e:	8b 55 f4             	mov    edx,DWORD PTR [ebp-0xc]
  403a91:	8b 45 08             	mov    eax,DWORD PTR [ebp+0x8]
  403a94:	01 d0                	add    eax,edx
  403a96:	0f b6 00             	movzx  eax,BYTE PTR [eax]
  403a99:	0f be c0             	movsx  eax,al
  403a9c:	34 83                	xor    al,0x83
  403a9e:	3b 45 f0             	cmp    eax,DWORD PTR [ebp-0x10]
  403aa1:	74 0b                	je     403aae <_check+0x259a>
  403aa3:	8b 45 f4             	mov    eax,DWORD PTR [ebp-0xc]
  403aa6:	89 04 24             	mov    DWORD PTR [esp],eax
  403aa9:	e8 92 d8 ff ff       	call   401340 <_badboy>
  403aae:	83 45 f4 01          	add    DWORD PTR [ebp-0xc],0x1
  403ab2:	c7 45 f0 51 00 00 00 	mov    DWORD PTR [ebp-0x10],0x51
  403ab9:	8b 55 f4             	mov    edx,DWORD PTR [ebp-0xc]
  403abc:	8b 45 08             	mov    eax,DWORD PTR [ebp+0x8]
  403abf:	01 d0                	add    eax,edx
  403ac1:	0f b6 00             	movzx  eax,BYTE PTR [eax]
  403ac4:	83 f0 35             	xor    eax,0x35
  403ac7:	0f be c0             	movsx  eax,al
  403aca:	3b 45 f0             	cmp    eax,DWORD PTR [ebp-0x10]
  403acd:	74 0b                	je     403ada <_check+0x25c6>
  403acf:	8b 45 f4             	mov    eax,DWORD PTR [ebp-0xc]
  403ad2:	89 04 24             	mov    DWORD PTR [esp],eax
  403ad5:	e8 66 d8 ff ff       	call   401340 <_badboy>
  403ada:	83 45 f4 01          	add    DWORD PTR [ebp-0xc],0x1
  403ade:	c7 45 f0 de 00 00 00 	mov    DWORD PTR [ebp-0x10],0xde
  403ae5:	8b 55 f4             	mov    edx,DWORD PTR [ebp-0xc]
  403ae8:	8b 45 08             	mov    eax,DWORD PTR [ebp+0x8]
  403aeb:	01 d0                	add    eax,edx
  403aed:	0f b6 00             	movzx  eax,BYTE PTR [eax]
  403af0:	0f be c0             	movsx  eax,al
  403af3:	34 fe                	xor    al,0xfe
  403af5:	3b 45 f0             	cmp    eax,DWORD PTR [ebp-0x10]
  403af8:	74 0b                	je     403b05 <_check+0x25f1>
  403afa:	8b 45 f4             	mov    eax,DWORD PTR [ebp-0xc]
  403afd:	89 04 24             	mov    DWORD PTR [esp],eax
  403b00:	e8 3b d8 ff ff       	call   401340 <_badboy>
  403b05:	83 45 f4 01          	add    DWORD PTR [ebp-0xc],0x1
  403b09:	c7 45 f0 b2 00 00 00 	mov    DWORD PTR [ebp-0x10],0xb2
  403b10:	8b 55 f4             	mov    edx,DWORD PTR [ebp-0xc]
  403b13:	8b 45 08             	mov    eax,DWORD PTR [ebp+0x8]
  403b16:	01 d0                	add    eax,edx
  403b18:	0f b6 00             	movzx  eax,BYTE PTR [eax]
  403b1b:	0f be c0             	movsx  eax,al
  403b1e:	34 d4                	xor    al,0xd4
  403b20:	3b 45 f0             	cmp    eax,DWORD PTR [ebp-0x10]
  403b23:	74 0b                	je     403b30 <_check+0x261c>
  403b25:	8b 45 f4             	mov    eax,DWORD PTR [ebp-0xc]
  403b28:	89 04 24             	mov    DWORD PTR [esp],eax
  403b2b:	e8 10 d8 ff ff       	call   401340 <_badboy>
  403b30:	83 45 f4 01          	add    DWORD PTR [ebp-0xc],0x1
  403b34:	c7 45 f0 14 00 00 00 	mov    DWORD PTR [ebp-0x10],0x14
  403b3b:	8b 55 f4             	mov    edx,DWORD PTR [ebp-0xc]
  403b3e:	8b 45 08             	mov    eax,DWORD PTR [ebp+0x8]
  403b41:	01 d0                	add    eax,edx
  403b43:	0f b6 00             	movzx  eax,BYTE PTR [eax]
  403b46:	83 f0 7b             	xor    eax,0x7b
  403b49:	0f be c0             	movsx  eax,al
  403b4c:	3b 45 f0             	cmp    eax,DWORD PTR [ebp-0x10]
  403b4f:	74 0b                	je     403b5c <_check+0x2648>
  403b51:	8b 45 f4             	mov    eax,DWORD PTR [ebp-0xc]
  403b54:	89 04 24             	mov    DWORD PTR [esp],eax
  403b57:	e8 e4 d7 ff ff       	call   401340 <_badboy>
  403b5c:	83 45 f4 01          	add    DWORD PTR [ebp-0xc],0x1
  403b60:	c7 45 f0 7a 00 00 00 	mov    DWORD PTR [ebp-0x10],0x7a
  403b67:	8b 55 f4             	mov    edx,DWORD PTR [ebp-0xc]
  403b6a:	8b 45 08             	mov    eax,DWORD PTR [ebp+0x8]
  403b6d:	01 d0                	add    eax,edx
  403b6f:	0f b6 00             	movzx  eax,BYTE PTR [eax]
  403b72:	83 f0 08             	xor    eax,0x8
  403b75:	0f be c0             	movsx  eax,al
  403b78:	3b 45 f0             	cmp    eax,DWORD PTR [ebp-0x10]
  403b7b:	74 0b                	je     403b88 <_check+0x2674>
  403b7d:	8b 45 f4             	mov    eax,DWORD PTR [ebp-0xc]
  403b80:	89 04 24             	mov    DWORD PTR [esp],eax
  403b83:	e8 b8 d7 ff ff       	call   401340 <_badboy>
  403b88:	83 45 f4 01          	add    DWORD PTR [ebp-0xc],0x1
  403b8c:	c7 45 f0 87 00 00 00 	mov    DWORD PTR [ebp-0x10],0x87
  403b93:	8b 55 f4             	mov    edx,DWORD PTR [ebp-0xc]
  403b96:	8b 45 08             	mov    eax,DWORD PTR [ebp+0x8]
  403b99:	01 d0                	add    eax,edx
  403b9b:	0f b6 00             	movzx  eax,BYTE PTR [eax]
  403b9e:	0f be c0             	movsx  eax,al
  403ba1:	34 a7                	xor    al,0xa7
  403ba3:	3b 45 f0             	cmp    eax,DWORD PTR [ebp-0x10]
  403ba6:	74 0b                	je     403bb3 <_check+0x269f>
  403ba8:	8b 45 f4             	mov    eax,DWORD PTR [ebp-0xc]
  403bab:	89 04 24             	mov    DWORD PTR [esp],eax
  403bae:	e8 8d d7 ff ff       	call   401340 <_badboy>
  403bb3:	83 45 f4 01          	add    DWORD PTR [ebp-0xc],0x1
  403bb7:	c7 45 f0 fd 00 00 00 	mov    DWORD PTR [ebp-0x10],0xfd
  403bbe:	8b 55 f4             	mov    edx,DWORD PTR [ebp-0xc]
  403bc1:	8b 45 08             	mov    eax,DWORD PTR [ebp+0x8]
  403bc4:	01 d0                	add    eax,edx
  403bc6:	0f b6 00             	movzx  eax,BYTE PTR [eax]
  403bc9:	0f be c0             	movsx  eax,al
  403bcc:	34 9c                	xor    al,0x9c
  403bce:	3b 45 f0             	cmp    eax,DWORD PTR [ebp-0x10]
  403bd1:	74 0b                	je     403bde <_check+0x26ca>
  403bd3:	8b 45 f4             	mov    eax,DWORD PTR [ebp-0xc]
  403bd6:	89 04 24             	mov    DWORD PTR [esp],eax
  403bd9:	e8 62 d7 ff ff       	call   401340 <_badboy>
  403bde:	83 45 f4 01          	add    DWORD PTR [ebp-0xc],0x1
  403be2:	c7 45 f0 e4 00 00 00 	mov    DWORD PTR [ebp-0x10],0xe4
  403be9:	8b 55 f4             	mov    edx,DWORD PTR [ebp-0xc]
  403bec:	8b 45 08             	mov    eax,DWORD PTR [ebp+0x8]
  403bef:	01 d0                	add    eax,edx
  403bf1:	0f b6 00             	movzx  eax,BYTE PTR [eax]
  403bf4:	0f be c0             	movsx  eax,al
  403bf7:	34 88                	xor    al,0x88
  403bf9:	3b 45 f0             	cmp    eax,DWORD PTR [ebp-0x10]
  403bfc:	74 0b                	je     403c09 <_check+0x26f5>
  403bfe:	8b 45 f4             	mov    eax,DWORD PTR [ebp-0xc]
  403c01:	89 04 24             	mov    DWORD PTR [esp],eax
  403c04:	e8 37 d7 ff ff       	call   401340 <_badboy>
  403c09:	83 45 f4 01          	add    DWORD PTR [ebp-0xc],0x1
  403c0d:	c7 45 f0 5f 00 00 00 	mov    DWORD PTR [ebp-0x10],0x5f
  403c14:	8b 55 f4             	mov    edx,DWORD PTR [ebp-0xc]
  403c17:	8b 45 08             	mov    eax,DWORD PTR [ebp+0x8]
  403c1a:	01 d0                	add    eax,edx
  403c1c:	0f b6 00             	movzx  eax,BYTE PTR [eax]
  403c1f:	83 f0 33             	xor    eax,0x33
  403c22:	0f be c0             	movsx  eax,al
  403c25:	3b 45 f0             	cmp    eax,DWORD PTR [ebp-0x10]
  403c28:	74 0b                	je     403c35 <_check+0x2721>
  403c2a:	8b 45 f4             	mov    eax,DWORD PTR [ebp-0xc]
  403c2d:	89 04 24             	mov    DWORD PTR [esp],eax
  403c30:	e8 0b d7 ff ff       	call   401340 <_badboy>
  403c35:	83 45 f4 01          	add    DWORD PTR [ebp-0xc],0x1
  403c39:	c7 45 f0 44 00 00 00 	mov    DWORD PTR [ebp-0x10],0x44
  403c40:	8b 55 f4             	mov    edx,DWORD PTR [ebp-0xc]
  403c43:	8b 45 08             	mov    eax,DWORD PTR [ebp+0x8]
  403c46:	01 d0                	add    eax,edx
  403c48:	0f b6 00             	movzx  eax,BYTE PTR [eax]
  403c4b:	83 f0 64             	xor    eax,0x64
  403c4e:	0f be c0             	movsx  eax,al
  403c51:	3b 45 f0             	cmp    eax,DWORD PTR [ebp-0x10]
  403c54:	74 0b                	je     403c61 <_check+0x274d>
  403c56:	8b 45 f4             	mov    eax,DWORD PTR [ebp-0xc]
  403c59:	89 04 24             	mov    DWORD PTR [esp],eax
  403c5c:	e8 df d6 ff ff       	call   401340 <_badboy>
  403c61:	83 45 f4 01          	add    DWORD PTR [ebp-0xc],0x1
  403c65:	c7 45 f0 30 00 00 00 	mov    DWORD PTR [ebp-0x10],0x30
  403c6c:	8b 55 f4             	mov    edx,DWORD PTR [ebp-0xc]
  403c6f:	8b 45 08             	mov    eax,DWORD PTR [ebp+0x8]
  403c72:	01 d0                	add    eax,edx
  403c74:	0f b6 00             	movzx  eax,BYTE PTR [eax]
  403c77:	83 f0 43             	xor    eax,0x43
  403c7a:	0f be c0             	movsx  eax,al
  403c7d:	3b 45 f0             	cmp    eax,DWORD PTR [ebp-0x10]
  403c80:	74 0b                	je     403c8d <_check+0x2779>
  403c82:	8b 45 f4             	mov    eax,DWORD PTR [ebp-0xc]
  403c85:	89 04 24             	mov    DWORD PTR [esp],eax
  403c88:	e8 b3 d6 ff ff       	call   401340 <_badboy>
  403c8d:	83 45 f4 01          	add    DWORD PTR [ebp-0xc],0x1
  403c91:	c7 45 f0 e7 00 00 00 	mov    DWORD PTR [ebp-0x10],0xe7
  403c98:	8b 55 f4             	mov    edx,DWORD PTR [ebp-0xc]
  403c9b:	8b 45 08             	mov    eax,DWORD PTR [ebp+0x8]
  403c9e:	01 d0                	add    eax,edx
  403ca0:	0f b6 00             	movzx  eax,BYTE PTR [eax]
  403ca3:	0f be c0             	movsx  eax,al
  403ca6:	34 8e                	xor    al,0x8e
  403ca8:	3b 45 f0             	cmp    eax,DWORD PTR [ebp-0x10]
  403cab:	74 0b                	je     403cb8 <_check+0x27a4>
  403cad:	8b 45 f4             	mov    eax,DWORD PTR [ebp-0xc]
  403cb0:	89 04 24             	mov    DWORD PTR [esp],eax
  403cb3:	e8 88 d6 ff ff       	call   401340 <_badboy>
  403cb8:	83 45 f4 01          	add    DWORD PTR [ebp-0xc],0x1
  403cbc:	c7 45 f0 d3 00 00 00 	mov    DWORD PTR [ebp-0x10],0xd3
  403cc3:	8b 55 f4             	mov    edx,DWORD PTR [ebp-0xc]
  403cc6:	8b 45 08             	mov    eax,DWORD PTR [ebp+0x8]
  403cc9:	01 d0                	add    eax,edx
  403ccb:	0f b6 00             	movzx  eax,BYTE PTR [eax]
  403cce:	0f be c0             	movsx  eax,al
  403cd1:	34 ab                	xor    al,0xab
  403cd3:	3b 45 f0             	cmp    eax,DWORD PTR [ebp-0x10]
  403cd6:	74 0b                	je     403ce3 <_check+0x27cf>
  403cd8:	8b 45 f4             	mov    eax,DWORD PTR [ebp-0xc]
  403cdb:	89 04 24             	mov    DWORD PTR [esp],eax
  403cde:	e8 5d d6 ff ff       	call   401340 <_badboy>
  403ce3:	83 45 f4 01          	add    DWORD PTR [ebp-0xc],0x1
  403ce7:	c7 45 f0 3f 00 00 00 	mov    DWORD PTR [ebp-0x10],0x3f
  403cee:	8b 55 f4             	mov    edx,DWORD PTR [ebp-0xc]
  403cf1:	8b 45 08             	mov    eax,DWORD PTR [ebp+0x8]
  403cf4:	01 d0                	add    eax,edx
  403cf6:	0f b6 00             	movzx  eax,BYTE PTR [eax]
  403cf9:	83 f0 1f             	xor    eax,0x1f
  403cfc:	0f be c0             	movsx  eax,al
  403cff:	3b 45 f0             	cmp    eax,DWORD PTR [ebp-0x10]
  403d02:	74 0b                	je     403d0f <_check+0x27fb>
  403d04:	8b 45 f4             	mov    eax,DWORD PTR [ebp-0xc]
  403d07:	89 04 24             	mov    DWORD PTR [esp],eax
  403d0a:	e8 31 d6 ff ff       	call   401340 <_badboy>
  403d0f:	83 45 f4 01          	add    DWORD PTR [ebp-0xc],0x1
  403d13:	c7 45 f0 a1 00 00 00 	mov    DWORD PTR [ebp-0x10],0xa1
  403d1a:	8b 55 f4             	mov    edx,DWORD PTR [ebp-0xc]
  403d1d:	8b 45 08             	mov    eax,DWORD PTR [ebp+0x8]
  403d20:	01 d0                	add    eax,edx
  403d22:	0f b6 00             	movzx  eax,BYTE PTR [eax]
  403d25:	0f be c0             	movsx  eax,al
  403d28:	34 d2                	xor    al,0xd2
  403d2a:	3b 45 f0             	cmp    eax,DWORD PTR [ebp-0x10]
  403d2d:	74 0b                	je     403d3a <_check+0x2826>
  403d2f:	8b 45 f4             	mov    eax,DWORD PTR [ebp-0xc]
  403d32:	89 04 24             	mov    DWORD PTR [esp],eax
  403d35:	e8 06 d6 ff ff       	call   401340 <_badboy>
  403d3a:	83 45 f4 01          	add    DWORD PTR [ebp-0xc],0x1
  403d3e:	c7 45 f0 a1 00 00 00 	mov    DWORD PTR [ebp-0x10],0xa1
  403d45:	8b 55 f4             	mov    edx,DWORD PTR [ebp-0xc]
  403d48:	8b 45 08             	mov    eax,DWORD PTR [ebp+0x8]
  403d4b:	01 d0                	add    eax,edx
  403d4d:	0f b6 00             	movzx  eax,BYTE PTR [eax]
  403d50:	0f be c0             	movsx  eax,al
  403d53:	34 c4                	xor    al,0xc4
  403d55:	3b 45 f0             	cmp    eax,DWORD PTR [ebp-0x10]
  403d58:	74 0b                	je     403d65 <_check+0x2851>
  403d5a:	8b 45 f4             	mov    eax,DWORD PTR [ebp-0xc]
  403d5d:	89 04 24             	mov    DWORD PTR [esp],eax
  403d60:	e8 db d5 ff ff       	call   401340 <_badboy>
  403d65:	83 45 f4 01          	add    DWORD PTR [ebp-0xc],0x1
  403d69:	c7 45 f0 6e 00 00 00 	mov    DWORD PTR [ebp-0x10],0x6e
  403d70:	8b 55 f4             	mov    edx,DWORD PTR [ebp-0xc]
  403d73:	8b 45 08             	mov    eax,DWORD PTR [ebp+0x8]
  403d76:	01 d0                	add    eax,edx
  403d78:	0f b6 00             	movzx  eax,BYTE PTR [eax]
  403d7b:	83 f0 1f             	xor    eax,0x1f
  403d7e:	0f be c0             	movsx  eax,al
  403d81:	3b 45 f0             	cmp    eax,DWORD PTR [ebp-0x10]
  403d84:	74 0b                	je     403d91 <_check+0x287d>
  403d86:	8b 45 f4             	mov    eax,DWORD PTR [ebp-0xc]
  403d89:	89 04 24             	mov    DWORD PTR [esp],eax
  403d8c:	e8 af d5 ff ff       	call   401340 <_badboy>
  403d91:	83 45 f4 01          	add    DWORD PTR [ebp-0xc],0x1
  403d95:	c7 45 f0 88 00 00 00 	mov    DWORD PTR [ebp-0x10],0x88
  403d9c:	8b 55 f4             	mov    edx,DWORD PTR [ebp-0xc]
  403d9f:	8b 45 08             	mov    eax,DWORD PTR [ebp+0x8]
  403da2:	01 d0                	add    eax,edx
  403da4:	0f b6 00             	movzx  eax,BYTE PTR [eax]
  403da7:	0f be c0             	movsx  eax,al
  403daa:	34 fd                	xor    al,0xfd
  403dac:	3b 45 f0             	cmp    eax,DWORD PTR [ebp-0x10]
  403daf:	74 0b                	je     403dbc <_check+0x28a8>
  403db1:	8b 45 f4             	mov    eax,DWORD PTR [ebp-0xc]
  403db4:	89 04 24             	mov    DWORD PTR [esp],eax
  403db7:	e8 84 d5 ff ff       	call   401340 <_badboy>
  403dbc:	83 45 f4 01          	add    DWORD PTR [ebp-0xc],0x1
  403dc0:	c7 45 f0 63 00 00 00 	mov    DWORD PTR [ebp-0x10],0x63
  403dc7:	8b 55 f4             	mov    edx,DWORD PTR [ebp-0xc]
  403dca:	8b 45 08             	mov    eax,DWORD PTR [ebp+0x8]
  403dcd:	01 d0                	add    eax,edx
  403dcf:	0f b6 00             	movzx  eax,BYTE PTR [eax]
  403dd2:	83 f0 06             	xor    eax,0x6
  403dd5:	0f be c0             	movsx  eax,al
  403dd8:	3b 45 f0             	cmp    eax,DWORD PTR [ebp-0x10]
  403ddb:	74 0b                	je     403de8 <_check+0x28d4>
  403ddd:	8b 45 f4             	mov    eax,DWORD PTR [ebp-0xc]
  403de0:	89 04 24             	mov    DWORD PTR [esp],eax
  403de3:	e8 58 d5 ff ff       	call   401340 <_badboy>
  403de8:	83 45 f4 01          	add    DWORD PTR [ebp-0xc],0x1
  403dec:	c7 45 f0 3c 00 00 00 	mov    DWORD PTR [ebp-0x10],0x3c
  403df3:	8b 55 f4             	mov    edx,DWORD PTR [ebp-0xc]
  403df6:	8b 45 08             	mov    eax,DWORD PTR [ebp+0x8]
  403df9:	01 d0                	add    eax,edx
  403dfb:	0f b6 00             	movzx  eax,BYTE PTR [eax]
  403dfe:	83 f0 50             	xor    eax,0x50
  403e01:	0f be c0             	movsx  eax,al
  403e04:	3b 45 f0             	cmp    eax,DWORD PTR [ebp-0x10]
  403e07:	74 0b                	je     403e14 <_check+0x2900>
  403e09:	8b 45 f4             	mov    eax,DWORD PTR [ebp-0xc]
  403e0c:	89 04 24             	mov    DWORD PTR [esp],eax
  403e0f:	e8 2c d5 ff ff       	call   401340 <_badboy>
  403e14:	83 45 f4 01          	add    DWORD PTR [ebp-0xc],0x1
  403e18:	c7 45 f0 32 00 00 00 	mov    DWORD PTR [ebp-0x10],0x32
  403e1f:	8b 55 f4             	mov    edx,DWORD PTR [ebp-0xc]
  403e22:	8b 45 08             	mov    eax,DWORD PTR [ebp+0x8]
  403e25:	01 d0                	add    eax,edx
  403e27:	0f b6 00             	movzx  eax,BYTE PTR [eax]
  403e2a:	83 f0 41             	xor    eax,0x41
  403e2d:	0f be c0             	movsx  eax,al
  403e30:	3b 45 f0             	cmp    eax,DWORD PTR [ebp-0x10]
  403e33:	74 0b                	je     403e40 <_check+0x292c>
  403e35:	8b 45 f4             	mov    eax,DWORD PTR [ebp-0xc]
  403e38:	89 04 24             	mov    DWORD PTR [esp],eax
  403e3b:	e8 00 d5 ff ff       	call   401340 <_badboy>
  403e40:	83 45 f4 01          	add    DWORD PTR [ebp-0xc],0x1
  403e44:	c7 45 f0 f5 00 00 00 	mov    DWORD PTR [ebp-0x10],0xf5
  403e4b:	8b 55 f4             	mov    edx,DWORD PTR [ebp-0xc]
  403e4e:	8b 45 08             	mov    eax,DWORD PTR [ebp+0x8]
  403e51:	01 d0                	add    eax,edx
  403e53:	0f b6 00             	movzx  eax,BYTE PTR [eax]
  403e56:	0f be c0             	movsx  eax,al
  403e59:	34 cf                	xor    al,0xcf
  403e5b:	3b 45 f0             	cmp    eax,DWORD PTR [ebp-0x10]
  403e5e:	74 0b                	je     403e6b <_check+0x2957>
  403e60:	8b 45 f4             	mov    eax,DWORD PTR [ebp-0xc]
  403e63:	89 04 24             	mov    DWORD PTR [esp],eax
  403e66:	e8 d5 d4 ff ff       	call   401340 <_badboy>
  403e6b:	83 45 f4 01          	add    DWORD PTR [ebp-0xc],0x1
  403e6f:	c7 45 f0 31 00 00 00 	mov    DWORD PTR [ebp-0x10],0x31
  403e76:	8b 55 f4             	mov    edx,DWORD PTR [ebp-0xc]
  403e79:	8b 45 08             	mov    eax,DWORD PTR [ebp+0x8]
  403e7c:	01 d0                	add    eax,edx
  403e7e:	0f b6 00             	movzx  eax,BYTE PTR [eax]
  403e81:	83 f0 11             	xor    eax,0x11
  403e84:	0f be c0             	movsx  eax,al
  403e87:	3b 45 f0             	cmp    eax,DWORD PTR [ebp-0x10]
  403e8a:	74 0b                	je     403e97 <_check+0x2983>
  403e8c:	8b 45 f4             	mov    eax,DWORD PTR [ebp-0xc]
  403e8f:	89 04 24             	mov    DWORD PTR [esp],eax
  403e92:	e8 a9 d4 ff ff       	call   401340 <_badboy>
  403e97:	83 45 f4 01          	add    DWORD PTR [ebp-0xc],0x1
  403e9b:	c7 45 f0 92 00 00 00 	mov    DWORD PTR [ebp-0x10],0x92
  403ea2:	8b 55 f4             	mov    edx,DWORD PTR [ebp-0xc]
  403ea5:	8b 45 08             	mov    eax,DWORD PTR [ebp+0x8]
  403ea8:	01 d0                	add    eax,edx
  403eaa:	0f b6 00             	movzx  eax,BYTE PTR [eax]
  403ead:	0f be c0             	movsx  eax,al
  403eb0:	34 c1                	xor    al,0xc1
  403eb2:	3b 45 f0             	cmp    eax,DWORD PTR [ebp-0x10]
  403eb5:	74 0b                	je     403ec2 <_check+0x29ae>
  403eb7:	8b 45 f4             	mov    eax,DWORD PTR [ebp-0xc]
  403eba:	89 04 24             	mov    DWORD PTR [esp],eax
  403ebd:	e8 7e d4 ff ff       	call   401340 <_badboy>
  403ec2:	83 45 f4 01          	add    DWORD PTR [ebp-0xc],0x1
  403ec6:	c7 45 f0 2e 00 00 00 	mov    DWORD PTR [ebp-0x10],0x2e
  403ecd:	8b 55 f4             	mov    edx,DWORD PTR [ebp-0xc]
  403ed0:	8b 45 08             	mov    eax,DWORD PTR [ebp+0x8]
  403ed3:	01 d0                	add    eax,edx
  403ed5:	0f b6 00             	movzx  eax,BYTE PTR [eax]
  403ed8:	83 f0 41             	xor    eax,0x41
  403edb:	0f be c0             	movsx  eax,al
  403ede:	3b 45 f0             	cmp    eax,DWORD PTR [ebp-0x10]
  403ee1:	74 0b                	je     403eee <_check+0x29da>
  403ee3:	8b 45 f4             	mov    eax,DWORD PTR [ebp-0xc]
  403ee6:	89 04 24             	mov    DWORD PTR [esp],eax
  403ee9:	e8 52 d4 ff ff       	call   401340 <_badboy>
  403eee:	83 45 f4 01          	add    DWORD PTR [ebp-0xc],0x1
  403ef2:	c7 45 f0 2d 00 00 00 	mov    DWORD PTR [ebp-0x10],0x2d
  403ef9:	8b 55 f4             	mov    edx,DWORD PTR [ebp-0xc]
  403efc:	8b 45 08             	mov    eax,DWORD PTR [ebp+0x8]
  403eff:	01 d0                	add    eax,edx
  403f01:	0f b6 00             	movzx  eax,BYTE PTR [eax]
  403f04:	83 f0 58             	xor    eax,0x58
  403f07:	0f be c0             	movsx  eax,al
  403f0a:	3b 45 f0             	cmp    eax,DWORD PTR [ebp-0x10]
  403f0d:	74 0b                	je     403f1a <_check+0x2a06>
  403f0f:	8b 45 f4             	mov    eax,DWORD PTR [ebp-0xc]
  403f12:	89 04 24             	mov    DWORD PTR [esp],eax
  403f15:	e8 26 d4 ff ff       	call   401340 <_badboy>
  403f1a:	83 45 f4 01          	add    DWORD PTR [ebp-0xc],0x1
  403f1e:	c7 45 f0 a8 00 00 00 	mov    DWORD PTR [ebp-0x10],0xa8
  403f25:	8b 55 f4             	mov    edx,DWORD PTR [ebp-0xc]
  403f28:	8b 45 08             	mov    eax,DWORD PTR [ebp+0x8]
  403f2b:	01 d0                	add    eax,edx
  403f2d:	0f b6 00             	movzx  eax,BYTE PTR [eax]
  403f30:	0f be c0             	movsx  eax,al
  403f33:	34 c4                	xor    al,0xc4
  403f35:	3b 45 f0             	cmp    eax,DWORD PTR [ebp-0x10]
  403f38:	74 0b                	je     403f45 <_check+0x2a31>
  403f3a:	8b 45 f4             	mov    eax,DWORD PTR [ebp-0xc]
  403f3d:	89 04 24             	mov    DWORD PTR [esp],eax
  403f40:	e8 fb d3 ff ff       	call   401340 <_badboy>
  403f45:	83 45 f4 01          	add    DWORD PTR [ebp-0xc],0x1
  403f49:	c7 45 f0 64 00 00 00 	mov    DWORD PTR [ebp-0x10],0x64
  403f50:	8b 55 f4             	mov    edx,DWORD PTR [ebp-0xc]
  403f53:	8b 45 08             	mov    eax,DWORD PTR [ebp+0x8]
  403f56:	01 d0                	add    eax,edx
  403f58:	0f b6 00             	movzx  eax,BYTE PTR [eax]
  403f5b:	83 f0 07             	xor    eax,0x7
  403f5e:	0f be c0             	movsx  eax,al
  403f61:	3b 45 f0             	cmp    eax,DWORD PTR [ebp-0x10]
  403f64:	74 0b                	je     403f71 <_check+0x2a5d>
  403f66:	8b 45 f4             	mov    eax,DWORD PTR [ebp-0xc]
  403f69:	89 04 24             	mov    DWORD PTR [esp],eax
  403f6c:	e8 cf d3 ff ff       	call   401340 <_badboy>
  403f71:	83 45 f4 01          	add    DWORD PTR [ebp-0xc],0x1
  403f75:	c7 45 f0 d1 00 00 00 	mov    DWORD PTR [ebp-0x10],0xd1
  403f7c:	8b 55 f4             	mov    edx,DWORD PTR [ebp-0xc]
  403f7f:	8b 45 08             	mov    eax,DWORD PTR [ebp+0x8]
  403f82:	01 d0                	add    eax,edx
  403f84:	0f b6 00             	movzx  eax,BYTE PTR [eax]
  403f87:	0f be c0             	movsx  eax,al
  403f8a:	34 b0                	xor    al,0xb0
  403f8c:	3b 45 f0             	cmp    eax,DWORD PTR [ebp-0x10]
  403f8f:	74 0b                	je     403f9c <_check+0x2a88>
  403f91:	8b 45 f4             	mov    eax,DWORD PTR [ebp-0xc]
  403f94:	89 04 24             	mov    DWORD PTR [esp],eax
  403f97:	e8 a4 d3 ff ff       	call   401340 <_badboy>
  403f9c:	83 45 f4 01          	add    DWORD PTR [ebp-0xc],0x1
  403fa0:	c7 45 f0 a6 00 00 00 	mov    DWORD PTR [ebp-0x10],0xa6
  403fa7:	8b 55 f4             	mov    edx,DWORD PTR [ebp-0xc]
  403faa:	8b 45 08             	mov    eax,DWORD PTR [ebp+0x8]
  403fad:	01 d0                	add    eax,edx
  403faf:	0f b6 00             	movzx  eax,BYTE PTR [eax]
  403fb2:	0f be c0             	movsx  eax,al
  403fb5:	34 ca                	xor    al,0xca
  403fb7:	3b 45 f0             	cmp    eax,DWORD PTR [ebp-0x10]
  403fba:	74 0b                	je     403fc7 <_check+0x2ab3>
  403fbc:	8b 45 f4             	mov    eax,DWORD PTR [ebp-0xc]
  403fbf:	89 04 24             	mov    DWORD PTR [esp],eax
  403fc2:	e8 79 d3 ff ff       	call   401340 <_badboy>
  403fc7:	83 45 f4 01          	add    DWORD PTR [ebp-0xc],0x1
  403fcb:	c7 45 f0 99 00 00 00 	mov    DWORD PTR [ebp-0x10],0x99
  403fd2:	8b 55 f4             	mov    edx,DWORD PTR [ebp-0xc]
  403fd5:	8b 45 08             	mov    eax,DWORD PTR [ebp+0x8]
  403fd8:	01 d0                	add    eax,edx
  403fda:	0f b6 00             	movzx  eax,BYTE PTR [eax]
  403fdd:	0f be c0             	movsx  eax,al
  403fe0:	34 f0                	xor    al,0xf0
  403fe2:	3b 45 f0             	cmp    eax,DWORD PTR [ebp-0x10]
  403fe5:	74 0b                	je     403ff2 <_check+0x2ade>
  403fe7:	8b 45 f4             	mov    eax,DWORD PTR [ebp-0xc]
  403fea:	89 04 24             	mov    DWORD PTR [esp],eax
  403fed:	e8 4e d3 ff ff       	call   401340 <_badboy>
  403ff2:	83 45 f4 01          	add    DWORD PTR [ebp-0xc],0x1
  403ff6:	c7 45 f0 f7 00 00 00 	mov    DWORD PTR [ebp-0x10],0xf7
  403ffd:	8b 55 f4             	mov    edx,DWORD PTR [ebp-0xc]
  404000:	8b 45 08             	mov    eax,DWORD PTR [ebp+0x8]
  404003:	01 d0                	add    eax,edx
  404005:	0f b6 00             	movzx  eax,BYTE PTR [eax]
  404008:	0f be c0             	movsx  eax,al
  40400b:	34 95                	xor    al,0x95
  40400d:	3b 45 f0             	cmp    eax,DWORD PTR [ebp-0x10]
  404010:	74 0b                	je     40401d <_check+0x2b09>
  404012:	8b 45 f4             	mov    eax,DWORD PTR [ebp-0xc]
  404015:	89 04 24             	mov    DWORD PTR [esp],eax
  404018:	e8 23 d3 ff ff       	call   401340 <_badboy>
  40401d:	83 45 f4 01          	add    DWORD PTR [ebp-0xc],0x1
  404021:	c7 45 f0 6f 00 00 00 	mov    DWORD PTR [ebp-0x10],0x6f
  404028:	8b 55 f4             	mov    edx,DWORD PTR [ebp-0xc]
  40402b:	8b 45 08             	mov    eax,DWORD PTR [ebp+0x8]
  40402e:	01 d0                	add    eax,edx
  404030:	0f b6 00             	movzx  eax,BYTE PTR [eax]
  404033:	83 f0 1a             	xor    eax,0x1a
  404036:	0f be c0             	movsx  eax,al
  404039:	3b 45 f0             	cmp    eax,DWORD PTR [ebp-0x10]
  40403c:	74 0b                	je     404049 <_check+0x2b35>
  40403e:	8b 45 f4             	mov    eax,DWORD PTR [ebp-0xc]
  404041:	89 04 24             	mov    DWORD PTR [esp],eax
  404044:	e8 f7 d2 ff ff       	call   401340 <_badboy>
  404049:	83 45 f4 01          	add    DWORD PTR [ebp-0xc],0x1
  40404d:	c7 45 f0 44 00 00 00 	mov    DWORD PTR [ebp-0x10],0x44
  404054:	8b 55 f4             	mov    edx,DWORD PTR [ebp-0xc]
  404057:	8b 45 08             	mov    eax,DWORD PTR [ebp+0x8]
  40405a:	01 d0                	add    eax,edx
  40405c:	0f b6 00             	movzx  eax,BYTE PTR [eax]
  40405f:	83 f0 36             	xor    eax,0x36
  404062:	0f be c0             	movsx  eax,al
  404065:	3b 45 f0             	cmp    eax,DWORD PTR [ebp-0x10]
  404068:	74 0b                	je     404075 <_check+0x2b61>
  40406a:	8b 45 f4             	mov    eax,DWORD PTR [ebp-0xc]
  40406d:	89 04 24             	mov    DWORD PTR [esp],eax
  404070:	e8 cb d2 ff ff       	call   401340 <_badboy>
  404075:	83 45 f4 01          	add    DWORD PTR [ebp-0xc],0x1
  404079:	c7 45 f0 e1 00 00 00 	mov    DWORD PTR [ebp-0x10],0xe1
  404080:	8b 55 f4             	mov    edx,DWORD PTR [ebp-0xc]
  404083:	8b 45 08             	mov    eax,DWORD PTR [ebp+0x8]
  404086:	01 d0                	add    eax,edx
  404088:	0f b6 00             	movzx  eax,BYTE PTR [eax]
  40408b:	0f be c0             	movsx  eax,al
  40408e:	34 cd                	xor    al,0xcd
  404090:	3b 45 f0             	cmp    eax,DWORD PTR [ebp-0x10]
  404093:	74 0b                	je     4040a0 <_check+0x2b8c>
  404095:	8b 45 f4             	mov    eax,DWORD PTR [ebp-0xc]
  404098:	89 04 24             	mov    DWORD PTR [esp],eax
  40409b:	e8 a0 d2 ff ff       	call   401340 <_badboy>
  4040a0:	83 45 f4 01          	add    DWORD PTR [ebp-0xc],0x1
  4040a4:	c7 45 f0 e3 00 00 00 	mov    DWORD PTR [ebp-0x10],0xe3
  4040ab:	8b 55 f4             	mov    edx,DWORD PTR [ebp-0xc]
  4040ae:	8b 45 08             	mov    eax,DWORD PTR [ebp+0x8]
  4040b1:	01 d0                	add    eax,edx
  4040b3:	0f b6 00             	movzx  eax,BYTE PTR [eax]
  4040b6:	0f be c0             	movsx  eax,al
  4040b9:	34 c3                	xor    al,0xc3
  4040bb:	3b 45 f0             	cmp    eax,DWORD PTR [ebp-0x10]
  4040be:	74 0b                	je     4040cb <_check+0x2bb7>
  4040c0:	8b 45 f4             	mov    eax,DWORD PTR [ebp-0xc]
  4040c3:	89 04 24             	mov    DWORD PTR [esp],eax
  4040c6:	e8 75 d2 ff ff       	call   401340 <_badboy>
  4040cb:	83 45 f4 01          	add    DWORD PTR [ebp-0xc],0x1
  4040cf:	c7 45 f0 ac 00 00 00 	mov    DWORD PTR [ebp-0x10],0xac
  4040d6:	8b 55 f4             	mov    edx,DWORD PTR [ebp-0xc]
  4040d9:	8b 45 08             	mov    eax,DWORD PTR [ebp+0x8]
  4040dc:	01 d0                	add    eax,edx
  4040de:	0f b6 00             	movzx  eax,BYTE PTR [eax]
  4040e1:	0f be c0             	movsx  eax,al
  4040e4:	34 ff                	xor    al,0xff
  4040e6:	3b 45 f0             	cmp    eax,DWORD PTR [ebp-0x10]
  4040e9:	74 0b                	je     4040f6 <_check+0x2be2>
  4040eb:	8b 45 f4             	mov    eax,DWORD PTR [ebp-0xc]
  4040ee:	89 04 24             	mov    DWORD PTR [esp],eax
  4040f1:	e8 4a d2 ff ff       	call   401340 <_badboy>
  4040f6:	83 45 f4 01          	add    DWORD PTR [ebp-0xc],0x1
  4040fa:	c7 45 f0 90 00 00 00 	mov    DWORD PTR [ebp-0x10],0x90
  404101:	8b 55 f4             	mov    edx,DWORD PTR [ebp-0xc]
  404104:	8b 45 08             	mov    eax,DWORD PTR [ebp+0x8]
  404107:	01 d0                	add    eax,edx
  404109:	0f b6 00             	movzx  eax,BYTE PTR [eax]
  40410c:	0f be c0             	movsx  eax,al
  40410f:	34 ff                	xor    al,0xff
  404111:	3b 45 f0             	cmp    eax,DWORD PTR [ebp-0x10]
  404114:	74 0b                	je     404121 <_check+0x2c0d>
  404116:	8b 45 f4             	mov    eax,DWORD PTR [ebp-0xc]
  404119:	89 04 24             	mov    DWORD PTR [esp],eax
  40411c:	e8 1f d2 ff ff       	call   401340 <_badboy>
  404121:	83 45 f4 01          	add    DWORD PTR [ebp-0xc],0x1
  404125:	c7 45 f0 ec 00 00 00 	mov    DWORD PTR [ebp-0x10],0xec
  40412c:	8b 55 f4             	mov    edx,DWORD PTR [ebp-0xc]
  40412f:	8b 45 08             	mov    eax,DWORD PTR [ebp+0x8]
  404132:	01 d0                	add    eax,edx
  404134:	0f b6 00             	movzx  eax,BYTE PTR [eax]
  404137:	0f be c0             	movsx  eax,al
  40413a:	34 99                	xor    al,0x99
  40413c:	3b 45 f0             	cmp    eax,DWORD PTR [ebp-0x10]
  40413f:	74 0b                	je     40414c <_check+0x2c38>
  404141:	8b 45 f4             	mov    eax,DWORD PTR [ebp-0xc]
  404144:	89 04 24             	mov    DWORD PTR [esp],eax
  404147:	e8 f4 d1 ff ff       	call   401340 <_badboy>
  40414c:	83 45 f4 01          	add    DWORD PTR [ebp-0xc],0x1
  404150:	c7 45 f0 fe 00 00 00 	mov    DWORD PTR [ebp-0x10],0xfe
  404157:	8b 55 f4             	mov    edx,DWORD PTR [ebp-0xc]
  40415a:	8b 45 08             	mov    eax,DWORD PTR [ebp+0x8]
  40415d:	01 d0                	add    eax,edx
  40415f:	0f b6 00             	movzx  eax,BYTE PTR [eax]
  404162:	0f be c0             	movsx  eax,al
  404165:	34 92                	xor    al,0x92
  404167:	3b 45 f0             	cmp    eax,DWORD PTR [ebp-0x10]
  40416a:	74 0b                	je     404177 <_check+0x2c63>
  40416c:	8b 45 f4             	mov    eax,DWORD PTR [ebp-0xc]
  40416f:	89 04 24             	mov    DWORD PTR [esp],eax
  404172:	e8 c9 d1 ff ff       	call   401340 <_badboy>
  404177:	83 45 f4 01          	add    DWORD PTR [ebp-0xc],0x1
  40417b:	c7 45 f0 20 00 00 00 	mov    DWORD PTR [ebp-0x10],0x20
  404182:	8b 55 f4             	mov    edx,DWORD PTR [ebp-0xc]
  404185:	8b 45 08             	mov    eax,DWORD PTR [ebp+0x8]
  404188:	01 d0                	add    eax,edx
  40418a:	0f b6 00             	movzx  eax,BYTE PTR [eax]
  40418d:	83 f0 43             	xor    eax,0x43
  404190:	0f be c0             	movsx  eax,al
  404193:	3b 45 f0             	cmp    eax,DWORD PTR [ebp-0x10]
  404196:	74 0b                	je     4041a3 <_check+0x2c8f>
  404198:	8b 45 f4             	mov    eax,DWORD PTR [ebp-0xc]
  40419b:	89 04 24             	mov    DWORD PTR [esp],eax
  40419e:	e8 9d d1 ff ff       	call   401340 <_badboy>
  4041a3:	83 45 f4 01          	add    DWORD PTR [ebp-0xc],0x1
  4041a7:	c7 45 f0 7c 00 00 00 	mov    DWORD PTR [ebp-0x10],0x7c
  4041ae:	8b 55 f4             	mov    edx,DWORD PTR [ebp-0xc]
  4041b1:	8b 45 08             	mov    eax,DWORD PTR [ebp+0x8]
  4041b4:	01 d0                	add    eax,edx
  4041b6:	0f b6 00             	movzx  eax,BYTE PTR [eax]
  4041b9:	83 f0 1d             	xor    eax,0x1d
  4041bc:	0f be c0             	movsx  eax,al
  4041bf:	3b 45 f0             	cmp    eax,DWORD PTR [ebp-0x10]
  4041c2:	74 0b                	je     4041cf <_check+0x2cbb>
  4041c4:	8b 45 f4             	mov    eax,DWORD PTR [ebp-0xc]
  4041c7:	89 04 24             	mov    DWORD PTR [esp],eax
  4041ca:	e8 71 d1 ff ff       	call   401340 <_badboy>
  4041cf:	83 45 f4 01          	add    DWORD PTR [ebp-0xc],0x1
  4041d3:	c7 45 f0 1a 00 00 00 	mov    DWORD PTR [ebp-0x10],0x1a
  4041da:	8b 55 f4             	mov    edx,DWORD PTR [ebp-0xc]
  4041dd:	8b 45 08             	mov    eax,DWORD PTR [ebp+0x8]
  4041e0:	01 d0                	add    eax,edx
  4041e2:	0f b6 00             	movzx  eax,BYTE PTR [eax]
  4041e5:	83 f0 76             	xor    eax,0x76
  4041e8:	0f be c0             	movsx  eax,al
  4041eb:	3b 45 f0             	cmp    eax,DWORD PTR [ebp-0x10]
  4041ee:	74 0b                	je     4041fb <_check+0x2ce7>
  4041f0:	8b 45 f4             	mov    eax,DWORD PTR [ebp-0xc]
  4041f3:	89 04 24             	mov    DWORD PTR [esp],eax
  4041f6:	e8 45 d1 ff ff       	call   401340 <_badboy>
  4041fb:	83 45 f4 01          	add    DWORD PTR [ebp-0xc],0x1
  4041ff:	c7 45 f0 04 00 00 00 	mov    DWORD PTR [ebp-0x10],0x4
  404206:	8b 55 f4             	mov    edx,DWORD PTR [ebp-0xc]
  404209:	8b 45 08             	mov    eax,DWORD PTR [ebp+0x8]
  40420c:	01 d0                	add    eax,edx
  40420e:	0f b6 00             	movzx  eax,BYTE PTR [eax]
  404211:	83 f0 6d             	xor    eax,0x6d
  404214:	0f be c0             	movsx  eax,al
  404217:	3b 45 f0             	cmp    eax,DWORD PTR [ebp-0x10]
  40421a:	74 0b                	je     404227 <_check+0x2d13>
  40421c:	8b 45 f4             	mov    eax,DWORD PTR [ebp-0xc]
  40421f:	89 04 24             	mov    DWORD PTR [esp],eax
  404222:	e8 19 d1 ff ff       	call   401340 <_badboy>
  404227:	83 45 f4 01          	add    DWORD PTR [ebp-0xc],0x1
  40422b:	c7 45 f0 c6 00 00 00 	mov    DWORD PTR [ebp-0x10],0xc6
  404232:	8b 55 f4             	mov    edx,DWORD PTR [ebp-0xc]
  404235:	8b 45 08             	mov    eax,DWORD PTR [ebp+0x8]
  404238:	01 d0                	add    eax,edx
  40423a:	0f b6 00             	movzx  eax,BYTE PTR [eax]
  40423d:	0f be c0             	movsx  eax,al
  404240:	34 a4                	xor    al,0xa4
  404242:	3b 45 f0             	cmp    eax,DWORD PTR [ebp-0x10]
  404245:	74 0b                	je     404252 <_check+0x2d3e>
  404247:	8b 45 f4             	mov    eax,DWORD PTR [ebp-0xc]
  40424a:	89 04 24             	mov    DWORD PTR [esp],eax
  40424d:	e8 ee d0 ff ff       	call   401340 <_badboy>
  404252:	83 45 f4 01          	add    DWORD PTR [ebp-0xc],0x1
  404256:	c7 45 f0 dc 00 00 00 	mov    DWORD PTR [ebp-0x10],0xdc
  40425d:	8b 55 f4             	mov    edx,DWORD PTR [ebp-0xc]
  404260:	8b 45 08             	mov    eax,DWORD PTR [ebp+0x8]
  404263:	01 d0                	add    eax,edx
  404265:	0f b6 00             	movzx  eax,BYTE PTR [eax]
  404268:	0f be c0             	movsx  eax,al
  40426b:	34 a9                	xor    al,0xa9
  40426d:	3b 45 f0             	cmp    eax,DWORD PTR [ebp-0x10]
  404270:	74 0b                	je     40427d <_check+0x2d69>
  404272:	8b 45 f4             	mov    eax,DWORD PTR [ebp-0xc]
  404275:	89 04 24             	mov    DWORD PTR [esp],eax
  404278:	e8 c3 d0 ff ff       	call   401340 <_badboy>
  40427d:	83 45 f4 01          	add    DWORD PTR [ebp-0xc],0x1
  404281:	c7 45 f0 a8 00 00 00 	mov    DWORD PTR [ebp-0x10],0xa8
  404288:	8b 55 f4             	mov    edx,DWORD PTR [ebp-0xc]
  40428b:	8b 45 08             	mov    eax,DWORD PTR [ebp+0x8]
  40428e:	01 d0                	add    eax,edx
  404290:	0f b6 00             	movzx  eax,BYTE PTR [eax]
  404293:	0f be c0             	movsx  eax,al
  404296:	34 da                	xor    al,0xda
  404298:	3b 45 f0             	cmp    eax,DWORD PTR [ebp-0x10]
  40429b:	74 0b                	je     4042a8 <_check+0x2d94>
  40429d:	8b 45 f4             	mov    eax,DWORD PTR [ebp-0xc]
  4042a0:	89 04 24             	mov    DWORD PTR [esp],eax
  4042a3:	e8 98 d0 ff ff       	call   401340 <_badboy>
  4042a8:	83 45 f4 01          	add    DWORD PTR [ebp-0xc],0x1
  4042ac:	c7 45 f0 81 00 00 00 	mov    DWORD PTR [ebp-0x10],0x81
  4042b3:	8b 55 f4             	mov    edx,DWORD PTR [ebp-0xc]
  4042b6:	8b 45 08             	mov    eax,DWORD PTR [ebp+0x8]
  4042b9:	01 d0                	add    eax,edx
  4042bb:	0f b6 00             	movzx  eax,BYTE PTR [eax]
  4042be:	0f be c0             	movsx  eax,al
  4042c1:	34 a1                	xor    al,0xa1
  4042c3:	3b 45 f0             	cmp    eax,DWORD PTR [ebp-0x10]
  4042c6:	74 0b                	je     4042d3 <_check+0x2dbf>
  4042c8:	8b 45 f4             	mov    eax,DWORD PTR [ebp-0xc]
  4042cb:	89 04 24             	mov    DWORD PTR [esp],eax
  4042ce:	e8 6d d0 ff ff       	call   401340 <_badboy>
  4042d3:	83 45 f4 01          	add    DWORD PTR [ebp-0xc],0x1
  4042d7:	c7 45 f0 5a 00 00 00 	mov    DWORD PTR [ebp-0x10],0x5a
  4042de:	8b 55 f4             	mov    edx,DWORD PTR [ebp-0xc]
  4042e1:	8b 45 08             	mov    eax,DWORD PTR [ebp+0x8]
  4042e4:	01 d0                	add    eax,edx
  4042e6:	0f b6 00             	movzx  eax,BYTE PTR [eax]
  4042e9:	83 f0 13             	xor    eax,0x13
  4042ec:	0f be c0             	movsx  eax,al
  4042ef:	3b 45 f0             	cmp    eax,DWORD PTR [ebp-0x10]
  4042f2:	74 0b                	je     4042ff <_check+0x2deb>
  4042f4:	8b 45 f4             	mov    eax,DWORD PTR [ebp-0xc]
  4042f7:	89 04 24             	mov    DWORD PTR [esp],eax
  4042fa:	e8 41 d0 ff ff       	call   401340 <_badboy>
  4042ff:	83 45 f4 01          	add    DWORD PTR [ebp-0xc],0x1
  404303:	c7 45 f0 ca 00 00 00 	mov    DWORD PTR [ebp-0x10],0xca
  40430a:	8b 55 f4             	mov    edx,DWORD PTR [ebp-0xc]
  40430d:	8b 45 08             	mov    eax,DWORD PTR [ebp+0x8]
  404310:	01 d0                	add    eax,edx
  404312:	0f b6 00             	movzx  eax,BYTE PTR [eax]
  404315:	0f be c0             	movsx  eax,al
  404318:	34 83                	xor    al,0x83
  40431a:	3b 45 f0             	cmp    eax,DWORD PTR [ebp-0x10]
  40431d:	74 0b                	je     40432a <_check+0x2e16>
  40431f:	8b 45 f4             	mov    eax,DWORD PTR [ebp-0xc]
  404322:	89 04 24             	mov    DWORD PTR [esp],eax
  404325:	e8 16 d0 ff ff       	call   401340 <_badboy>
  40432a:	83 45 f4 01          	add    DWORD PTR [ebp-0xc],0x1
  40432e:	c7 45 f0 d4 00 00 00 	mov    DWORD PTR [ebp-0x10],0xd4
  404335:	8b 55 f4             	mov    edx,DWORD PTR [ebp-0xc]
  404338:	8b 45 08             	mov    eax,DWORD PTR [ebp+0x8]
  40433b:	01 d0                	add    eax,edx
  40433d:	0f b6 00             	movzx  eax,BYTE PTR [eax]
  404340:	0f be c0             	movsx  eax,al
  404343:	34 f8                	xor    al,0xf8
  404345:	3b 45 f0             	cmp    eax,DWORD PTR [ebp-0x10]
  404348:	74 0b                	je     404355 <_check+0x2e41>
  40434a:	8b 45 f4             	mov    eax,DWORD PTR [ebp-0xc]
  40434d:	89 04 24             	mov    DWORD PTR [esp],eax
  404350:	e8 eb cf ff ff       	call   401340 <_badboy>
  404355:	83 45 f4 01          	add    DWORD PTR [ebp-0xc],0x1
  404359:	c7 45 f0 9c 00 00 00 	mov    DWORD PTR [ebp-0x10],0x9c
  404360:	8b 55 f4             	mov    edx,DWORD PTR [ebp-0xc]
  404363:	8b 45 08             	mov    eax,DWORD PTR [ebp+0x8]
  404366:	01 d0                	add    eax,edx
  404368:	0f b6 00             	movzx  eax,BYTE PTR [eax]
  40436b:	0f be c0             	movsx  eax,al
  40436e:	34 bc                	xor    al,0xbc
  404370:	3b 45 f0             	cmp    eax,DWORD PTR [ebp-0x10]
  404373:	74 0b                	je     404380 <_check+0x2e6c>
  404375:	8b 45 f4             	mov    eax,DWORD PTR [ebp-0xc]
  404378:	89 04 24             	mov    DWORD PTR [esp],eax
  40437b:	e8 c0 cf ff ff       	call   401340 <_badboy>
  404380:	83 45 f4 01          	add    DWORD PTR [ebp-0xc],0x1
  404384:	c7 45 f0 93 00 00 00 	mov    DWORD PTR [ebp-0x10],0x93
  40438b:	8b 55 f4             	mov    edx,DWORD PTR [ebp-0xc]
  40438e:	8b 45 08             	mov    eax,DWORD PTR [ebp+0x8]
  404391:	01 d0                	add    eax,edx
  404393:	0f b6 00             	movzx  eax,BYTE PTR [eax]
  404396:	0f be c0             	movsx  eax,al
  404399:	34 c0                	xor    al,0xc0
  40439b:	3b 45 f0             	cmp    eax,DWORD PTR [ebp-0x10]
  40439e:	74 0b                	je     4043ab <_check+0x2e97>
  4043a0:	8b 45 f4             	mov    eax,DWORD PTR [ebp-0xc]
  4043a3:	89 04 24             	mov    DWORD PTR [esp],eax
  4043a6:	e8 95 cf ff ff       	call   401340 <_badboy>
  4043ab:	83 45 f4 01          	add    DWORD PTR [ebp-0xc],0x1
  4043af:	c7 45 f0 cc 00 00 00 	mov    DWORD PTR [ebp-0x10],0xcc
  4043b6:	8b 55 f4             	mov    edx,DWORD PTR [ebp-0xc]
  4043b9:	8b 45 08             	mov    eax,DWORD PTR [ebp+0x8]
  4043bc:	01 d0                	add    eax,edx
  4043be:	0f b6 00             	movzx  eax,BYTE PTR [eax]
  4043c1:	0f be c0             	movsx  eax,al
  4043c4:	34 a3                	xor    al,0xa3
  4043c6:	3b 45 f0             	cmp    eax,DWORD PTR [ebp-0x10]
  4043c9:	74 0b                	je     4043d6 <_check+0x2ec2>
  4043cb:	8b 45 f4             	mov    eax,DWORD PTR [ebp-0xc]
  4043ce:	89 04 24             	mov    DWORD PTR [esp],eax
  4043d1:	e8 6a cf ff ff       	call   401340 <_badboy>
  4043d6:	83 45 f4 01          	add    DWORD PTR [ebp-0xc],0x1
  4043da:	c7 45 f0 6e 00 00 00 	mov    DWORD PTR [ebp-0x10],0x6e
  4043e1:	8b 55 f4             	mov    edx,DWORD PTR [ebp-0xc]
  4043e4:	8b 45 08             	mov    eax,DWORD PTR [ebp+0x8]
  4043e7:	01 d0                	add    eax,edx
  4043e9:	0f b6 00             	movzx  eax,BYTE PTR [eax]
  4043ec:	83 f0 1b             	xor    eax,0x1b
  4043ef:	0f be c0             	movsx  eax,al
  4043f2:	3b 45 f0             	cmp    eax,DWORD PTR [ebp-0x10]
  4043f5:	74 0b                	je     404402 <_check+0x2eee>
  4043f7:	8b 45 f4             	mov    eax,DWORD PTR [ebp-0xc]
  4043fa:	89 04 24             	mov    DWORD PTR [esp],eax
  4043fd:	e8 3e cf ff ff       	call   401340 <_badboy>
  404402:	83 45 f4 01          	add    DWORD PTR [ebp-0xc],0x1
  404406:	c7 45 f0 b8 00 00 00 	mov    DWORD PTR [ebp-0x10],0xb8
  40440d:	8b 55 f4             	mov    edx,DWORD PTR [ebp-0xc]
  404410:	8b 45 08             	mov    eax,DWORD PTR [ebp+0x8]
  404413:	01 d0                	add    eax,edx
  404415:	0f b6 00             	movzx  eax,BYTE PTR [eax]
  404418:	0f be c0             	movsx  eax,al
  40441b:	34 d4                	xor    al,0xd4
  40441d:	3b 45 f0             	cmp    eax,DWORD PTR [ebp-0x10]
  404420:	74 0b                	je     40442d <_check+0x2f19>
  404422:	8b 45 f4             	mov    eax,DWORD PTR [ebp-0xc]
  404425:	89 04 24             	mov    DWORD PTR [esp],eax
  404428:	e8 13 cf ff ff       	call   401340 <_badboy>
  40442d:	83 45 f4 01          	add    DWORD PTR [ebp-0xc],0x1
  404431:	c7 45 f0 8a 00 00 00 	mov    DWORD PTR [ebp-0x10],0x8a
  404438:	8b 55 f4             	mov    edx,DWORD PTR [ebp-0xc]
  40443b:	8b 45 08             	mov    eax,DWORD PTR [ebp+0x8]
  40443e:	01 d0                	add    eax,edx
  404440:	0f b6 00             	movzx  eax,BYTE PTR [eax]
  404443:	0f be c0             	movsx  eax,al
  404446:	34 e9                	xor    al,0xe9
  404448:	3b 45 f0             	cmp    eax,DWORD PTR [ebp-0x10]
  40444b:	74 0b                	je     404458 <_check+0x2f44>
  40444d:	8b 45 f4             	mov    eax,DWORD PTR [ebp-0xc]
  404450:	89 04 24             	mov    DWORD PTR [esp],eax
  404453:	e8 e8 ce ff ff       	call   401340 <_badboy>
  404458:	83 45 f4 01          	add    DWORD PTR [ebp-0xc],0x1
  40445c:	c7 45 f0 6c 00 00 00 	mov    DWORD PTR [ebp-0x10],0x6c
  404463:	8b 55 f4             	mov    edx,DWORD PTR [ebp-0xc]
  404466:	8b 45 08             	mov    eax,DWORD PTR [ebp+0x8]
  404469:	01 d0                	add    eax,edx
  40446b:	0f b6 00             	movzx  eax,BYTE PTR [eax]
  40446e:	83 f0 0d             	xor    eax,0xd
  404471:	0f be c0             	movsx  eax,al
  404474:	3b 45 f0             	cmp    eax,DWORD PTR [ebp-0x10]
  404477:	74 0b                	je     404484 <_check+0x2f70>
  404479:	8b 45 f4             	mov    eax,DWORD PTR [ebp-0xc]
  40447c:	89 04 24             	mov    DWORD PTR [esp],eax
  40447f:	e8 bc ce ff ff       	call   401340 <_badboy>
  404484:	83 45 f4 01          	add    DWORD PTR [ebp-0xc],0x1
  404488:	c7 45 f0 52 00 00 00 	mov    DWORD PTR [ebp-0x10],0x52
  40448f:	8b 55 f4             	mov    edx,DWORD PTR [ebp-0xc]
  404492:	8b 45 08             	mov    eax,DWORD PTR [ebp+0x8]
  404495:	01 d0                	add    eax,edx
  404497:	0f b6 00             	movzx  eax,BYTE PTR [eax]
  40449a:	83 f0 3e             	xor    eax,0x3e
  40449d:	0f be c0             	movsx  eax,al
  4044a0:	3b 45 f0             	cmp    eax,DWORD PTR [ebp-0x10]
  4044a3:	74 0b                	je     4044b0 <_check+0x2f9c>
  4044a5:	8b 45 f4             	mov    eax,DWORD PTR [ebp-0xc]
  4044a8:	89 04 24             	mov    DWORD PTR [esp],eax
  4044ab:	e8 90 ce ff ff       	call   401340 <_badboy>
  4044b0:	83 45 f4 01          	add    DWORD PTR [ebp-0xc],0x1
  4044b4:	c7 45 f0 a0 00 00 00 	mov    DWORD PTR [ebp-0x10],0xa0
  4044bb:	8b 55 f4             	mov    edx,DWORD PTR [ebp-0xc]
  4044be:	8b 45 08             	mov    eax,DWORD PTR [ebp+0x8]
  4044c1:	01 d0                	add    eax,edx
  4044c3:	0f b6 00             	movzx  eax,BYTE PTR [eax]
  4044c6:	0f be c0             	movsx  eax,al
  4044c9:	34 c9                	xor    al,0xc9
  4044cb:	3b 45 f0             	cmp    eax,DWORD PTR [ebp-0x10]
  4044ce:	74 0b                	je     4044db <_check+0x2fc7>
  4044d0:	8b 45 f4             	mov    eax,DWORD PTR [ebp-0xc]
  4044d3:	89 04 24             	mov    DWORD PTR [esp],eax
  4044d6:	e8 65 ce ff ff       	call   401340 <_badboy>
  4044db:	83 45 f4 01          	add    DWORD PTR [ebp-0xc],0x1
  4044df:	c7 45 f0 97 00 00 00 	mov    DWORD PTR [ebp-0x10],0x97
  4044e6:	8b 55 f4             	mov    edx,DWORD PTR [ebp-0xc]
  4044e9:	8b 45 08             	mov    eax,DWORD PTR [ebp+0x8]
  4044ec:	01 d0                	add    eax,edx
  4044ee:	0f b6 00             	movzx  eax,BYTE PTR [eax]
  4044f1:	0f be c0             	movsx  eax,al
  4044f4:	34 f5                	xor    al,0xf5
  4044f6:	3b 45 f0             	cmp    eax,DWORD PTR [ebp-0x10]
  4044f9:	74 0b                	je     404506 <_check+0x2ff2>
  4044fb:	8b 45 f4             	mov    eax,DWORD PTR [ebp-0xc]
  4044fe:	89 04 24             	mov    DWORD PTR [esp],eax
  404501:	e8 3a ce ff ff       	call   401340 <_badboy>
  404506:	83 45 f4 01          	add    DWORD PTR [ebp-0xc],0x1
  40450a:	c7 45 f0 f7 00 00 00 	mov    DWORD PTR [ebp-0x10],0xf7
  404511:	8b 55 f4             	mov    edx,DWORD PTR [ebp-0xc]
  404514:	8b 45 08             	mov    eax,DWORD PTR [ebp+0x8]
  404517:	01 d0                	add    eax,edx
  404519:	0f b6 00             	movzx  eax,BYTE PTR [eax]
  40451c:	0f be c0             	movsx  eax,al
  40451f:	34 82                	xor    al,0x82
  404521:	3b 45 f0             	cmp    eax,DWORD PTR [ebp-0x10]
  404524:	74 0b                	je     404531 <_check+0x301d>
  404526:	8b 45 f4             	mov    eax,DWORD PTR [ebp-0xc]
  404529:	89 04 24             	mov    DWORD PTR [esp],eax
  40452c:	e8 0f ce ff ff       	call   401340 <_badboy>
  404531:	83 45 f4 01          	add    DWORD PTR [ebp-0xc],0x1
  404535:	c7 45 f0 13 00 00 00 	mov    DWORD PTR [ebp-0x10],0x13
  40453c:	8b 55 f4             	mov    edx,DWORD PTR [ebp-0xc]
  40453f:	8b 45 08             	mov    eax,DWORD PTR [ebp+0x8]
  404542:	01 d0                	add    eax,edx
  404544:	0f b6 00             	movzx  eax,BYTE PTR [eax]
  404547:	83 f0 61             	xor    eax,0x61
  40454a:	0f be c0             	movsx  eax,al
  40454d:	3b 45 f0             	cmp    eax,DWORD PTR [ebp-0x10]
  404550:	74 0b                	je     40455d <_check+0x3049>
  404552:	8b 45 f4             	mov    eax,DWORD PTR [ebp-0xc]
  404555:	89 04 24             	mov    DWORD PTR [esp],eax
  404558:	e8 e3 cd ff ff       	call   401340 <_badboy>
  40455d:	83 45 f4 01          	add    DWORD PTR [ebp-0xc],0x1
  404561:	c7 45 f0 ad 00 00 00 	mov    DWORD PTR [ebp-0x10],0xad
  404568:	8b 55 f4             	mov    edx,DWORD PTR [ebp-0xc]
  40456b:	8b 45 08             	mov    eax,DWORD PTR [ebp+0x8]
  40456e:	01 d0                	add    eax,edx
  404570:	0f b6 00             	movzx  eax,BYTE PTR [eax]
  404573:	0f be c0             	movsx  eax,al
  404576:	34 8d                	xor    al,0x8d
  404578:	3b 45 f0             	cmp    eax,DWORD PTR [ebp-0x10]
  40457b:	74 0b                	je     404588 <_check+0x3074>
  40457d:	8b 45 f4             	mov    eax,DWORD PTR [ebp-0xc]
  404580:	89 04 24             	mov    DWORD PTR [esp],eax
  404583:	e8 b8 cd ff ff       	call   401340 <_badboy>
  404588:	83 45 f4 01          	add    DWORD PTR [ebp-0xc],0x1
  40458c:	c7 45 f0 41 00 00 00 	mov    DWORD PTR [ebp-0x10],0x41
  404593:	8b 55 f4             	mov    edx,DWORD PTR [ebp-0xc]
  404596:	8b 45 08             	mov    eax,DWORD PTR [ebp+0x8]
  404599:	01 d0                	add    eax,edx
  40459b:	0f b6 00             	movzx  eax,BYTE PTR [eax]
  40459e:	83 f0 08             	xor    eax,0x8
  4045a1:	0f be c0             	movsx  eax,al
  4045a4:	3b 45 f0             	cmp    eax,DWORD PTR [ebp-0x10]
  4045a7:	74 0b                	je     4045b4 <_check+0x30a0>
  4045a9:	8b 45 f4             	mov    eax,DWORD PTR [ebp-0xc]
  4045ac:	89 04 24             	mov    DWORD PTR [esp],eax
  4045af:	e8 8c cd ff ff       	call   401340 <_badboy>
  4045b4:	83 45 f4 01          	add    DWORD PTR [ebp-0xc],0x1
  4045b8:	c7 45 f0 5d 00 00 00 	mov    DWORD PTR [ebp-0x10],0x5d
  4045bf:	8b 55 f4             	mov    edx,DWORD PTR [ebp-0xc]
  4045c2:	8b 45 08             	mov    eax,DWORD PTR [ebp+0x8]
  4045c5:	01 d0                	add    eax,edx
  4045c7:	0f b6 00             	movzx  eax,BYTE PTR [eax]
  4045ca:	83 f0 14             	xor    eax,0x14
  4045cd:	0f be c0             	movsx  eax,al
  4045d0:	3b 45 f0             	cmp    eax,DWORD PTR [ebp-0x10]
  4045d3:	74 0b                	je     4045e0 <_check+0x30cc>
  4045d5:	8b 45 f4             	mov    eax,DWORD PTR [ebp-0xc]
  4045d8:	89 04 24             	mov    DWORD PTR [esp],eax
  4045db:	e8 60 cd ff ff       	call   401340 <_badboy>
  4045e0:	83 45 f4 01          	add    DWORD PTR [ebp-0xc],0x1
  4045e4:	c7 45 f0 9a 00 00 00 	mov    DWORD PTR [ebp-0x10],0x9a
  4045eb:	8b 55 f4             	mov    edx,DWORD PTR [ebp-0xc]
  4045ee:	8b 45 08             	mov    eax,DWORD PTR [ebp+0x8]
  4045f1:	01 d0                	add    eax,edx
  4045f3:	0f b6 00             	movzx  eax,BYTE PTR [eax]
  4045f6:	0f be c0             	movsx  eax,al
  4045f9:	34 d3                	xor    al,0xd3
  4045fb:	3b 45 f0             	cmp    eax,DWORD PTR [ebp-0x10]
  4045fe:	74 0b                	je     40460b <_check+0x30f7>
  404600:	8b 45 f4             	mov    eax,DWORD PTR [ebp-0xc]
  404603:	89 04 24             	mov    DWORD PTR [esp],eax
  404606:	e8 35 cd ff ff       	call   401340 <_badboy>
  40460b:	83 45 f4 01          	add    DWORD PTR [ebp-0xc],0x1
  40460f:	c7 45 f0 76 00 00 00 	mov    DWORD PTR [ebp-0x10],0x76
  404616:	8b 55 f4             	mov    edx,DWORD PTR [ebp-0xc]
  404619:	8b 45 08             	mov    eax,DWORD PTR [ebp+0x8]
  40461c:	01 d0                	add    eax,edx
  40461e:	0f b6 00             	movzx  eax,BYTE PTR [eax]
  404621:	83 f0 5a             	xor    eax,0x5a
  404624:	0f be c0             	movsx  eax,al
  404627:	3b 45 f0             	cmp    eax,DWORD PTR [ebp-0x10]
  40462a:	74 0b                	je     404637 <_check+0x3123>
  40462c:	8b 45 f4             	mov    eax,DWORD PTR [ebp-0xc]
  40462f:	89 04 24             	mov    DWORD PTR [esp],eax
  404632:	e8 09 cd ff ff       	call   401340 <_badboy>
  404637:	83 45 f4 01          	add    DWORD PTR [ebp-0xc],0x1
  40463b:	c7 45 f0 f7 00 00 00 	mov    DWORD PTR [ebp-0x10],0xf7
  404642:	8b 55 f4             	mov    edx,DWORD PTR [ebp-0xc]
  404645:	8b 45 08             	mov    eax,DWORD PTR [ebp+0x8]
  404648:	01 d0                	add    eax,edx
  40464a:	0f b6 00             	movzx  eax,BYTE PTR [eax]
  40464d:	0f be c0             	movsx  eax,al
  404650:	34 d7                	xor    al,0xd7
  404652:	3b 45 f0             	cmp    eax,DWORD PTR [ebp-0x10]
  404655:	74 0b                	je     404662 <_check+0x314e>
  404657:	8b 45 f4             	mov    eax,DWORD PTR [ebp-0xc]
  40465a:	89 04 24             	mov    DWORD PTR [esp],eax
  40465d:	e8 de cc ff ff       	call   401340 <_badboy>
  404662:	83 45 f4 01          	add    DWORD PTR [ebp-0xc],0x1
  404666:	c7 45 f0 c1 00 00 00 	mov    DWORD PTR [ebp-0x10],0xc1
  40466d:	8b 55 f4             	mov    edx,DWORD PTR [ebp-0xc]
  404670:	8b 45 08             	mov    eax,DWORD PTR [ebp+0x8]
  404673:	01 d0                	add    eax,edx
  404675:	0f b6 00             	movzx  eax,BYTE PTR [eax]
  404678:	0f be c0             	movsx  eax,al
  40467b:	34 92                	xor    al,0x92
  40467d:	3b 45 f0             	cmp    eax,DWORD PTR [ebp-0x10]
  404680:	74 0b                	je     40468d <_check+0x3179>
  404682:	8b 45 f4             	mov    eax,DWORD PTR [ebp-0xc]
  404685:	89 04 24             	mov    DWORD PTR [esp],eax
  404688:	e8 b3 cc ff ff       	call   401340 <_badboy>
  40468d:	83 45 f4 01          	add    DWORD PTR [ebp-0xc],0x1
  404691:	c7 45 f0 92 00 00 00 	mov    DWORD PTR [ebp-0x10],0x92
  404698:	8b 55 f4             	mov    edx,DWORD PTR [ebp-0xc]
  40469b:	8b 45 08             	mov    eax,DWORD PTR [ebp+0x8]
  40469e:	01 d0                	add    eax,edx
  4046a0:	0f b6 00             	movzx  eax,BYTE PTR [eax]
  4046a3:	0f be c0             	movsx  eax,al
  4046a6:	34 fd                	xor    al,0xfd
  4046a8:	3b 45 f0             	cmp    eax,DWORD PTR [ebp-0x10]
  4046ab:	74 0b                	je     4046b8 <_check+0x31a4>
  4046ad:	8b 45 f4             	mov    eax,DWORD PTR [ebp-0xc]
  4046b0:	89 04 24             	mov    DWORD PTR [esp],eax
  4046b3:	e8 88 cc ff ff       	call   401340 <_badboy>
  4046b8:	83 45 f4 01          	add    DWORD PTR [ebp-0xc],0x1
  4046bc:	c7 45 f0 4c 00 00 00 	mov    DWORD PTR [ebp-0x10],0x4c
  4046c3:	8b 55 f4             	mov    edx,DWORD PTR [ebp-0xc]
  4046c6:	8b 45 08             	mov    eax,DWORD PTR [ebp+0x8]
  4046c9:	01 d0                	add    eax,edx
  4046cb:	0f b6 00             	movzx  eax,BYTE PTR [eax]
  4046ce:	83 f0 39             	xor    eax,0x39
  4046d1:	0f be c0             	movsx  eax,al
  4046d4:	3b 45 f0             	cmp    eax,DWORD PTR [ebp-0x10]
  4046d7:	74 0b                	je     4046e4 <_check+0x31d0>
  4046d9:	8b 45 f4             	mov    eax,DWORD PTR [ebp-0xc]
  4046dc:	89 04 24             	mov    DWORD PTR [esp],eax
  4046df:	e8 5c cc ff ff       	call   401340 <_badboy>
  4046e4:	83 45 f4 01          	add    DWORD PTR [ebp-0xc],0x1
  4046e8:	c7 45 f0 1e 00 00 00 	mov    DWORD PTR [ebp-0x10],0x1e
  4046ef:	8b 55 f4             	mov    edx,DWORD PTR [ebp-0xc]
  4046f2:	8b 45 08             	mov    eax,DWORD PTR [ebp+0x8]
  4046f5:	01 d0                	add    eax,edx
  4046f7:	0f b6 00             	movzx  eax,BYTE PTR [eax]
  4046fa:	83 f0 72             	xor    eax,0x72
  4046fd:	0f be c0             	movsx  eax,al
  404700:	3b 45 f0             	cmp    eax,DWORD PTR [ebp-0x10]
  404703:	74 0b                	je     404710 <_check+0x31fc>
  404705:	8b 45 f4             	mov    eax,DWORD PTR [ebp-0xc]
  404708:	89 04 24             	mov    DWORD PTR [esp],eax
  40470b:	e8 30 cc ff ff       	call   401340 <_badboy>
  404710:	83 45 f4 01          	add    DWORD PTR [ebp-0xc],0x1
  404714:	c7 45 f0 fb 00 00 00 	mov    DWORD PTR [ebp-0x10],0xfb
  40471b:	8b 55 f4             	mov    edx,DWORD PTR [ebp-0xc]
  40471e:	8b 45 08             	mov    eax,DWORD PTR [ebp+0x8]
  404721:	01 d0                	add    eax,edx
  404723:	0f b6 00             	movzx  eax,BYTE PTR [eax]
  404726:	0f be c0             	movsx  eax,al
  404729:	34 98                	xor    al,0x98
  40472b:	3b 45 f0             	cmp    eax,DWORD PTR [ebp-0x10]
  40472e:	74 0b                	je     40473b <_check+0x3227>
  404730:	8b 45 f4             	mov    eax,DWORD PTR [ebp-0xc]
  404733:	89 04 24             	mov    DWORD PTR [esp],eax
  404736:	e8 05 cc ff ff       	call   401340 <_badboy>
  40473b:	83 45 f4 01          	add    DWORD PTR [ebp-0xc],0x1
  40473f:	c7 45 f0 13 00 00 00 	mov    DWORD PTR [ebp-0x10],0x13
  404746:	8b 55 f4             	mov    edx,DWORD PTR [ebp-0xc]
  404749:	8b 45 08             	mov    eax,DWORD PTR [ebp+0x8]
  40474c:	01 d0                	add    eax,edx
  40474e:	0f b6 00             	movzx  eax,BYTE PTR [eax]
  404751:	83 f0 72             	xor    eax,0x72
  404754:	0f be c0             	movsx  eax,al
  404757:	3b 45 f0             	cmp    eax,DWORD PTR [ebp-0x10]
  40475a:	74 0b                	je     404767 <_check+0x3253>
  40475c:	8b 45 f4             	mov    eax,DWORD PTR [ebp-0xc]
  40475f:	89 04 24             	mov    DWORD PTR [esp],eax
  404762:	e8 d9 cb ff ff       	call   401340 <_badboy>
  404767:	83 45 f4 01          	add    DWORD PTR [ebp-0xc],0x1
  40476b:	c7 45 f0 6d 00 00 00 	mov    DWORD PTR [ebp-0x10],0x6d
  404772:	8b 55 f4             	mov    edx,DWORD PTR [ebp-0xc]
  404775:	8b 45 08             	mov    eax,DWORD PTR [ebp+0x8]
  404778:	01 d0                	add    eax,edx
  40477a:	0f b6 00             	movzx  eax,BYTE PTR [eax]
  40477d:	83 f0 01             	xor    eax,0x1
  404780:	0f be c0             	movsx  eax,al
  404783:	3b 45 f0             	cmp    eax,DWORD PTR [ebp-0x10]
  404786:	74 0b                	je     404793 <_check+0x327f>
  404788:	8b 45 f4             	mov    eax,DWORD PTR [ebp-0xc]
  40478b:	89 04 24             	mov    DWORD PTR [esp],eax
  40478e:	e8 ad cb ff ff       	call   401340 <_badboy>
  404793:	83 45 f4 01          	add    DWORD PTR [ebp-0xc],0x1
  404797:	c7 45 f0 02 00 00 00 	mov    DWORD PTR [ebp-0x10],0x2
  40479e:	8b 55 f4             	mov    edx,DWORD PTR [ebp-0xc]
  4047a1:	8b 45 08             	mov    eax,DWORD PTR [ebp+0x8]
  4047a4:	01 d0                	add    eax,edx
  4047a6:	0f b6 00             	movzx  eax,BYTE PTR [eax]
  4047a9:	83 f0 6b             	xor    eax,0x6b
  4047ac:	0f be c0             	movsx  eax,al
  4047af:	3b 45 f0             	cmp    eax,DWORD PTR [ebp-0x10]
  4047b2:	74 0b                	je     4047bf <_check+0x32ab>
  4047b4:	8b 45 f4             	mov    eax,DWORD PTR [ebp-0xc]
  4047b7:	89 04 24             	mov    DWORD PTR [esp],eax
  4047ba:	e8 81 cb ff ff       	call   401340 <_badboy>
  4047bf:	83 45 f4 01          	add    DWORD PTR [ebp-0xc],0x1
  4047c3:	c7 45 f0 1d 00 00 00 	mov    DWORD PTR [ebp-0x10],0x1d
  4047ca:	8b 55 f4             	mov    edx,DWORD PTR [ebp-0xc]
  4047cd:	8b 45 08             	mov    eax,DWORD PTR [ebp+0x8]
  4047d0:	01 d0                	add    eax,edx
  4047d2:	0f b6 00             	movzx  eax,BYTE PTR [eax]
  4047d5:	83 f0 7f             	xor    eax,0x7f
  4047d8:	0f be c0             	movsx  eax,al
  4047db:	3b 45 f0             	cmp    eax,DWORD PTR [ebp-0x10]
  4047de:	74 0b                	je     4047eb <_check+0x32d7>
  4047e0:	8b 45 f4             	mov    eax,DWORD PTR [ebp-0xc]
  4047e3:	89 04 24             	mov    DWORD PTR [esp],eax
  4047e6:	e8 55 cb ff ff       	call   401340 <_badboy>
  4047eb:	83 45 f4 01          	add    DWORD PTR [ebp-0xc],0x1
  4047ef:	c7 45 f0 16 00 00 00 	mov    DWORD PTR [ebp-0x10],0x16
  4047f6:	8b 55 f4             	mov    edx,DWORD PTR [ebp-0xc]
  4047f9:	8b 45 08             	mov    eax,DWORD PTR [ebp+0x8]
  4047fc:	01 d0                	add    eax,edx
  4047fe:	0f b6 00             	movzx  eax,BYTE PTR [eax]
  404801:	83 f0 63             	xor    eax,0x63
  404804:	0f be c0             	movsx  eax,al
  404807:	3b 45 f0             	cmp    eax,DWORD PTR [ebp-0x10]
  40480a:	74 0b                	je     404817 <_check+0x3303>
  40480c:	8b 45 f4             	mov    eax,DWORD PTR [ebp-0xc]
  40480f:	89 04 24             	mov    DWORD PTR [esp],eax
  404812:	e8 29 cb ff ff       	call   401340 <_badboy>
  404817:	83 45 f4 01          	add    DWORD PTR [ebp-0xc],0x1
  40481b:	c7 45 f0 01 00 00 00 	mov    DWORD PTR [ebp-0x10],0x1
  404822:	8b 55 f4             	mov    edx,DWORD PTR [ebp-0xc]
  404825:	8b 45 08             	mov    eax,DWORD PTR [ebp+0x8]
  404828:	01 d0                	add    eax,edx
  40482a:	0f b6 00             	movzx  eax,BYTE PTR [eax]
  40482d:	83 f0 73             	xor    eax,0x73
  404830:	0f be c0             	movsx  eax,al
  404833:	3b 45 f0             	cmp    eax,DWORD PTR [ebp-0x10]
  404836:	74 0b                	je     404843 <_check+0x332f>
  404838:	8b 45 f4             	mov    eax,DWORD PTR [ebp-0xc]
  40483b:	89 04 24             	mov    DWORD PTR [esp],eax
  40483e:	e8 fd ca ff ff       	call   401340 <_badboy>
  404843:	83 45 f4 01          	add    DWORD PTR [ebp-0xc],0x1
  404847:	c7 45 f0 84 00 00 00 	mov    DWORD PTR [ebp-0x10],0x84
  40484e:	8b 55 f4             	mov    edx,DWORD PTR [ebp-0xc]
  404851:	8b 45 08             	mov    eax,DWORD PTR [ebp+0x8]
  404854:	01 d0                	add    eax,edx
  404856:	0f b6 00             	movzx  eax,BYTE PTR [eax]
  404859:	0f be c0             	movsx  eax,al
  40485c:	34 a4                	xor    al,0xa4
  40485e:	3b 45 f0             	cmp    eax,DWORD PTR [ebp-0x10]
  404861:	74 0b                	je     40486e <_check+0x335a>
  404863:	8b 45 f4             	mov    eax,DWORD PTR [ebp-0xc]
  404866:	89 04 24             	mov    DWORD PTR [esp],eax
  404869:	e8 d2 ca ff ff       	call   401340 <_badboy>
  40486e:	83 45 f4 01          	add    DWORD PTR [ebp-0xc],0x1
  404872:	c7 45 f0 af 00 00 00 	mov    DWORD PTR [ebp-0x10],0xaf
  404879:	8b 55 f4             	mov    edx,DWORD PTR [ebp-0xc]
  40487c:	8b 45 08             	mov    eax,DWORD PTR [ebp+0x8]
  40487f:	01 d0                	add    eax,edx
  404881:	0f b6 00             	movzx  eax,BYTE PTR [eax]
  404884:	0f be c0             	movsx  eax,al
  404887:	34 e6                	xor    al,0xe6
  404889:	3b 45 f0             	cmp    eax,DWORD PTR [ebp-0x10]
  40488c:	74 0b                	je     404899 <_check+0x3385>
  40488e:	8b 45 f4             	mov    eax,DWORD PTR [ebp-0xc]
  404891:	89 04 24             	mov    DWORD PTR [esp],eax
  404894:	e8 a7 ca ff ff       	call   401340 <_badboy>
  404899:	83 45 f4 01          	add    DWORD PTR [ebp-0xc],0x1
  40489d:	c7 45 f0 6d 00 00 00 	mov    DWORD PTR [ebp-0x10],0x6d
  4048a4:	8b 55 f4             	mov    edx,DWORD PTR [ebp-0xc]
  4048a7:	8b 45 08             	mov    eax,DWORD PTR [ebp+0x8]
  4048aa:	01 d0                	add    eax,edx
  4048ac:	0f b6 00             	movzx  eax,BYTE PTR [eax]
  4048af:	83 f0 3b             	xor    eax,0x3b
  4048b2:	0f be c0             	movsx  eax,al
  4048b5:	3b 45 f0             	cmp    eax,DWORD PTR [ebp-0x10]
  4048b8:	74 0b                	je     4048c5 <_check+0x33b1>
  4048ba:	8b 45 f4             	mov    eax,DWORD PTR [ebp-0xc]
  4048bd:	89 04 24             	mov    DWORD PTR [esp],eax
  4048c0:	e8 7b ca ff ff       	call   401340 <_badboy>
  4048c5:	83 45 f4 01          	add    DWORD PTR [ebp-0xc],0x1
  4048c9:	c7 45 f0 a3 00 00 00 	mov    DWORD PTR [ebp-0x10],0xa3
  4048d0:	8b 55 f4             	mov    edx,DWORD PTR [ebp-0xc]
  4048d3:	8b 45 08             	mov    eax,DWORD PTR [ebp+0x8]
  4048d6:	01 d0                	add    eax,edx
  4048d8:	0f b6 00             	movzx  eax,BYTE PTR [eax]
  4048db:	0f be c0             	movsx  eax,al
  4048de:	34 8f                	xor    al,0x8f
  4048e0:	3b 45 f0             	cmp    eax,DWORD PTR [ebp-0x10]
  4048e3:	74 0b                	je     4048f0 <_check+0x33dc>
  4048e5:	8b 45 f4             	mov    eax,DWORD PTR [ebp-0xc]
  4048e8:	89 04 24             	mov    DWORD PTR [esp],eax
  4048eb:	e8 50 ca ff ff       	call   401340 <_badboy>
  4048f0:	83 45 f4 01          	add    DWORD PTR [ebp-0xc],0x1
  4048f4:	c7 45 f0 7a 00 00 00 	mov    DWORD PTR [ebp-0x10],0x7a
  4048fb:	8b 55 f4             	mov    edx,DWORD PTR [ebp-0xc]
  4048fe:	8b 45 08             	mov    eax,DWORD PTR [ebp+0x8]
  404901:	01 d0                	add    eax,edx
  404903:	0f b6 00             	movzx  eax,BYTE PTR [eax]
  404906:	83 f0 5a             	xor    eax,0x5a
  404909:	0f be c0             	movsx  eax,al
  40490c:	3b 45 f0             	cmp    eax,DWORD PTR [ebp-0x10]
  40490f:	74 0b                	je     40491c <_check+0x3408>
  404911:	8b 45 f4             	mov    eax,DWORD PTR [ebp-0xc]
  404914:	89 04 24             	mov    DWORD PTR [esp],eax
  404917:	e8 24 ca ff ff       	call   401340 <_badboy>
  40491c:	83 45 f4 01          	add    DWORD PTR [ebp-0xc],0x1
  404920:	c7 45 f0 91 00 00 00 	mov    DWORD PTR [ebp-0x10],0x91
  404927:	8b 55 f4             	mov    edx,DWORD PTR [ebp-0xc]
  40492a:	8b 45 08             	mov    eax,DWORD PTR [ebp+0x8]
  40492d:	01 d0                	add    eax,edx
  40492f:	0f b6 00             	movzx  eax,BYTE PTR [eax]
  404932:	0f be c0             	movsx  eax,al
  404935:	34 c2                	xor    al,0xc2
  404937:	3b 45 f0             	cmp    eax,DWORD PTR [ebp-0x10]
  40493a:	74 0b                	je     404947 <_check+0x3433>
  40493c:	8b 45 f4             	mov    eax,DWORD PTR [ebp-0xc]
  40493f:	89 04 24             	mov    DWORD PTR [esp],eax
  404942:	e8 f9 c9 ff ff       	call   401340 <_badboy>
  404947:	83 45 f4 01          	add    DWORD PTR [ebp-0xc],0x1
  40494b:	c7 45 f0 11 00 00 00 	mov    DWORD PTR [ebp-0x10],0x11
  404952:	8b 55 f4             	mov    edx,DWORD PTR [ebp-0xc]
  404955:	8b 45 08             	mov    eax,DWORD PTR [ebp+0x8]
  404958:	01 d0                	add    eax,edx
  40495a:	0f b6 00             	movzx  eax,BYTE PTR [eax]
  40495d:	83 f0 7e             	xor    eax,0x7e
  404960:	0f be c0             	movsx  eax,al
  404963:	3b 45 f0             	cmp    eax,DWORD PTR [ebp-0x10]
  404966:	74 0b                	je     404973 <_check+0x345f>
  404968:	8b 45 f4             	mov    eax,DWORD PTR [ebp-0xc]
  40496b:	89 04 24             	mov    DWORD PTR [esp],eax
  40496e:	e8 cd c9 ff ff       	call   401340 <_badboy>
  404973:	83 45 f4 01          	add    DWORD PTR [ebp-0xc],0x1
  404977:	c7 45 f0 26 00 00 00 	mov    DWORD PTR [ebp-0x10],0x26
  40497e:	8b 55 f4             	mov    edx,DWORD PTR [ebp-0xc]
  404981:	8b 45 08             	mov    eax,DWORD PTR [ebp+0x8]
  404984:	01 d0                	add    eax,edx
  404986:	0f b6 00             	movzx  eax,BYTE PTR [eax]
  404989:	83 f0 53             	xor    eax,0x53
  40498c:	0f be c0             	movsx  eax,al
  40498f:	3b 45 f0             	cmp    eax,DWORD PTR [ebp-0x10]
  404992:	74 0b                	je     40499f <_check+0x348b>
  404994:	8b 45 f4             	mov    eax,DWORD PTR [ebp-0xc]
  404997:	89 04 24             	mov    DWORD PTR [esp],eax
  40499a:	e8 a1 c9 ff ff       	call   401340 <_badboy>
  40499f:	83 45 f4 01          	add    DWORD PTR [ebp-0xc],0x1
  4049a3:	c7 45 f0 a8 00 00 00 	mov    DWORD PTR [ebp-0x10],0xa8
  4049aa:	8b 55 f4             	mov    edx,DWORD PTR [ebp-0xc]
  4049ad:	8b 45 08             	mov    eax,DWORD PTR [ebp+0x8]
  4049b0:	01 d0                	add    eax,edx
  4049b2:	0f b6 00             	movzx  eax,BYTE PTR [eax]
  4049b5:	0f be c0             	movsx  eax,al
  4049b8:	34 c4                	xor    al,0xc4
  4049ba:	3b 45 f0             	cmp    eax,DWORD PTR [ebp-0x10]
  4049bd:	74 0b                	je     4049ca <_check+0x34b6>
  4049bf:	8b 45 f4             	mov    eax,DWORD PTR [ebp-0xc]
  4049c2:	89 04 24             	mov    DWORD PTR [esp],eax
  4049c5:	e8 76 c9 ff ff       	call   401340 <_badboy>
  4049ca:	83 45 f4 01          	add    DWORD PTR [ebp-0xc],0x1
  4049ce:	c7 45 f0 78 00 00 00 	mov    DWORD PTR [ebp-0x10],0x78
  4049d5:	8b 55 f4             	mov    edx,DWORD PTR [ebp-0xc]
  4049d8:	8b 45 08             	mov    eax,DWORD PTR [ebp+0x8]
  4049db:	01 d0                	add    eax,edx
  4049dd:	0f b6 00             	movzx  eax,BYTE PTR [eax]
  4049e0:	83 f0 1b             	xor    eax,0x1b
  4049e3:	0f be c0             	movsx  eax,al
  4049e6:	3b 45 f0             	cmp    eax,DWORD PTR [ebp-0x10]
  4049e9:	74 0b                	je     4049f6 <_check+0x34e2>
  4049eb:	8b 45 f4             	mov    eax,DWORD PTR [ebp-0xc]
  4049ee:	89 04 24             	mov    DWORD PTR [esp],eax
  4049f1:	e8 4a c9 ff ff       	call   401340 <_badboy>
  4049f6:	83 45 f4 01          	add    DWORD PTR [ebp-0xc],0x1
  4049fa:	c7 45 f0 ad 00 00 00 	mov    DWORD PTR [ebp-0x10],0xad
  404a01:	8b 55 f4             	mov    edx,DWORD PTR [ebp-0xc]
  404a04:	8b 45 08             	mov    eax,DWORD PTR [ebp+0x8]
  404a07:	01 d0                	add    eax,edx
  404a09:	0f b6 00             	movzx  eax,BYTE PTR [eax]
  404a0c:	0f be c0             	movsx  eax,al
  404a0f:	34 cc                	xor    al,0xcc
  404a11:	3b 45 f0             	cmp    eax,DWORD PTR [ebp-0x10]
  404a14:	74 0b                	je     404a21 <_check+0x350d>
  404a16:	8b 45 f4             	mov    eax,DWORD PTR [ebp-0xc]
  404a19:	89 04 24             	mov    DWORD PTR [esp],eax
  404a1c:	e8 1f c9 ff ff       	call   401340 <_badboy>
  404a21:	83 45 f4 01          	add    DWORD PTR [ebp-0xc],0x1
  404a25:	c7 45 f0 e5 00 00 00 	mov    DWORD PTR [ebp-0x10],0xe5
  404a2c:	8b 55 f4             	mov    edx,DWORD PTR [ebp-0xc]
  404a2f:	8b 45 08             	mov    eax,DWORD PTR [ebp+0x8]
  404a32:	01 d0                	add    eax,edx
  404a34:	0f b6 00             	movzx  eax,BYTE PTR [eax]
  404a37:	0f be c0             	movsx  eax,al
  404a3a:	34 89                	xor    al,0x89
  404a3c:	3b 45 f0             	cmp    eax,DWORD PTR [ebp-0x10]
  404a3f:	74 0b                	je     404a4c <_check+0x3538>
  404a41:	8b 45 f4             	mov    eax,DWORD PTR [ebp-0xc]
  404a44:	89 04 24             	mov    DWORD PTR [esp],eax
  404a47:	e8 f4 c8 ff ff       	call   401340 <_badboy>
  404a4c:	83 45 f4 01          	add    DWORD PTR [ebp-0xc],0x1
  404a50:	c7 45 f0 ca 00 00 00 	mov    DWORD PTR [ebp-0x10],0xca
  404a57:	8b 55 f4             	mov    edx,DWORD PTR [ebp-0xc]
  404a5a:	8b 45 08             	mov    eax,DWORD PTR [ebp+0x8]
  404a5d:	01 d0                	add    eax,edx
  404a5f:	0f b6 00             	movzx  eax,BYTE PTR [eax]
  404a62:	0f be c0             	movsx  eax,al
  404a65:	34 a3                	xor    al,0xa3
  404a67:	3b 45 f0             	cmp    eax,DWORD PTR [ebp-0x10]
  404a6a:	74 0b                	je     404a77 <_check+0x3563>
  404a6c:	8b 45 f4             	mov    eax,DWORD PTR [ebp-0xc]
  404a6f:	89 04 24             	mov    DWORD PTR [esp],eax
  404a72:	e8 c9 c8 ff ff       	call   401340 <_badboy>
  404a77:	83 45 f4 01          	add    DWORD PTR [ebp-0xc],0x1
  404a7b:	c7 45 f0 fb 00 00 00 	mov    DWORD PTR [ebp-0x10],0xfb
  404a82:	8b 55 f4             	mov    edx,DWORD PTR [ebp-0xc]
  404a85:	8b 45 08             	mov    eax,DWORD PTR [ebp+0x8]
  404a88:	01 d0                	add    eax,edx
  404a8a:	0f b6 00             	movzx  eax,BYTE PTR [eax]
  404a8d:	0f be c0             	movsx  eax,al
  404a90:	34 99                	xor    al,0x99
  404a92:	3b 45 f0             	cmp    eax,DWORD PTR [ebp-0x10]
  404a95:	74 0b                	je     404aa2 <_check+0x358e>
  404a97:	8b 45 f4             	mov    eax,DWORD PTR [ebp-0xc]
  404a9a:	89 04 24             	mov    DWORD PTR [esp],eax
  404a9d:	e8 9e c8 ff ff       	call   401340 <_badboy>
  404aa2:	83 45 f4 01          	add    DWORD PTR [ebp-0xc],0x1
  404aa6:	c7 45 f0 b4 00 00 00 	mov    DWORD PTR [ebp-0x10],0xb4
  404aad:	8b 55 f4             	mov    edx,DWORD PTR [ebp-0xc]
  404ab0:	8b 45 08             	mov    eax,DWORD PTR [ebp+0x8]
  404ab3:	01 d0                	add    eax,edx
  404ab5:	0f b6 00             	movzx  eax,BYTE PTR [eax]
  404ab8:	0f be c0             	movsx  eax,al
  404abb:	34 c1                	xor    al,0xc1
  404abd:	3b 45 f0             	cmp    eax,DWORD PTR [ebp-0x10]
  404ac0:	74 0b                	je     404acd <_check+0x35b9>
  404ac2:	8b 45 f4             	mov    eax,DWORD PTR [ebp-0xc]
  404ac5:	89 04 24             	mov    DWORD PTR [esp],eax
  404ac8:	e8 73 c8 ff ff       	call   401340 <_badboy>
  404acd:	83 45 f4 01          	add    DWORD PTR [ebp-0xc],0x1
  404ad1:	c7 45 f0 4a 00 00 00 	mov    DWORD PTR [ebp-0x10],0x4a
  404ad8:	8b 55 f4             	mov    edx,DWORD PTR [ebp-0xc]
  404adb:	8b 45 08             	mov    eax,DWORD PTR [ebp+0x8]
  404ade:	01 d0                	add    eax,edx
  404ae0:	0f b6 00             	movzx  eax,BYTE PTR [eax]
  404ae3:	83 f0 38             	xor    eax,0x38
  404ae6:	0f be c0             	movsx  eax,al
  404ae9:	3b 45 f0             	cmp    eax,DWORD PTR [ebp-0x10]
  404aec:	74 0b                	je     404af9 <_check+0x35e5>
  404aee:	8b 45 f4             	mov    eax,DWORD PTR [ebp-0xc]
  404af1:	89 04 24             	mov    DWORD PTR [esp],eax
  404af4:	e8 47 c8 ff ff       	call   401340 <_badboy>
  404af9:	83 45 f4 01          	add    DWORD PTR [ebp-0xc],0x1
  404afd:	c7 45 f0 f8 00 00 00 	mov    DWORD PTR [ebp-0x10],0xf8
  404b04:	8b 55 f4             	mov    edx,DWORD PTR [ebp-0xc]
  404b07:	8b 45 08             	mov    eax,DWORD PTR [ebp+0x8]
  404b0a:	01 d0                	add    eax,edx
  404b0c:	0f b6 00             	movzx  eax,BYTE PTR [eax]
  404b0f:	0f be c0             	movsx  eax,al
  404b12:	34 c2                	xor    al,0xc2
  404b14:	3b 45 f0             	cmp    eax,DWORD PTR [ebp-0x10]
  404b17:	74 0b                	je     404b24 <_check+0x3610>
  404b19:	8b 45 f4             	mov    eax,DWORD PTR [ebp-0xc]
  404b1c:	89 04 24             	mov    DWORD PTR [esp],eax
  404b1f:	e8 1c c8 ff ff       	call   401340 <_badboy>
  404b24:	83 45 f4 01          	add    DWORD PTR [ebp-0xc],0x1
  404b28:	c7 45 f0 b3 00 00 00 	mov    DWORD PTR [ebp-0x10],0xb3
  404b2f:	8b 55 f4             	mov    edx,DWORD PTR [ebp-0xc]
  404b32:	8b 45 08             	mov    eax,DWORD PTR [ebp+0x8]
  404b35:	01 d0                	add    eax,edx
  404b37:	0f b6 00             	movzx  eax,BYTE PTR [eax]
  404b3a:	0f be c0             	movsx  eax,al
  404b3d:	34 93                	xor    al,0x93
  404b3f:	3b 45 f0             	cmp    eax,DWORD PTR [ebp-0x10]
  404b42:	74 0b                	je     404b4f <_check+0x363b>
  404b44:	8b 45 f4             	mov    eax,DWORD PTR [ebp-0xc]
  404b47:	89 04 24             	mov    DWORD PTR [esp],eax
  404b4a:	e8 f1 c7 ff ff       	call   401340 <_badboy>
  404b4f:	83 45 f4 01          	add    DWORD PTR [ebp-0xc],0x1
  404b53:	c7 45 f0 67 00 00 00 	mov    DWORD PTR [ebp-0x10],0x67
  404b5a:	8b 55 f4             	mov    edx,DWORD PTR [ebp-0xc]
  404b5d:	8b 45 08             	mov    eax,DWORD PTR [ebp+0x8]
  404b60:	01 d0                	add    eax,edx
  404b62:	0f b6 00             	movzx  eax,BYTE PTR [eax]
  404b65:	83 f0 25             	xor    eax,0x25
  404b68:	0f be c0             	movsx  eax,al
  404b6b:	3b 45 f0             	cmp    eax,DWORD PTR [ebp-0x10]
  404b6e:	74 0b                	je     404b7b <_check+0x3667>
  404b70:	8b 45 f4             	mov    eax,DWORD PTR [ebp-0xc]
  404b73:	89 04 24             	mov    DWORD PTR [esp],eax
  404b76:	e8 c5 c7 ff ff       	call   401340 <_badboy>
  404b7b:	83 45 f4 01          	add    DWORD PTR [ebp-0xc],0x1
  404b7f:	c7 45 f0 71 00 00 00 	mov    DWORD PTR [ebp-0x10],0x71
  404b86:	8b 55 f4             	mov    edx,DWORD PTR [ebp-0xc]
  404b89:	8b 45 08             	mov    eax,DWORD PTR [ebp+0x8]
  404b8c:	01 d0                	add    eax,edx
  404b8e:	0f b6 00             	movzx  eax,BYTE PTR [eax]
  404b91:	83 f0 03             	xor    eax,0x3
  404b94:	0f be c0             	movsx  eax,al
  404b97:	3b 45 f0             	cmp    eax,DWORD PTR [ebp-0x10]
  404b9a:	74 0b                	je     404ba7 <_check+0x3693>
  404b9c:	8b 45 f4             	mov    eax,DWORD PTR [ebp-0xc]
  404b9f:	89 04 24             	mov    DWORD PTR [esp],eax
  404ba2:	e8 99 c7 ff ff       	call   401340 <_badboy>
  404ba7:	83 45 f4 01          	add    DWORD PTR [ebp-0xc],0x1
  404bab:	c7 45 f0 6b 00 00 00 	mov    DWORD PTR [ebp-0x10],0x6b
  404bb2:	8b 55 f4             	mov    edx,DWORD PTR [ebp-0xc]
  404bb5:	8b 45 08             	mov    eax,DWORD PTR [ebp+0x8]
  404bb8:	01 d0                	add    eax,edx
  404bba:	0f b6 00             	movzx  eax,BYTE PTR [eax]
  404bbd:	83 f0 04             	xor    eax,0x4
  404bc0:	0f be c0             	movsx  eax,al
  404bc3:	3b 45 f0             	cmp    eax,DWORD PTR [ebp-0x10]
  404bc6:	74 0b                	je     404bd3 <_check+0x36bf>
  404bc8:	8b 45 f4             	mov    eax,DWORD PTR [ebp-0xc]
  404bcb:	89 04 24             	mov    DWORD PTR [esp],eax
  404bce:	e8 6d c7 ff ff       	call   401340 <_badboy>
  404bd3:	83 45 f4 01          	add    DWORD PTR [ebp-0xc],0x1
  404bd7:	c7 45 f0 85 00 00 00 	mov    DWORD PTR [ebp-0x10],0x85
  404bde:	8b 55 f4             	mov    edx,DWORD PTR [ebp-0xc]
  404be1:	8b 45 08             	mov    eax,DWORD PTR [ebp+0x8]
  404be4:	01 d0                	add    eax,edx
  404be6:	0f b6 00             	movzx  eax,BYTE PTR [eax]
  404be9:	0f be c0             	movsx  eax,al
  404bec:	34 ee                	xor    al,0xee
  404bee:	3b 45 f0             	cmp    eax,DWORD PTR [ebp-0x10]
  404bf1:	74 0b                	je     404bfe <_check+0x36ea>
  404bf3:	8b 45 f4             	mov    eax,DWORD PTR [ebp-0xc]
  404bf6:	89 04 24             	mov    DWORD PTR [esp],eax
  404bf9:	e8 42 c7 ff ff       	call   401340 <_badboy>
  404bfe:	83 45 f4 01          	add    DWORD PTR [ebp-0xc],0x1
  404c02:	c7 45 f0 e3 00 00 00 	mov    DWORD PTR [ebp-0x10],0xe3
  404c09:	8b 55 f4             	mov    edx,DWORD PTR [ebp-0xc]
  404c0c:	8b 45 08             	mov    eax,DWORD PTR [ebp+0x8]
  404c0f:	01 d0                	add    eax,edx
  404c11:	0f b6 00             	movzx  eax,BYTE PTR [eax]
  404c14:	0f be c0             	movsx  eax,al
  404c17:	34 86                	xor    al,0x86
  404c19:	3b 45 f0             	cmp    eax,DWORD PTR [ebp-0x10]
  404c1c:	74 0b                	je     404c29 <_check+0x3715>
  404c1e:	8b 45 f4             	mov    eax,DWORD PTR [ebp-0xc]
  404c21:	89 04 24             	mov    DWORD PTR [esp],eax
  404c24:	e8 17 c7 ff ff       	call   401340 <_badboy>
  404c29:	83 45 f4 01          	add    DWORD PTR [ebp-0xc],0x1
  404c2d:	c7 45 f0 3e 00 00 00 	mov    DWORD PTR [ebp-0x10],0x3e
  404c34:	8b 55 f4             	mov    edx,DWORD PTR [ebp-0xc]
  404c37:	8b 45 08             	mov    eax,DWORD PTR [ebp+0x8]
  404c3a:	01 d0                	add    eax,edx
  404c3c:	0f b6 00             	movzx  eax,BYTE PTR [eax]
  404c3f:	83 f0 50             	xor    eax,0x50
  404c42:	0f be c0             	movsx  eax,al
  404c45:	3b 45 f0             	cmp    eax,DWORD PTR [ebp-0x10]
  404c48:	74 0b                	je     404c55 <_check+0x3741>
  404c4a:	8b 45 f4             	mov    eax,DWORD PTR [ebp-0xc]
  404c4d:	89 04 24             	mov    DWORD PTR [esp],eax
  404c50:	e8 eb c6 ff ff       	call   401340 <_badboy>
  404c55:	83 45 f4 01          	add    DWORD PTR [ebp-0xc],0x1
  404c59:	c7 45 f0 7c 00 00 00 	mov    DWORD PTR [ebp-0x10],0x7c
  404c60:	8b 55 f4             	mov    edx,DWORD PTR [ebp-0xc]
  404c63:	8b 45 08             	mov    eax,DWORD PTR [ebp+0x8]
  404c66:	01 d0                	add    eax,edx
  404c68:	0f b6 00             	movzx  eax,BYTE PTR [eax]
  404c6b:	83 f0 5c             	xor    eax,0x5c
  404c6e:	0f be c0             	movsx  eax,al
  404c71:	3b 45 f0             	cmp    eax,DWORD PTR [ebp-0x10]
  404c74:	74 0b                	je     404c81 <_check+0x376d>
  404c76:	8b 45 f4             	mov    eax,DWORD PTR [ebp-0xc]
  404c79:	89 04 24             	mov    DWORD PTR [esp],eax
  404c7c:	e8 bf c6 ff ff       	call   401340 <_badboy>
  404c81:	83 45 f4 01          	add    DWORD PTR [ebp-0xc],0x1
  404c85:	c7 45 f0 0c 00 00 00 	mov    DWORD PTR [ebp-0x10],0xc
  404c8c:	8b 55 f4             	mov    edx,DWORD PTR [ebp-0xc]
  404c8f:	8b 45 08             	mov    eax,DWORD PTR [ebp+0x8]
  404c92:	01 d0                	add    eax,edx
  404c94:	0f b6 00             	movzx  eax,BYTE PTR [eax]
  404c97:	83 f0 48             	xor    eax,0x48
  404c9a:	0f be c0             	movsx  eax,al
  404c9d:	3b 45 f0             	cmp    eax,DWORD PTR [ebp-0x10]
  404ca0:	74 0b                	je     404cad <_check+0x3799>
  404ca2:	8b 45 f4             	mov    eax,DWORD PTR [ebp-0xc]
  404ca5:	89 04 24             	mov    DWORD PTR [esp],eax
  404ca8:	e8 93 c6 ff ff       	call   401340 <_badboy>
  404cad:	83 45 f4 01          	add    DWORD PTR [ebp-0xc],0x1
  404cb1:	c7 45 f0 82 00 00 00 	mov    DWORD PTR [ebp-0x10],0x82
  404cb8:	8b 55 f4             	mov    edx,DWORD PTR [ebp-0xc]
  404cbb:	8b 45 08             	mov    eax,DWORD PTR [ebp+0x8]
  404cbe:	01 d0                	add    eax,edx
  404cc0:	0f b6 00             	movzx  eax,BYTE PTR [eax]
  404cc3:	0f be c0             	movsx  eax,al
  404cc6:	34 e7                	xor    al,0xe7
  404cc8:	3b 45 f0             	cmp    eax,DWORD PTR [ebp-0x10]
  404ccb:	74 0b                	je     404cd8 <_check+0x37c4>
  404ccd:	8b 45 f4             	mov    eax,DWORD PTR [ebp-0xc]
  404cd0:	89 04 24             	mov    DWORD PTR [esp],eax
  404cd3:	e8 68 c6 ff ff       	call   401340 <_badboy>
  404cd8:	83 45 f4 01          	add    DWORD PTR [ebp-0xc],0x1
  404cdc:	c7 45 f0 01 00 00 00 	mov    DWORD PTR [ebp-0x10],0x1
  404ce3:	8b 55 f4             	mov    edx,DWORD PTR [ebp-0xc]
  404ce6:	8b 45 08             	mov    eax,DWORD PTR [ebp+0x8]
  404ce9:	01 d0                	add    eax,edx
  404ceb:	0f b6 00             	movzx  eax,BYTE PTR [eax]
  404cee:	83 f0 72             	xor    eax,0x72
  404cf1:	0f be c0             	movsx  eax,al
  404cf4:	3b 45 f0             	cmp    eax,DWORD PTR [ebp-0x10]
  404cf7:	74 0b                	je     404d04 <_check+0x37f0>
  404cf9:	8b 45 f4             	mov    eax,DWORD PTR [ebp-0xc]
  404cfc:	89 04 24             	mov    DWORD PTR [esp],eax
  404cff:	e8 3c c6 ff ff       	call   401340 <_badboy>
  404d04:	83 45 f4 01          	add    DWORD PTR [ebp-0xc],0x1
  404d08:	c7 45 f0 b6 00 00 00 	mov    DWORD PTR [ebp-0x10],0xb6
  404d0f:	8b 55 f4             	mov    edx,DWORD PTR [ebp-0xc]
  404d12:	8b 45 08             	mov    eax,DWORD PTR [ebp+0x8]
  404d15:	01 d0                	add    eax,edx
  404d17:	0f b6 00             	movzx  eax,BYTE PTR [eax]
  404d1a:	0f be c0             	movsx  eax,al
  404d1d:	34 c2                	xor    al,0xc2
  404d1f:	3b 45 f0             	cmp    eax,DWORD PTR [ebp-0x10]
  404d22:	74 0b                	je     404d2f <_check+0x381b>
  404d24:	8b 45 f4             	mov    eax,DWORD PTR [ebp-0xc]
  404d27:	89 04 24             	mov    DWORD PTR [esp],eax
  404d2a:	e8 11 c6 ff ff       	call   401340 <_badboy>
  404d2f:	83 45 f4 01          	add    DWORD PTR [ebp-0xc],0x1
  404d33:	c7 45 f0 4a 00 00 00 	mov    DWORD PTR [ebp-0x10],0x4a
  404d3a:	8b 55 f4             	mov    edx,DWORD PTR [ebp-0xc]
  404d3d:	8b 45 08             	mov    eax,DWORD PTR [ebp+0x8]
  404d40:	01 d0                	add    eax,edx
  404d42:	0f b6 00             	movzx  eax,BYTE PTR [eax]
  404d45:	83 f0 23             	xor    eax,0x23
  404d48:	0f be c0             	movsx  eax,al
  404d4b:	3b 45 f0             	cmp    eax,DWORD PTR [ebp-0x10]
  404d4e:	74 0b                	je     404d5b <_check+0x3847>
  404d50:	8b 45 f4             	mov    eax,DWORD PTR [ebp-0xc]
  404d53:	89 04 24             	mov    DWORD PTR [esp],eax
  404d56:	e8 e5 c5 ff ff       	call   401340 <_badboy>
  404d5b:	83 45 f4 01          	add    DWORD PTR [ebp-0xc],0x1
  404d5f:	c7 45 f0 f0 00 00 00 	mov    DWORD PTR [ebp-0x10],0xf0
  404d66:	8b 55 f4             	mov    edx,DWORD PTR [ebp-0xc]
  404d69:	8b 45 08             	mov    eax,DWORD PTR [ebp+0x8]
  404d6c:	01 d0                	add    eax,edx
  404d6e:	0f b6 00             	movzx  eax,BYTE PTR [eax]
  404d71:	0f be c0             	movsx  eax,al
  404d74:	34 9e                	xor    al,0x9e
  404d76:	3b 45 f0             	cmp    eax,DWORD PTR [ebp-0x10]
  404d79:	74 0b                	je     404d86 <_check+0x3872>
  404d7b:	8b 45 f4             	mov    eax,DWORD PTR [ebp-0xc]
  404d7e:	89 04 24             	mov    DWORD PTR [esp],eax
  404d81:	e8 ba c5 ff ff       	call   401340 <_badboy>
  404d86:	83 45 f4 01          	add    DWORD PTR [ebp-0xc],0x1
  404d8a:	c7 45 f0 8c 00 00 00 	mov    DWORD PTR [ebp-0x10],0x8c
  404d91:	8b 55 f4             	mov    edx,DWORD PTR [ebp-0xc]
  404d94:	8b 45 08             	mov    eax,DWORD PTR [ebp+0x8]
  404d97:	01 d0                	add    eax,edx
  404d99:	0f b6 00             	movzx  eax,BYTE PTR [eax]
  404d9c:	0f be c0             	movsx  eax,al
  404d9f:	34 f5                	xor    al,0xf5
  404da1:	3b 45 f0             	cmp    eax,DWORD PTR [ebp-0x10]
  404da4:	74 0b                	je     404db1 <_check+0x389d>
  404da6:	8b 45 f4             	mov    eax,DWORD PTR [ebp-0xc]
  404da9:	89 04 24             	mov    DWORD PTR [esp],eax
  404dac:	e8 8f c5 ff ff       	call   401340 <_badboy>
  404db1:	83 45 f4 01          	add    DWORD PTR [ebp-0xc],0x1
  404db5:	c7 45 f0 17 00 00 00 	mov    DWORD PTR [ebp-0x10],0x17
  404dbc:	8b 55 f4             	mov    edx,DWORD PTR [ebp-0xc]
  404dbf:	8b 45 08             	mov    eax,DWORD PTR [ebp+0x8]
  404dc2:	01 d0                	add    eax,edx
  404dc4:	0f b6 00             	movzx  eax,BYTE PTR [eax]
  404dc7:	83 f0 37             	xor    eax,0x37
  404dca:	0f be c0             	movsx  eax,al
  404dcd:	3b 45 f0             	cmp    eax,DWORD PTR [ebp-0x10]
  404dd0:	74 0b                	je     404ddd <_check+0x38c9>
  404dd2:	8b 45 f4             	mov    eax,DWORD PTR [ebp-0xc]
  404dd5:	89 04 24             	mov    DWORD PTR [esp],eax
  404dd8:	e8 63 c5 ff ff       	call   401340 <_badboy>
  404ddd:	83 45 f4 01          	add    DWORD PTR [ebp-0xc],0x1
  404de1:	c7 45 f0 28 00 00 00 	mov    DWORD PTR [ebp-0x10],0x28
  404de8:	8b 55 f4             	mov    edx,DWORD PTR [ebp-0xc]
  404deb:	8b 45 08             	mov    eax,DWORD PTR [ebp+0x8]
  404dee:	01 d0                	add    eax,edx
  404df0:	0f b6 00             	movzx  eax,BYTE PTR [eax]
  404df3:	83 f0 49             	xor    eax,0x49
  404df6:	0f be c0             	movsx  eax,al
  404df9:	3b 45 f0             	cmp    eax,DWORD PTR [ebp-0x10]
  404dfc:	74 0b                	je     404e09 <_check+0x38f5>
  404dfe:	8b 45 f4             	mov    eax,DWORD PTR [ebp-0xc]
  404e01:	89 04 24             	mov    DWORD PTR [esp],eax
  404e04:	e8 37 c5 ff ff       	call   401340 <_badboy>
  404e09:	83 45 f4 01          	add    DWORD PTR [ebp-0xc],0x1
  404e0d:	c7 45 f0 42 00 00 00 	mov    DWORD PTR [ebp-0x10],0x42
  404e14:	8b 55 f4             	mov    edx,DWORD PTR [ebp-0xc]
  404e17:	8b 45 08             	mov    eax,DWORD PTR [ebp+0x8]
  404e1a:	01 d0                	add    eax,edx
  404e1c:	0f b6 00             	movzx  eax,BYTE PTR [eax]
  404e1f:	83 f0 2c             	xor    eax,0x2c
  404e22:	0f be c0             	movsx  eax,al
  404e25:	3b 45 f0             	cmp    eax,DWORD PTR [ebp-0x10]
  404e28:	74 0b                	je     404e35 <_check+0x3921>
  404e2a:	8b 45 f4             	mov    eax,DWORD PTR [ebp-0xc]
  404e2d:	89 04 24             	mov    DWORD PTR [esp],eax
  404e30:	e8 0b c5 ff ff       	call   401340 <_badboy>
  404e35:	83 45 f4 01          	add    DWORD PTR [ebp-0xc],0x1
  404e39:	c7 45 f0 e8 00 00 00 	mov    DWORD PTR [ebp-0x10],0xe8
  404e40:	8b 55 f4             	mov    edx,DWORD PTR [ebp-0xc]
  404e43:	8b 45 08             	mov    eax,DWORD PTR [ebp+0x8]
  404e46:	01 d0                	add    eax,edx
  404e48:	0f b6 00             	movzx  eax,BYTE PTR [eax]
  404e4b:	0f be c0             	movsx  eax,al
  404e4e:	34 8c                	xor    al,0x8c
  404e50:	3b 45 f0             	cmp    eax,DWORD PTR [ebp-0x10]
  404e53:	74 0b                	je     404e60 <_check+0x394c>
  404e55:	8b 45 f4             	mov    eax,DWORD PTR [ebp-0xc]
  404e58:	89 04 24             	mov    DWORD PTR [esp],eax
  404e5b:	e8 e0 c4 ff ff       	call   401340 <_badboy>
  404e60:	83 45 f4 01          	add    DWORD PTR [ebp-0xc],0x1
  404e64:	c7 45 f0 8c 00 00 00 	mov    DWORD PTR [ebp-0x10],0x8c
  404e6b:	8b 55 f4             	mov    edx,DWORD PTR [ebp-0xc]
  404e6e:	8b 45 08             	mov    eax,DWORD PTR [ebp+0x8]
  404e71:	01 d0                	add    eax,edx
  404e73:	0f b6 00             	movzx  eax,BYTE PTR [eax]
  404e76:	0f be c0             	movsx  eax,al
  404e79:	34 ac                	xor    al,0xac
  404e7b:	3b 45 f0             	cmp    eax,DWORD PTR [ebp-0x10]
  404e7e:	74 0b                	je     404e8b <_check+0x3977>
  404e80:	8b 45 f4             	mov    eax,DWORD PTR [ebp-0xc]
  404e83:	89 04 24             	mov    DWORD PTR [esp],eax
  404e86:	e8 b5 c4 ff ff       	call   401340 <_badboy>
  404e8b:	83 45 f4 01          	add    DWORD PTR [ebp-0xc],0x1
  404e8f:	c7 45 f0 50 00 00 00 	mov    DWORD PTR [ebp-0x10],0x50
  404e96:	8b 55 f4             	mov    edx,DWORD PTR [ebp-0xc]
  404e99:	8b 45 08             	mov    eax,DWORD PTR [ebp+0x8]
  404e9c:	01 d0                	add    eax,edx
  404e9e:	0f b6 00             	movzx  eax,BYTE PTR [eax]
  404ea1:	83 f0 03             	xor    eax,0x3
  404ea4:	0f be c0             	movsx  eax,al
  404ea7:	3b 45 f0             	cmp    eax,DWORD PTR [ebp-0x10]
  404eaa:	74 0b                	je     404eb7 <_check+0x39a3>
  404eac:	8b 45 f4             	mov    eax,DWORD PTR [ebp-0xc]
  404eaf:	89 04 24             	mov    DWORD PTR [esp],eax
  404eb2:	e8 89 c4 ff ff       	call   401340 <_badboy>
  404eb7:	83 45 f4 01          	add    DWORD PTR [ebp-0xc],0x1
  404ebb:	c7 45 f0 6c 00 00 00 	mov    DWORD PTR [ebp-0x10],0x6c
  404ec2:	8b 55 f4             	mov    edx,DWORD PTR [ebp-0xc]
  404ec5:	8b 45 08             	mov    eax,DWORD PTR [ebp+0x8]
  404ec8:	01 d0                	add    eax,edx
  404eca:	0f b6 00             	movzx  eax,BYTE PTR [eax]
  404ecd:	83 f0 03             	xor    eax,0x3
  404ed0:	0f be c0             	movsx  eax,al
  404ed3:	3b 45 f0             	cmp    eax,DWORD PTR [ebp-0x10]
  404ed6:	74 0b                	je     404ee3 <_check+0x39cf>
  404ed8:	8b 45 f4             	mov    eax,DWORD PTR [ebp-0xc]
  404edb:	89 04 24             	mov    DWORD PTR [esp],eax
  404ede:	e8 5d c4 ff ff       	call   401340 <_badboy>
  404ee3:	83 45 f4 01          	add    DWORD PTR [ebp-0xc],0x1
  404ee7:	c7 45 f0 6c 00 00 00 	mov    DWORD PTR [ebp-0x10],0x6c
  404eee:	8b 55 f4             	mov    edx,DWORD PTR [ebp-0xc]
  404ef1:	8b 45 08             	mov    eax,DWORD PTR [ebp+0x8]
  404ef4:	01 d0                	add    eax,edx
  404ef6:	0f b6 00             	movzx  eax,BYTE PTR [eax]
  404ef9:	83 f0 19             	xor    eax,0x19
  404efc:	0f be c0             	movsx  eax,al
  404eff:	3b 45 f0             	cmp    eax,DWORD PTR [ebp-0x10]
  404f02:	74 0b                	je     404f0f <_check+0x39fb>
  404f04:	8b 45 f4             	mov    eax,DWORD PTR [ebp-0xc]
  404f07:	89 04 24             	mov    DWORD PTR [esp],eax
  404f0a:	e8 31 c4 ff ff       	call   401340 <_badboy>
  404f0f:	83 45 f4 01          	add    DWORD PTR [ebp-0xc],0x1
  404f13:	c7 45 f0 65 00 00 00 	mov    DWORD PTR [ebp-0x10],0x65
  404f1a:	8b 55 f4             	mov    edx,DWORD PTR [ebp-0xc]
  404f1d:	8b 45 08             	mov    eax,DWORD PTR [ebp+0x8]
  404f20:	01 d0                	add    eax,edx
  404f22:	0f b6 00             	movzx  eax,BYTE PTR [eax]
  404f25:	83 f0 09             	xor    eax,0x9
  404f28:	0f be c0             	movsx  eax,al
  404f2b:	3b 45 f0             	cmp    eax,DWORD PTR [ebp-0x10]
  404f2e:	74 0b                	je     404f3b <_check+0x3a27>
  404f30:	8b 45 f4             	mov    eax,DWORD PTR [ebp-0xc]
  404f33:	89 04 24             	mov    DWORD PTR [esp],eax
  404f36:	e8 05 c4 ff ff       	call   401340 <_badboy>
  404f3b:	83 45 f4 01          	add    DWORD PTR [ebp-0xc],0x1
  404f3f:	c7 45 f0 ea 00 00 00 	mov    DWORD PTR [ebp-0x10],0xea
  404f46:	8b 55 f4             	mov    edx,DWORD PTR [ebp-0xc]
  404f49:	8b 45 08             	mov    eax,DWORD PTR [ebp+0x8]
  404f4c:	01 d0                	add    eax,edx
  404f4e:	0f b6 00             	movzx  eax,BYTE PTR [eax]
  404f51:	0f be c0             	movsx  eax,al
  404f54:	34 89                	xor    al,0x89
  404f56:	3b 45 f0             	cmp    eax,DWORD PTR [ebp-0x10]
  404f59:	74 0b                	je     404f66 <_check+0x3a52>
  404f5b:	8b 45 f4             	mov    eax,DWORD PTR [ebp-0xc]
  404f5e:	89 04 24             	mov    DWORD PTR [esp],eax
  404f61:	e8 da c3 ff ff       	call   401340 <_badboy>
  404f66:	83 45 f4 01          	add    DWORD PTR [ebp-0xc],0x1
  404f6a:	c7 45 f0 77 00 00 00 	mov    DWORD PTR [ebp-0x10],0x77
  404f71:	8b 55 f4             	mov    edx,DWORD PTR [ebp-0xc]
  404f74:	8b 45 08             	mov    eax,DWORD PTR [ebp+0x8]
  404f77:	01 d0                	add    eax,edx
  404f79:	0f b6 00             	movzx  eax,BYTE PTR [eax]
  404f7c:	83 f0 16             	xor    eax,0x16
  404f7f:	0f be c0             	movsx  eax,al
  404f82:	3b 45 f0             	cmp    eax,DWORD PTR [ebp-0x10]
  404f85:	74 0b                	je     404f92 <_check+0x3a7e>
  404f87:	8b 45 f4             	mov    eax,DWORD PTR [ebp-0xc]
  404f8a:	89 04 24             	mov    DWORD PTR [esp],eax
  404f8d:	e8 ae c3 ff ff       	call   401340 <_badboy>
  404f92:	83 45 f4 01          	add    DWORD PTR [ebp-0xc],0x1
  404f96:	c7 45 f0 b2 00 00 00 	mov    DWORD PTR [ebp-0x10],0xb2
  404f9d:	8b 55 f4             	mov    edx,DWORD PTR [ebp-0xc]
  404fa0:	8b 45 08             	mov    eax,DWORD PTR [ebp+0x8]
  404fa3:	01 d0                	add    eax,edx
  404fa5:	0f b6 00             	movzx  eax,BYTE PTR [eax]
  404fa8:	0f be c0             	movsx  eax,al
  404fab:	34 de                	xor    al,0xde
  404fad:	3b 45 f0             	cmp    eax,DWORD PTR [ebp-0x10]
  404fb0:	74 0b                	je     404fbd <_check+0x3aa9>
  404fb2:	8b 45 f4             	mov    eax,DWORD PTR [ebp-0xc]
  404fb5:	89 04 24             	mov    DWORD PTR [esp],eax
  404fb8:	e8 83 c3 ff ff       	call   401340 <_badboy>
  404fbd:	83 45 f4 01          	add    DWORD PTR [ebp-0xc],0x1
  404fc1:	c7 45 f0 af 00 00 00 	mov    DWORD PTR [ebp-0x10],0xaf
  404fc8:	8b 55 f4             	mov    edx,DWORD PTR [ebp-0xc]
  404fcb:	8b 45 08             	mov    eax,DWORD PTR [ebp+0x8]
  404fce:	01 d0                	add    eax,edx
  404fd0:	0f b6 00             	movzx  eax,BYTE PTR [eax]
  404fd3:	0f be c0             	movsx  eax,al
  404fd6:	34 c6                	xor    al,0xc6
  404fd8:	3b 45 f0             	cmp    eax,DWORD PTR [ebp-0x10]
  404fdb:	74 0b                	je     404fe8 <_check+0x3ad4>
  404fdd:	8b 45 f4             	mov    eax,DWORD PTR [ebp-0xc]
  404fe0:	89 04 24             	mov    DWORD PTR [esp],eax
  404fe3:	e8 58 c3 ff ff       	call   401340 <_badboy>
  404fe8:	83 45 f4 01          	add    DWORD PTR [ebp-0xc],0x1
  404fec:	c7 45 f0 f9 00 00 00 	mov    DWORD PTR [ebp-0x10],0xf9
  404ff3:	8b 55 f4             	mov    edx,DWORD PTR [ebp-0xc]
  404ff6:	8b 45 08             	mov    eax,DWORD PTR [ebp+0x8]
  404ff9:	01 d0                	add    eax,edx
  404ffb:	0f b6 00             	movzx  eax,BYTE PTR [eax]
  404ffe:	0f be c0             	movsx  eax,al
  405001:	34 9b                	xor    al,0x9b
  405003:	3b 45 f0             	cmp    eax,DWORD PTR [ebp-0x10]
  405006:	74 0b                	je     405013 <_check+0x3aff>
  405008:	8b 45 f4             	mov    eax,DWORD PTR [ebp-0xc]
  40500b:	89 04 24             	mov    DWORD PTR [esp],eax
  40500e:	e8 2d c3 ff ff       	call   401340 <_badboy>
  405013:	83 45 f4 01          	add    DWORD PTR [ebp-0xc],0x1
  405017:	c7 45 f0 d0 00 00 00 	mov    DWORD PTR [ebp-0x10],0xd0
  40501e:	8b 55 f4             	mov    edx,DWORD PTR [ebp-0xc]
  405021:	8b 45 08             	mov    eax,DWORD PTR [ebp+0x8]
  405024:	01 d0                	add    eax,edx
  405026:	0f b6 00             	movzx  eax,BYTE PTR [eax]
  405029:	0f be c0             	movsx  eax,al
  40502c:	34 a5                	xor    al,0xa5
  40502e:	3b 45 f0             	cmp    eax,DWORD PTR [ebp-0x10]
  405031:	74 0b                	je     40503e <_check+0x3b2a>
  405033:	8b 45 f4             	mov    eax,DWORD PTR [ebp-0xc]
  405036:	89 04 24             	mov    DWORD PTR [esp],eax
  405039:	e8 02 c3 ff ff       	call   401340 <_badboy>
  40503e:	83 45 f4 01          	add    DWORD PTR [ebp-0xc],0x1
  405042:	c7 45 f0 99 00 00 00 	mov    DWORD PTR [ebp-0x10],0x99
  405049:	8b 55 f4             	mov    edx,DWORD PTR [ebp-0xc]
  40504c:	8b 45 08             	mov    eax,DWORD PTR [ebp+0x8]
  40504f:	01 d0                	add    eax,edx
  405051:	0f b6 00             	movzx  eax,BYTE PTR [eax]
  405054:	0f be c0             	movsx  eax,al
  405057:	34 eb                	xor    al,0xeb
  405059:	3b 45 f0             	cmp    eax,DWORD PTR [ebp-0x10]
  40505c:	74 0b                	je     405069 <_check+0x3b55>
  40505e:	8b 45 f4             	mov    eax,DWORD PTR [ebp-0xc]
  405061:	89 04 24             	mov    DWORD PTR [esp],eax
  405064:	e8 d7 c2 ff ff       	call   401340 <_badboy>
  405069:	83 45 f4 01          	add    DWORD PTR [ebp-0xc],0x1
  40506d:	c7 45 f0 aa 00 00 00 	mov    DWORD PTR [ebp-0x10],0xaa
  405074:	8b 55 f4             	mov    edx,DWORD PTR [ebp-0xc]
  405077:	8b 45 08             	mov    eax,DWORD PTR [ebp+0x8]
  40507a:	01 d0                	add    eax,edx
  40507c:	0f b6 00             	movzx  eax,BYTE PTR [eax]
  40507f:	0f be c0             	movsx  eax,al
  405082:	34 8a                	xor    al,0x8a
  405084:	3b 45 f0             	cmp    eax,DWORD PTR [ebp-0x10]
  405087:	74 0b                	je     405094 <_check+0x3b80>
  405089:	8b 45 f4             	mov    eax,DWORD PTR [ebp-0xc]
  40508c:	89 04 24             	mov    DWORD PTR [esp],eax
  40508f:	e8 ac c2 ff ff       	call   401340 <_badboy>
  405094:	83 45 f4 01          	add    DWORD PTR [ebp-0xc],0x1
  405098:	c7 45 f0 fc 00 00 00 	mov    DWORD PTR [ebp-0x10],0xfc
  40509f:	8b 55 f4             	mov    edx,DWORD PTR [ebp-0xc]
  4050a2:	8b 45 08             	mov    eax,DWORD PTR [ebp+0x8]
  4050a5:	01 d0                	add    eax,edx
  4050a7:	0f b6 00             	movzx  eax,BYTE PTR [eax]
  4050aa:	0f be c0             	movsx  eax,al
  4050ad:	34 aa                	xor    al,0xaa
  4050af:	3b 45 f0             	cmp    eax,DWORD PTR [ebp-0x10]
  4050b2:	74 0b                	je     4050bf <_check+0x3bab>
  4050b4:	8b 45 f4             	mov    eax,DWORD PTR [ebp-0xc]
  4050b7:	89 04 24             	mov    DWORD PTR [esp],eax
  4050ba:	e8 81 c2 ff ff       	call   401340 <_badboy>
  4050bf:	83 45 f4 01          	add    DWORD PTR [ebp-0xc],0x1
  4050c3:	c7 45 f0 26 00 00 00 	mov    DWORD PTR [ebp-0x10],0x26
  4050ca:	8b 55 f4             	mov    edx,DWORD PTR [ebp-0xc]
  4050cd:	8b 45 08             	mov    eax,DWORD PTR [ebp+0x8]
  4050d0:	01 d0                	add    eax,edx
  4050d2:	0f b6 00             	movzx  eax,BYTE PTR [eax]
  4050d5:	83 f0 08             	xor    eax,0x8
  4050d8:	0f be c0             	movsx  eax,al
  4050db:	3b 45 f0             	cmp    eax,DWORD PTR [ebp-0x10]
  4050de:	74 0b                	je     4050eb <_check+0x3bd7>
  4050e0:	8b 45 f4             	mov    eax,DWORD PTR [ebp-0xc]
  4050e3:	89 04 24             	mov    DWORD PTR [esp],eax
  4050e6:	e8 55 c2 ff ff       	call   401340 <_badboy>
  4050eb:	83 45 f4 01          	add    DWORD PTR [ebp-0xc],0x1
  4050ef:	c7 45 f0 da 00 00 00 	mov    DWORD PTR [ebp-0x10],0xda
  4050f6:	8b 55 f4             	mov    edx,DWORD PTR [ebp-0xc]
  4050f9:	8b 45 08             	mov    eax,DWORD PTR [ebp+0x8]
  4050fc:	01 d0                	add    eax,edx
  4050fe:	0f b6 00             	movzx  eax,BYTE PTR [eax]
  405101:	0f be c0             	movsx  eax,al
  405104:	34 fa                	xor    al,0xfa
  405106:	3b 45 f0             	cmp    eax,DWORD PTR [ebp-0x10]
  405109:	74 0b                	je     405116 <_check+0x3c02>
  40510b:	8b 45 f4             	mov    eax,DWORD PTR [ebp-0xc]
  40510e:	89 04 24             	mov    DWORD PTR [esp],eax
  405111:	e8 2a c2 ff ff       	call   401340 <_badboy>
  405116:	83 45 f4 01          	add    DWORD PTR [ebp-0xc],0x1
  40511a:	c7 45 f0 71 00 00 00 	mov    DWORD PTR [ebp-0x10],0x71
  405121:	8b 55 f4             	mov    edx,DWORD PTR [ebp-0xc]
  405124:	8b 45 08             	mov    eax,DWORD PTR [ebp+0x8]
  405127:	01 d0                	add    eax,edx
  405129:	0f b6 00             	movzx  eax,BYTE PTR [eax]
  40512c:	83 f0 39             	xor    eax,0x39
  40512f:	0f be c0             	movsx  eax,al
  405132:	3b 45 f0             	cmp    eax,DWORD PTR [ebp-0x10]
  405135:	74 0b                	je     405142 <_check+0x3c2e>
  405137:	8b 45 f4             	mov    eax,DWORD PTR [ebp-0xc]
  40513a:	89 04 24             	mov    DWORD PTR [esp],eax
  40513d:	e8 fe c1 ff ff       	call   401340 <_badboy>
  405142:	83 45 f4 01          	add    DWORD PTR [ebp-0xc],0x1
  405146:	c7 45 f0 9c 00 00 00 	mov    DWORD PTR [ebp-0x10],0x9c
  40514d:	8b 55 f4             	mov    edx,DWORD PTR [ebp-0xc]
  405150:	8b 45 08             	mov    eax,DWORD PTR [ebp+0x8]
  405153:	01 d0                	add    eax,edx
  405155:	0f b6 00             	movzx  eax,BYTE PTR [eax]
  405158:	0f be c0             	movsx  eax,al
  40515b:	34 f9                	xor    al,0xf9
  40515d:	3b 45 f0             	cmp    eax,DWORD PTR [ebp-0x10]
  405160:	74 0b                	je     40516d <_check+0x3c59>
  405162:	8b 45 f4             	mov    eax,DWORD PTR [ebp-0xc]
  405165:	89 04 24             	mov    DWORD PTR [esp],eax
  405168:	e8 d3 c1 ff ff       	call   401340 <_badboy>
  40516d:	83 45 f4 01          	add    DWORD PTR [ebp-0xc],0x1
  405171:	c7 45 f0 f9 00 00 00 	mov    DWORD PTR [ebp-0x10],0xf9
  405178:	8b 55 f4             	mov    edx,DWORD PTR [ebp-0xc]
  40517b:	8b 45 08             	mov    eax,DWORD PTR [ebp+0x8]
  40517e:	01 d0                	add    eax,edx
  405180:	0f b6 00             	movzx  eax,BYTE PTR [eax]
  405183:	0f be c0             	movsx  eax,al
  405186:	34 d9                	xor    al,0xd9
  405188:	3b 45 f0             	cmp    eax,DWORD PTR [ebp-0x10]
  40518b:	74 0b                	je     405198 <_check+0x3c84>
  40518d:	8b 45 f4             	mov    eax,DWORD PTR [ebp-0xc]
  405190:	89 04 24             	mov    DWORD PTR [esp],eax
  405193:	e8 a8 c1 ff ff       	call   401340 <_badboy>
  405198:	83 45 f4 01          	add    DWORD PTR [ebp-0xc],0x1
  40519c:	c7 45 f0 2f 00 00 00 	mov    DWORD PTR [ebp-0x10],0x2f
  4051a3:	8b 55 f4             	mov    edx,DWORD PTR [ebp-0xc]
  4051a6:	8b 45 08             	mov    eax,DWORD PTR [ebp+0x8]
  4051a9:	01 d0                	add    eax,edx
  4051ab:	0f b6 00             	movzx  eax,BYTE PTR [eax]
  4051ae:	83 f0 4e             	xor    eax,0x4e
  4051b1:	0f be c0             	movsx  eax,al
  4051b4:	3b 45 f0             	cmp    eax,DWORD PTR [ebp-0x10]
  4051b7:	74 0b                	je     4051c4 <_check+0x3cb0>
  4051b9:	8b 45 f4             	mov    eax,DWORD PTR [ebp-0xc]
  4051bc:	89 04 24             	mov    DWORD PTR [esp],eax
  4051bf:	e8 7c c1 ff ff       	call   401340 <_badboy>
  4051c4:	83 45 f4 01          	add    DWORD PTR [ebp-0xc],0x1
  4051c8:	c7 45 f0 0f 00 00 00 	mov    DWORD PTR [ebp-0x10],0xf
  4051cf:	8b 55 f4             	mov    edx,DWORD PTR [ebp-0xc]
  4051d2:	8b 45 08             	mov    eax,DWORD PTR [ebp+0x8]
  4051d5:	01 d0                	add    eax,edx
  4051d7:	0f b6 00             	movzx  eax,BYTE PTR [eax]
  4051da:	83 f0 63             	xor    eax,0x63
  4051dd:	0f be c0             	movsx  eax,al
  4051e0:	3b 45 f0             	cmp    eax,DWORD PTR [ebp-0x10]
  4051e3:	74 0b                	je     4051f0 <_check+0x3cdc>
  4051e5:	8b 45 f4             	mov    eax,DWORD PTR [ebp-0xc]
  4051e8:	89 04 24             	mov    DWORD PTR [esp],eax
  4051eb:	e8 50 c1 ff ff       	call   401340 <_badboy>
  4051f0:	83 45 f4 01          	add    DWORD PTR [ebp-0xc],0x1
  4051f4:	c7 45 f0 c7 00 00 00 	mov    DWORD PTR [ebp-0x10],0xc7
  4051fb:	8b 55 f4             	mov    edx,DWORD PTR [ebp-0xc]
  4051fe:	8b 45 08             	mov    eax,DWORD PTR [ebp+0x8]
  405201:	01 d0                	add    eax,edx
  405203:	0f b6 00             	movzx  eax,BYTE PTR [eax]
  405206:	0f be c0             	movsx  eax,al
  405209:	34 b4                	xor    al,0xb4
  40520b:	3b 45 f0             	cmp    eax,DWORD PTR [ebp-0x10]
  40520e:	74 0b                	je     40521b <_check+0x3d07>
  405210:	8b 45 f4             	mov    eax,DWORD PTR [ebp-0xc]
  405213:	89 04 24             	mov    DWORD PTR [esp],eax
  405216:	e8 25 c1 ff ff       	call   401340 <_badboy>
  40521b:	83 45 f4 01          	add    DWORD PTR [ebp-0xc],0x1
  40521f:	c7 45 f0 c1 00 00 00 	mov    DWORD PTR [ebp-0x10],0xc1
  405226:	8b 55 f4             	mov    edx,DWORD PTR [ebp-0xc]
  405229:	8b 45 08             	mov    eax,DWORD PTR [ebp+0x8]
  40522c:	01 d0                	add    eax,edx
  40522e:	0f b6 00             	movzx  eax,BYTE PTR [eax]
  405231:	0f be c0             	movsx  eax,al
  405234:	34 ae                	xor    al,0xae
  405236:	3b 45 f0             	cmp    eax,DWORD PTR [ebp-0x10]
  405239:	74 0b                	je     405246 <_check+0x3d32>
  40523b:	8b 45 f4             	mov    eax,DWORD PTR [ebp-0xc]
  40523e:	89 04 24             	mov    DWORD PTR [esp],eax
  405241:	e8 fa c0 ff ff       	call   401340 <_badboy>
  405246:	83 45 f4 01          	add    DWORD PTR [ebp-0xc],0x1
  40524a:	c7 45 f0 df 00 00 00 	mov    DWORD PTR [ebp-0x10],0xdf
  405251:	8b 55 f4             	mov    edx,DWORD PTR [ebp-0xc]
  405254:	8b 45 08             	mov    eax,DWORD PTR [ebp+0x8]
  405257:	01 d0                	add    eax,edx
  405259:	0f b6 00             	movzx  eax,BYTE PTR [eax]
  40525c:	0f be c0             	movsx  eax,al
  40525f:	34 ff                	xor    al,0xff
  405261:	3b 45 f0             	cmp    eax,DWORD PTR [ebp-0x10]
  405264:	74 0b                	je     405271 <_check+0x3d5d>
  405266:	8b 45 f4             	mov    eax,DWORD PTR [ebp-0xc]
  405269:	89 04 24             	mov    DWORD PTR [esp],eax
  40526c:	e8 cf c0 ff ff       	call   401340 <_badboy>
  405271:	83 45 f4 01          	add    DWORD PTR [ebp-0xc],0x1
  405275:	c7 45 f0 fb 00 00 00 	mov    DWORD PTR [ebp-0x10],0xfb
  40527c:	8b 55 f4             	mov    edx,DWORD PTR [ebp-0xc]
  40527f:	8b 45 08             	mov    eax,DWORD PTR [ebp+0x8]
  405282:	01 d0                	add    eax,edx
  405284:	0f b6 00             	movzx  eax,BYTE PTR [eax]
  405287:	0f be c0             	movsx  eax,al
  40528a:	34 9a                	xor    al,0x9a
  40528c:	3b 45 f0             	cmp    eax,DWORD PTR [ebp-0x10]
  40528f:	74 0b                	je     40529c <_check+0x3d88>
  405291:	8b 45 f4             	mov    eax,DWORD PTR [ebp-0xc]
  405294:	89 04 24             	mov    DWORD PTR [esp],eax
  405297:	e8 a4 c0 ff ff       	call   401340 <_badboy>
  40529c:	83 45 f4 01          	add    DWORD PTR [ebp-0xc],0x1
  4052a0:	c7 45 f0 a2 00 00 00 	mov    DWORD PTR [ebp-0x10],0xa2
  4052a7:	8b 55 f4             	mov    edx,DWORD PTR [ebp-0xc]
  4052aa:	8b 45 08             	mov    eax,DWORD PTR [ebp+0x8]
  4052ad:	01 d0                	add    eax,edx
  4052af:	0f b6 00             	movzx  eax,BYTE PTR [eax]
  4052b2:	0f be c0             	movsx  eax,al
  4052b5:	34 d2                	xor    al,0xd2
  4052b7:	3b 45 f0             	cmp    eax,DWORD PTR [ebp-0x10]
  4052ba:	74 0b                	je     4052c7 <_check+0x3db3>
  4052bc:	8b 45 f4             	mov    eax,DWORD PTR [ebp-0xc]
  4052bf:	89 04 24             	mov    DWORD PTR [esp],eax
  4052c2:	e8 79 c0 ff ff       	call   401340 <_badboy>
  4052c7:	83 45 f4 01          	add    DWORD PTR [ebp-0xc],0x1
  4052cb:	c7 45 f0 d6 00 00 00 	mov    DWORD PTR [ebp-0x10],0xd6
  4052d2:	8b 55 f4             	mov    edx,DWORD PTR [ebp-0xc]
  4052d5:	8b 45 08             	mov    eax,DWORD PTR [ebp+0x8]
  4052d8:	01 d0                	add    eax,edx
  4052da:	0f b6 00             	movzx  eax,BYTE PTR [eax]
  4052dd:	0f be c0             	movsx  eax,al
  4052e0:	34 a6                	xor    al,0xa6
  4052e2:	3b 45 f0             	cmp    eax,DWORD PTR [ebp-0x10]
  4052e5:	74 0b                	je     4052f2 <_check+0x3dde>
  4052e7:	8b 45 f4             	mov    eax,DWORD PTR [ebp-0xc]
  4052ea:	89 04 24             	mov    DWORD PTR [esp],eax
  4052ed:	e8 4e c0 ff ff       	call   401340 <_badboy>
  4052f2:	83 45 f4 01          	add    DWORD PTR [ebp-0xc],0x1
  4052f6:	c7 45 f0 09 00 00 00 	mov    DWORD PTR [ebp-0x10],0x9
  4052fd:	8b 55 f4             	mov    edx,DWORD PTR [ebp-0xc]
  405300:	8b 45 08             	mov    eax,DWORD PTR [ebp+0x8]
  405303:	01 d0                	add    eax,edx
  405305:	0f b6 00             	movzx  eax,BYTE PTR [eax]
  405308:	83 f0 6c             	xor    eax,0x6c
  40530b:	0f be c0             	movsx  eax,al
  40530e:	3b 45 f0             	cmp    eax,DWORD PTR [ebp-0x10]
  405311:	74 0b                	je     40531e <_check+0x3e0a>
  405313:	8b 45 f4             	mov    eax,DWORD PTR [ebp-0xc]
  405316:	89 04 24             	mov    DWORD PTR [esp],eax
  405319:	e8 22 c0 ff ff       	call   401340 <_badboy>
  40531e:	83 45 f4 01          	add    DWORD PTR [ebp-0xc],0x1
  405322:	c7 45 f0 e5 00 00 00 	mov    DWORD PTR [ebp-0x10],0xe5
  405329:	8b 55 f4             	mov    edx,DWORD PTR [ebp-0xc]
  40532c:	8b 45 08             	mov    eax,DWORD PTR [ebp+0x8]
  40532f:	01 d0                	add    eax,edx
  405331:	0f b6 00             	movzx  eax,BYTE PTR [eax]
  405334:	0f be c0             	movsx  eax,al
  405337:	34 84                	xor    al,0x84
  405339:	3b 45 f0             	cmp    eax,DWORD PTR [ebp-0x10]
  40533c:	74 0b                	je     405349 <_check+0x3e35>
  40533e:	8b 45 f4             	mov    eax,DWORD PTR [ebp-0xc]
  405341:	89 04 24             	mov    DWORD PTR [esp],eax
  405344:	e8 f7 bf ff ff       	call   401340 <_badboy>
  405349:	83 45 f4 01          	add    DWORD PTR [ebp-0xc],0x1
  40534d:	c7 45 f0 6f 00 00 00 	mov    DWORD PTR [ebp-0x10],0x6f
  405354:	8b 55 f4             	mov    edx,DWORD PTR [ebp-0xc]
  405357:	8b 45 08             	mov    eax,DWORD PTR [ebp+0x8]
  40535a:	01 d0                	add    eax,edx
  40535c:	0f b6 00             	movzx  eax,BYTE PTR [eax]
  40535f:	83 f0 1d             	xor    eax,0x1d
  405362:	0f be c0             	movsx  eax,al
  405365:	3b 45 f0             	cmp    eax,DWORD PTR [ebp-0x10]
  405368:	74 0b                	je     405375 <_check+0x3e61>
  40536a:	8b 45 f4             	mov    eax,DWORD PTR [ebp-0xc]
  40536d:	89 04 24             	mov    DWORD PTR [esp],eax
  405370:	e8 cb bf ff ff       	call   401340 <_badboy>
  405375:	83 45 f4 01          	add    DWORD PTR [ebp-0xc],0x1
  405379:	c7 45 f0 97 00 00 00 	mov    DWORD PTR [ebp-0x10],0x97
  405380:	8b 55 f4             	mov    edx,DWORD PTR [ebp-0xc]
  405383:	8b 45 08             	mov    eax,DWORD PTR [ebp+0x8]
  405386:	01 d0                	add    eax,edx
  405388:	0f b6 00             	movzx  eax,BYTE PTR [eax]
  40538b:	0f be c0             	movsx  eax,al
  40538e:	34 e4                	xor    al,0xe4
  405390:	3b 45 f0             	cmp    eax,DWORD PTR [ebp-0x10]
  405393:	74 0b                	je     4053a0 <_check+0x3e8c>
  405395:	8b 45 f4             	mov    eax,DWORD PTR [ebp-0xc]
  405398:	89 04 24             	mov    DWORD PTR [esp],eax
  40539b:	e8 a0 bf ff ff       	call   401340 <_badboy>
  4053a0:	83 45 f4 01          	add    DWORD PTR [ebp-0xc],0x1
  4053a4:	c7 45 f0 24 00 00 00 	mov    DWORD PTR [ebp-0x10],0x24
  4053ab:	8b 55 f4             	mov    edx,DWORD PTR [ebp-0xc]
  4053ae:	8b 45 08             	mov    eax,DWORD PTR [ebp+0x8]
  4053b1:	01 d0                	add    eax,edx
  4053b3:	0f b6 00             	movzx  eax,BYTE PTR [eax]
  4053b6:	83 f0 04             	xor    eax,0x4
  4053b9:	0f be c0             	movsx  eax,al
  4053bc:	3b 45 f0             	cmp    eax,DWORD PTR [ebp-0x10]
  4053bf:	74 0b                	je     4053cc <_check+0x3eb8>
  4053c1:	8b 45 f4             	mov    eax,DWORD PTR [ebp-0xc]
  4053c4:	89 04 24             	mov    DWORD PTR [esp],eax
  4053c7:	e8 74 bf ff ff       	call   401340 <_badboy>
  4053cc:	83 45 f4 01          	add    DWORD PTR [ebp-0xc],0x1
  4053d0:	c7 45 f0 9d 00 00 00 	mov    DWORD PTR [ebp-0x10],0x9d
  4053d7:	8b 55 f4             	mov    edx,DWORD PTR [ebp-0xc]
  4053da:	8b 45 08             	mov    eax,DWORD PTR [ebp+0x8]
  4053dd:	01 d0                	add    eax,edx
  4053df:	0f b6 00             	movzx  eax,BYTE PTR [eax]
  4053e2:	0f be c0             	movsx  eax,al
  4053e5:	34 fc                	xor    al,0xfc
  4053e7:	3b 45 f0             	cmp    eax,DWORD PTR [ebp-0x10]
  4053ea:	74 0b                	je     4053f7 <_check+0x3ee3>
  4053ec:	8b 45 f4             	mov    eax,DWORD PTR [ebp-0xc]
  4053ef:	89 04 24             	mov    DWORD PTR [esp],eax
  4053f2:	e8 49 bf ff ff       	call   401340 <_badboy>
  4053f7:	83 45 f4 01          	add    DWORD PTR [ebp-0xc],0x1
  4053fb:	c7 45 f0 09 00 00 00 	mov    DWORD PTR [ebp-0x10],0x9
  405402:	8b 55 f4             	mov    edx,DWORD PTR [ebp-0xc]
  405405:	8b 45 08             	mov    eax,DWORD PTR [ebp+0x8]
  405408:	01 d0                	add    eax,edx
  40540a:	0f b6 00             	movzx  eax,BYTE PTR [eax]
  40540d:	83 f0 7a             	xor    eax,0x7a
  405410:	0f be c0             	movsx  eax,al
  405413:	3b 45 f0             	cmp    eax,DWORD PTR [ebp-0x10]
  405416:	74 0b                	je     405423 <_check+0x3f0f>
  405418:	8b 45 f4             	mov    eax,DWORD PTR [ebp-0xc]
  40541b:	89 04 24             	mov    DWORD PTR [esp],eax
  40541e:	e8 1d bf ff ff       	call   401340 <_badboy>
  405423:	83 45 f4 01          	add    DWORD PTR [ebp-0xc],0x1
  405427:	c7 45 f0 12 00 00 00 	mov    DWORD PTR [ebp-0x10],0x12
  40542e:	8b 55 f4             	mov    edx,DWORD PTR [ebp-0xc]
  405431:	8b 45 08             	mov    eax,DWORD PTR [ebp+0x8]
  405434:	01 d0                	add    eax,edx
  405436:	0f b6 00             	movzx  eax,BYTE PTR [eax]
  405439:	83 f0 32             	xor    eax,0x32
  40543c:	0f be c0             	movsx  eax,al
  40543f:	3b 45 f0             	cmp    eax,DWORD PTR [ebp-0x10]
  405442:	74 0b                	je     40544f <_check+0x3f3b>
  405444:	8b 45 f4             	mov    eax,DWORD PTR [ebp-0xc]
  405447:	89 04 24             	mov    DWORD PTR [esp],eax
  40544a:	e8 f1 be ff ff       	call   401340 <_badboy>
  40544f:	83 45 f4 01          	add    DWORD PTR [ebp-0xc],0x1
  405453:	c7 45 f0 de 00 00 00 	mov    DWORD PTR [ebp-0x10],0xde
  40545a:	8b 55 f4             	mov    edx,DWORD PTR [ebp-0xc]
  40545d:	8b 45 08             	mov    eax,DWORD PTR [ebp+0x8]
  405460:	01 d0                	add    eax,edx
  405462:	0f b6 00             	movzx  eax,BYTE PTR [eax]
  405465:	0f be c0             	movsx  eax,al
  405468:	34 bf                	xor    al,0xbf
  40546a:	3b 45 f0             	cmp    eax,DWORD PTR [ebp-0x10]
  40546d:	74 0b                	je     40547a <_check+0x3f66>
  40546f:	8b 45 f4             	mov    eax,DWORD PTR [ebp-0xc]
  405472:	89 04 24             	mov    DWORD PTR [esp],eax
  405475:	e8 c6 be ff ff       	call   401340 <_badboy>
  40547a:	83 45 f4 01          	add    DWORD PTR [ebp-0xc],0x1
  40547e:	c7 45 f0 08 00 00 00 	mov    DWORD PTR [ebp-0x10],0x8
  405485:	8b 55 f4             	mov    edx,DWORD PTR [ebp-0xc]
  405488:	8b 45 08             	mov    eax,DWORD PTR [ebp+0x8]
  40548b:	01 d0                	add    eax,edx
  40548d:	0f b6 00             	movzx  eax,BYTE PTR [eax]
  405490:	83 f0 28             	xor    eax,0x28
  405493:	0f be c0             	movsx  eax,al
  405496:	3b 45 f0             	cmp    eax,DWORD PTR [ebp-0x10]
  405499:	74 0b                	je     4054a6 <_check+0x3f92>
  40549b:	8b 45 f4             	mov    eax,DWORD PTR [ebp-0xc]
  40549e:	89 04 24             	mov    DWORD PTR [esp],eax
  4054a1:	e8 9a be ff ff       	call   401340 <_badboy>
  4054a6:	83 45 f4 01          	add    DWORD PTR [ebp-0xc],0x1
  4054aa:	c7 45 f0 cb 00 00 00 	mov    DWORD PTR [ebp-0x10],0xcb
  4054b1:	8b 55 f4             	mov    edx,DWORD PTR [ebp-0xc]
  4054b4:	8b 45 08             	mov    eax,DWORD PTR [ebp+0x8]
  4054b7:	01 d0                	add    eax,edx
  4054b9:	0f b6 00             	movzx  eax,BYTE PTR [eax]
  4054bc:	0f be c0             	movsx  eax,al
  4054bf:	34 bb                	xor    al,0xbb
  4054c1:	3b 45 f0             	cmp    eax,DWORD PTR [ebp-0x10]
  4054c4:	74 0b                	je     4054d1 <_check+0x3fbd>
  4054c6:	8b 45 f4             	mov    eax,DWORD PTR [ebp-0xc]
  4054c9:	89 04 24             	mov    DWORD PTR [esp],eax
  4054cc:	e8 6f be ff ff       	call   401340 <_badboy>
  4054d1:	83 45 f4 01          	add    DWORD PTR [ebp-0xc],0x1
  4054d5:	c7 45 f0 8a 00 00 00 	mov    DWORD PTR [ebp-0x10],0x8a
  4054dc:	8b 55 f4             	mov    edx,DWORD PTR [ebp-0xc]
  4054df:	8b 45 08             	mov    eax,DWORD PTR [ebp+0x8]
  4054e2:	01 d0                	add    eax,edx
  4054e4:	0f b6 00             	movzx  eax,BYTE PTR [eax]
  4054e7:	0f be c0             	movsx  eax,al
  4054ea:	34 e6                	xor    al,0xe6
  4054ec:	3b 45 f0             	cmp    eax,DWORD PTR [ebp-0x10]
  4054ef:	74 0b                	je     4054fc <_check+0x3fe8>
  4054f1:	8b 45 f4             	mov    eax,DWORD PTR [ebp-0xc]
  4054f4:	89 04 24             	mov    DWORD PTR [esp],eax
  4054f7:	e8 44 be ff ff       	call   401340 <_badboy>
  4054fc:	83 45 f4 01          	add    DWORD PTR [ebp-0xc],0x1
  405500:	c7 45 f0 cc 00 00 00 	mov    DWORD PTR [ebp-0x10],0xcc
  405507:	8b 55 f4             	mov    edx,DWORD PTR [ebp-0xc]
  40550a:	8b 45 08             	mov    eax,DWORD PTR [ebp+0x8]
  40550d:	01 d0                	add    eax,edx
  40550f:	0f b6 00             	movzx  eax,BYTE PTR [eax]
  405512:	0f be c0             	movsx  eax,al
  405515:	34 ad                	xor    al,0xad
  405517:	3b 45 f0             	cmp    eax,DWORD PTR [ebp-0x10]
  40551a:	74 0b                	je     405527 <_check+0x4013>
  40551c:	8b 45 f4             	mov    eax,DWORD PTR [ebp-0xc]
  40551f:	89 04 24             	mov    DWORD PTR [esp],eax
  405522:	e8 19 be ff ff       	call   401340 <_badboy>
  405527:	83 45 f4 01          	add    DWORD PTR [ebp-0xc],0x1
  40552b:	c7 45 f0 71 00 00 00 	mov    DWORD PTR [ebp-0x10],0x71
  405532:	8b 55 f4             	mov    edx,DWORD PTR [ebp-0xc]
  405535:	8b 45 08             	mov    eax,DWORD PTR [ebp+0x8]
  405538:	01 d0                	add    eax,edx
  40553a:	0f b6 00             	movzx  eax,BYTE PTR [eax]
  40553d:	83 f0 08             	xor    eax,0x8
  405540:	0f be c0             	movsx  eax,al
  405543:	3b 45 f0             	cmp    eax,DWORD PTR [ebp-0x10]
  405546:	74 0b                	je     405553 <_check+0x403f>
  405548:	8b 45 f4             	mov    eax,DWORD PTR [ebp-0xc]
  40554b:	89 04 24             	mov    DWORD PTR [esp],eax
  40554e:	e8 ed bd ff ff       	call   401340 <_badboy>
  405553:	83 45 f4 01          	add    DWORD PTR [ebp-0xc],0x1
  405557:	c7 45 f0 d9 00 00 00 	mov    DWORD PTR [ebp-0x10],0xd9
  40555e:	8b 55 f4             	mov    edx,DWORD PTR [ebp-0xc]
  405561:	8b 45 08             	mov    eax,DWORD PTR [ebp+0x8]
  405564:	01 d0                	add    eax,edx
  405566:	0f b6 00             	movzx  eax,BYTE PTR [eax]
  405569:	0f be c0             	movsx  eax,al
  40556c:	34 b8                	xor    al,0xb8
  40556e:	3b 45 f0             	cmp    eax,DWORD PTR [ebp-0x10]
  405571:	74 0b                	je     40557e <_check+0x406a>
  405573:	8b 45 f4             	mov    eax,DWORD PTR [ebp-0xc]
  405576:	89 04 24             	mov    DWORD PTR [esp],eax
  405579:	e8 c2 bd ff ff       	call   401340 <_badboy>
  40557e:	83 45 f4 01          	add    DWORD PTR [ebp-0xc],0x1
  405582:	c7 45 f0 22 00 00 00 	mov    DWORD PTR [ebp-0x10],0x22
  405589:	8b 55 f4             	mov    edx,DWORD PTR [ebp-0xc]
  40558c:	8b 45 08             	mov    eax,DWORD PTR [ebp+0x8]
  40558f:	01 d0                	add    eax,edx
  405591:	0f b6 00             	movzx  eax,BYTE PTR [eax]
  405594:	83 f0 40             	xor    eax,0x40
  405597:	0f be c0             	movsx  eax,al
  40559a:	3b 45 f0             	cmp    eax,DWORD PTR [ebp-0x10]
  40559d:	74 0b                	je     4055aa <_check+0x4096>
  40559f:	8b 45 f4             	mov    eax,DWORD PTR [ebp-0xc]
  4055a2:	89 04 24             	mov    DWORD PTR [esp],eax
  4055a5:	e8 96 bd ff ff       	call   401340 <_badboy>
  4055aa:	83 45 f4 01          	add    DWORD PTR [ebp-0xc],0x1
  4055ae:	c7 45 f0 ef 00 00 00 	mov    DWORD PTR [ebp-0x10],0xef
  4055b5:	8b 55 f4             	mov    edx,DWORD PTR [ebp-0xc]
  4055b8:	8b 45 08             	mov    eax,DWORD PTR [ebp+0x8]
  4055bb:	01 d0                	add    eax,edx
  4055bd:	0f b6 00             	movzx  eax,BYTE PTR [eax]
  4055c0:	0f be c0             	movsx  eax,al
  4055c3:	34 83                	xor    al,0x83
  4055c5:	3b 45 f0             	cmp    eax,DWORD PTR [ebp-0x10]
  4055c8:	74 0b                	je     4055d5 <_check+0x40c1>
  4055ca:	8b 45 f4             	mov    eax,DWORD PTR [ebp-0xc]
  4055cd:	89 04 24             	mov    DWORD PTR [esp],eax
  4055d0:	e8 6b bd ff ff       	call   401340 <_badboy>
  4055d5:	83 45 f4 01          	add    DWORD PTR [ebp-0xc],0x1
  4055d9:	c7 45 f0 75 00 00 00 	mov    DWORD PTR [ebp-0x10],0x75
  4055e0:	8b 55 f4             	mov    edx,DWORD PTR [ebp-0xc]
  4055e3:	8b 45 08             	mov    eax,DWORD PTR [ebp+0x8]
  4055e6:	01 d0                	add    eax,edx
  4055e8:	0f b6 00             	movzx  eax,BYTE PTR [eax]
  4055eb:	83 f0 10             	xor    eax,0x10
  4055ee:	0f be c0             	movsx  eax,al
  4055f1:	3b 45 f0             	cmp    eax,DWORD PTR [ebp-0x10]
  4055f4:	74 0b                	je     405601 <_check+0x40ed>
  4055f6:	8b 45 f4             	mov    eax,DWORD PTR [ebp-0xc]
  4055f9:	89 04 24             	mov    DWORD PTR [esp],eax
  4055fc:	e8 3f bd ff ff       	call   401340 <_badboy>
  405601:	83 45 f4 01          	add    DWORD PTR [ebp-0xc],0x1
  405605:	c7 45 f0 45 00 00 00 	mov    DWORD PTR [ebp-0x10],0x45
  40560c:	8b 55 f4             	mov    edx,DWORD PTR [ebp-0xc]
  40560f:	8b 45 08             	mov    eax,DWORD PTR [ebp+0x8]
  405612:	01 d0                	add    eax,edx
  405614:	0f b6 00             	movzx  eax,BYTE PTR [eax]
  405617:	83 f0 65             	xor    eax,0x65
  40561a:	0f be c0             	movsx  eax,al
  40561d:	3b 45 f0             	cmp    eax,DWORD PTR [ebp-0x10]
  405620:	74 0b                	je     40562d <_check+0x4119>
  405622:	8b 45 f4             	mov    eax,DWORD PTR [ebp-0xc]
  405625:	89 04 24             	mov    DWORD PTR [esp],eax
  405628:	e8 13 bd ff ff       	call   401340 <_badboy>
  40562d:	83 45 f4 01          	add    DWORD PTR [ebp-0xc],0x1
  405631:	c7 45 f0 46 00 00 00 	mov    DWORD PTR [ebp-0x10],0x46
  405638:	8b 55 f4             	mov    edx,DWORD PTR [ebp-0xc]
  40563b:	8b 45 08             	mov    eax,DWORD PTR [ebp+0x8]
  40563e:	01 d0                	add    eax,edx
  405640:	0f b6 00             	movzx  eax,BYTE PTR [eax]
  405643:	83 f0 25             	xor    eax,0x25
  405646:	0f be c0             	movsx  eax,al
  405649:	3b 45 f0             	cmp    eax,DWORD PTR [ebp-0x10]
  40564c:	74 0b                	je     405659 <_check+0x4145>
  40564e:	8b 45 f4             	mov    eax,DWORD PTR [ebp-0xc]
  405651:	89 04 24             	mov    DWORD PTR [esp],eax
  405654:	e8 e7 bc ff ff       	call   401340 <_badboy>
  405659:	83 45 f4 01          	add    DWORD PTR [ebp-0xc],0x1
  40565d:	c7 45 f0 35 00 00 00 	mov    DWORD PTR [ebp-0x10],0x35
  405664:	8b 55 f4             	mov    edx,DWORD PTR [ebp-0xc]
  405667:	8b 45 08             	mov    eax,DWORD PTR [ebp+0x8]
  40566a:	01 d0                	add    eax,edx
  40566c:	0f b6 00             	movzx  eax,BYTE PTR [eax]
  40566f:	83 f0 5d             	xor    eax,0x5d
  405672:	0f be c0             	movsx  eax,al
  405675:	3b 45 f0             	cmp    eax,DWORD PTR [ebp-0x10]
  405678:	74 0b                	je     405685 <_check+0x4171>
  40567a:	8b 45 f4             	mov    eax,DWORD PTR [ebp-0xc]
  40567d:	89 04 24             	mov    DWORD PTR [esp],eax
  405680:	e8 bb bc ff ff       	call   401340 <_badboy>
  405685:	83 45 f4 01          	add    DWORD PTR [ebp-0xc],0x1
  405689:	c7 45 f0 f8 00 00 00 	mov    DWORD PTR [ebp-0x10],0xf8
  405690:	8b 55 f4             	mov    edx,DWORD PTR [ebp-0xc]
  405693:	8b 45 08             	mov    eax,DWORD PTR [ebp+0x8]
  405696:	01 d0                	add    eax,edx
  405698:	0f b6 00             	movzx  eax,BYTE PTR [eax]
  40569b:	0f be c0             	movsx  eax,al
  40569e:	34 99                	xor    al,0x99
  4056a0:	3b 45 f0             	cmp    eax,DWORD PTR [ebp-0x10]
  4056a3:	74 0b                	je     4056b0 <_check+0x419c>
  4056a5:	8b 45 f4             	mov    eax,DWORD PTR [ebp-0xc]
  4056a8:	89 04 24             	mov    DWORD PTR [esp],eax
  4056ab:	e8 90 bc ff ff       	call   401340 <_badboy>
  4056b0:	83 45 f4 01          	add    DWORD PTR [ebp-0xc],0x1
  4056b4:	c7 45 f0 35 00 00 00 	mov    DWORD PTR [ebp-0x10],0x35
  4056bb:	8b 55 f4             	mov    edx,DWORD PTR [ebp-0xc]
  4056be:	8b 45 08             	mov    eax,DWORD PTR [ebp+0x8]
  4056c1:	01 d0                	add    eax,edx
  4056c3:	0f b6 00             	movzx  eax,BYTE PTR [eax]
  4056c6:	83 f0 47             	xor    eax,0x47
  4056c9:	0f be c0             	movsx  eax,al
  4056cc:	3b 45 f0             	cmp    eax,DWORD PTR [ebp-0x10]
  4056cf:	74 0b                	je     4056dc <_check+0x41c8>
  4056d1:	8b 45 f4             	mov    eax,DWORD PTR [ebp-0xc]
  4056d4:	89 04 24             	mov    DWORD PTR [esp],eax
  4056d7:	e8 64 bc ff ff       	call   401340 <_badboy>
  4056dc:	83 45 f4 01          	add    DWORD PTR [ebp-0xc],0x1
  4056e0:	c7 45 f0 73 00 00 00 	mov    DWORD PTR [ebp-0x10],0x73
  4056e7:	8b 55 f4             	mov    edx,DWORD PTR [ebp-0xc]
  4056ea:	8b 45 08             	mov    eax,DWORD PTR [ebp+0x8]
  4056ed:	01 d0                	add    eax,edx
  4056ef:	0f b6 00             	movzx  eax,BYTE PTR [eax]
  4056f2:	83 f0 12             	xor    eax,0x12
  4056f5:	0f be c0             	movsx  eax,al
  4056f8:	3b 45 f0             	cmp    eax,DWORD PTR [ebp-0x10]
  4056fb:	74 0b                	je     405708 <_check+0x41f4>
  4056fd:	8b 45 f4             	mov    eax,DWORD PTR [ebp-0xc]
  405700:	89 04 24             	mov    DWORD PTR [esp],eax
  405703:	e8 38 bc ff ff       	call   401340 <_badboy>
  405708:	83 45 f4 01          	add    DWORD PTR [ebp-0xc],0x1
  40570c:	c7 45 f0 37 00 00 00 	mov    DWORD PTR [ebp-0x10],0x37
  405713:	8b 55 f4             	mov    edx,DWORD PTR [ebp-0xc]
  405716:	8b 45 08             	mov    eax,DWORD PTR [ebp+0x8]
  405719:	01 d0                	add    eax,edx
  40571b:	0f b6 00             	movzx  eax,BYTE PTR [eax]
  40571e:	83 f0 54             	xor    eax,0x54
  405721:	0f be c0             	movsx  eax,al
  405724:	3b 45 f0             	cmp    eax,DWORD PTR [ebp-0x10]
  405727:	74 0b                	je     405734 <_check+0x4220>
  405729:	8b 45 f4             	mov    eax,DWORD PTR [ebp-0xc]
  40572c:	89 04 24             	mov    DWORD PTR [esp],eax
  40572f:	e8 0c bc ff ff       	call   401340 <_badboy>
  405734:	83 45 f4 01          	add    DWORD PTR [ebp-0xc],0x1
  405738:	c7 45 f0 40 00 00 00 	mov    DWORD PTR [ebp-0x10],0x40
  40573f:	8b 55 f4             	mov    edx,DWORD PTR [ebp-0xc]
  405742:	8b 45 08             	mov    eax,DWORD PTR [ebp+0x8]
  405745:	01 d0                	add    eax,edx
  405747:	0f b6 00             	movzx  eax,BYTE PTR [eax]
  40574a:	83 f0 34             	xor    eax,0x34
  40574d:	0f be c0             	movsx  eax,al
  405750:	3b 45 f0             	cmp    eax,DWORD PTR [ebp-0x10]
  405753:	74 0b                	je     405760 <_check+0x424c>
  405755:	8b 45 f4             	mov    eax,DWORD PTR [ebp-0xc]
  405758:	89 04 24             	mov    DWORD PTR [esp],eax
  40575b:	e8 e0 bb ff ff       	call   401340 <_badboy>
  405760:	83 45 f4 01          	add    DWORD PTR [ebp-0xc],0x1
  405764:	c7 45 f0 99 00 00 00 	mov    DWORD PTR [ebp-0x10],0x99
  40576b:	8b 55 f4             	mov    edx,DWORD PTR [ebp-0xc]
  40576e:	8b 45 08             	mov    eax,DWORD PTR [ebp+0x8]
  405771:	01 d0                	add    eax,edx
  405773:	0f b6 00             	movzx  eax,BYTE PTR [eax]
  405776:	0f be c0             	movsx  eax,al
  405779:	34 fc                	xor    al,0xfc
  40577b:	3b 45 f0             	cmp    eax,DWORD PTR [ebp-0x10]
  40577e:	74 0b                	je     40578b <_check+0x4277>
  405780:	8b 45 f4             	mov    eax,DWORD PTR [ebp-0xc]
  405783:	89 04 24             	mov    DWORD PTR [esp],eax
  405786:	e8 b5 bb ff ff       	call   401340 <_badboy>
  40578b:	83 45 f4 01          	add    DWORD PTR [ebp-0xc],0x1
  40578f:	c7 45 f0 98 00 00 00 	mov    DWORD PTR [ebp-0x10],0x98
  405796:	8b 55 f4             	mov    edx,DWORD PTR [ebp-0xc]
  405799:	8b 45 08             	mov    eax,DWORD PTR [ebp+0x8]
  40579c:	01 d0                	add    eax,edx
  40579e:	0f b6 00             	movzx  eax,BYTE PTR [eax]
  4057a1:	0f be c0             	movsx  eax,al
  4057a4:	34 ea                	xor    al,0xea
  4057a6:	3b 45 f0             	cmp    eax,DWORD PTR [ebp-0x10]
  4057a9:	74 0b                	je     4057b6 <_check+0x42a2>
  4057ab:	8b 45 f4             	mov    eax,DWORD PTR [ebp-0xc]
  4057ae:	89 04 24             	mov    DWORD PTR [esp],eax
  4057b1:	e8 8a bb ff ff       	call   401340 <_badboy>
  4057b6:	83 45 f4 01          	add    DWORD PTR [ebp-0xc],0x1
  4057ba:	c7 45 f0 4d 00 00 00 	mov    DWORD PTR [ebp-0x10],0x4d
  4057c1:	8b 55 f4             	mov    edx,DWORD PTR [ebp-0xc]
  4057c4:	8b 45 08             	mov    eax,DWORD PTR [ebp+0x8]
  4057c7:	01 d0                	add    eax,edx
  4057c9:	0f b6 00             	movzx  eax,BYTE PTR [eax]
  4057cc:	83 f0 6d             	xor    eax,0x6d
  4057cf:	0f be c0             	movsx  eax,al
  4057d2:	3b 45 f0             	cmp    eax,DWORD PTR [ebp-0x10]
  4057d5:	74 0b                	je     4057e2 <_check+0x42ce>
  4057d7:	8b 45 f4             	mov    eax,DWORD PTR [ebp-0xc]
  4057da:	89 04 24             	mov    DWORD PTR [esp],eax
  4057dd:	e8 5e bb ff ff       	call   401340 <_badboy>
  4057e2:	83 45 f4 01          	add    DWORD PTR [ebp-0xc],0x1
  4057e6:	c7 45 f0 2e 00 00 00 	mov    DWORD PTR [ebp-0x10],0x2e
  4057ed:	8b 55 f4             	mov    edx,DWORD PTR [ebp-0xc]
  4057f0:	8b 45 08             	mov    eax,DWORD PTR [ebp+0x8]
  4057f3:	01 d0                	add    eax,edx
  4057f5:	0f b6 00             	movzx  eax,BYTE PTR [eax]
  4057f8:	83 f0 47             	xor    eax,0x47
  4057fb:	0f be c0             	movsx  eax,al
  4057fe:	3b 45 f0             	cmp    eax,DWORD PTR [ebp-0x10]
  405801:	74 0b                	je     40580e <_check+0x42fa>
  405803:	8b 45 f4             	mov    eax,DWORD PTR [ebp-0xc]
  405806:	89 04 24             	mov    DWORD PTR [esp],eax
  405809:	e8 32 bb ff ff       	call   401340 <_badboy>
  40580e:	83 45 f4 01          	add    DWORD PTR [ebp-0xc],0x1
  405812:	c7 45 f0 b1 00 00 00 	mov    DWORD PTR [ebp-0x10],0xb1
  405819:	8b 55 f4             	mov    edx,DWORD PTR [ebp-0xc]
  40581c:	8b 45 08             	mov    eax,DWORD PTR [ebp+0x8]
  40581f:	01 d0                	add    eax,edx
  405821:	0f b6 00             	movzx  eax,BYTE PTR [eax]
  405824:	0f be c0             	movsx  eax,al
  405827:	34 df                	xor    al,0xdf
  405829:	3b 45 f0             	cmp    eax,DWORD PTR [ebp-0x10]
  40582c:	74 0b                	je     405839 <_check+0x4325>
  40582e:	8b 45 f4             	mov    eax,DWORD PTR [ebp-0xc]
  405831:	89 04 24             	mov    DWORD PTR [esp],eax
  405834:	e8 07 bb ff ff       	call   401340 <_badboy>
  405839:	83 45 f4 01          	add    DWORD PTR [ebp-0xc],0x1
  40583d:	c7 45 f0 12 00 00 00 	mov    DWORD PTR [ebp-0x10],0x12
  405844:	8b 55 f4             	mov    edx,DWORD PTR [ebp-0xc]
  405847:	8b 45 08             	mov    eax,DWORD PTR [ebp+0x8]
  40584a:	01 d0                	add    eax,edx
  40584c:	0f b6 00             	movzx  eax,BYTE PTR [eax]
  40584f:	83 f0 32             	xor    eax,0x32
  405852:	0f be c0             	movsx  eax,al
  405855:	3b 45 f0             	cmp    eax,DWORD PTR [ebp-0x10]
  405858:	74 0b                	je     405865 <_check+0x4351>
  40585a:	8b 45 f4             	mov    eax,DWORD PTR [ebp-0xc]
  40585d:	89 04 24             	mov    DWORD PTR [esp],eax
  405860:	e8 db ba ff ff       	call   401340 <_badboy>
  405865:	83 45 f4 01          	add    DWORD PTR [ebp-0xc],0x1
  405869:	c7 45 f0 f7 00 00 00 	mov    DWORD PTR [ebp-0x10],0xf7
  405870:	8b 55 f4             	mov    edx,DWORD PTR [ebp-0xc]
  405873:	8b 45 08             	mov    eax,DWORD PTR [ebp+0x8]
  405876:	01 d0                	add    eax,edx
  405878:	0f b6 00             	movzx  eax,BYTE PTR [eax]
  40587b:	0f be c0             	movsx  eax,al
  40587e:	34 a4                	xor    al,0xa4
  405880:	3b 45 f0             	cmp    eax,DWORD PTR [ebp-0x10]
  405883:	74 0b                	je     405890 <_check+0x437c>
  405885:	8b 45 f4             	mov    eax,DWORD PTR [ebp-0xc]
  405888:	89 04 24             	mov    DWORD PTR [esp],eax
  40588b:	e8 b0 ba ff ff       	call   401340 <_badboy>
  405890:	83 45 f4 01          	add    DWORD PTR [ebp-0xc],0x1
  405894:	c7 45 f0 59 00 00 00 	mov    DWORD PTR [ebp-0x10],0x59
  40589b:	8b 55 f4             	mov    edx,DWORD PTR [ebp-0xc]
  40589e:	8b 45 08             	mov    eax,DWORD PTR [ebp+0x8]
  4058a1:	01 d0                	add    eax,edx
  4058a3:	0f b6 00             	movzx  eax,BYTE PTR [eax]
  4058a6:	83 f0 36             	xor    eax,0x36
  4058a9:	0f be c0             	movsx  eax,al
  4058ac:	3b 45 f0             	cmp    eax,DWORD PTR [ebp-0x10]
  4058af:	74 0b                	je     4058bc <_check+0x43a8>
  4058b1:	8b 45 f4             	mov    eax,DWORD PTR [ebp-0xc]
  4058b4:	89 04 24             	mov    DWORD PTR [esp],eax
  4058b7:	e8 84 ba ff ff       	call   401340 <_badboy>
  4058bc:	83 45 f4 01          	add    DWORD PTR [ebp-0xc],0x1
  4058c0:	c7 45 f0 b7 00 00 00 	mov    DWORD PTR [ebp-0x10],0xb7
  4058c7:	8b 55 f4             	mov    edx,DWORD PTR [ebp-0xc]
  4058ca:	8b 45 08             	mov    eax,DWORD PTR [ebp+0x8]
  4058cd:	01 d0                	add    eax,edx
  4058cf:	0f b6 00             	movzx  eax,BYTE PTR [eax]
  4058d2:	0f be c0             	movsx  eax,al
  4058d5:	34 c2                	xor    al,0xc2
  4058d7:	3b 45 f0             	cmp    eax,DWORD PTR [ebp-0x10]
  4058da:	74 0b                	je     4058e7 <_check+0x43d3>
  4058dc:	8b 45 f4             	mov    eax,DWORD PTR [ebp-0xc]
  4058df:	89 04 24             	mov    DWORD PTR [esp],eax
  4058e2:	e8 59 ba ff ff       	call   401340 <_badboy>
  4058e7:	83 45 f4 01          	add    DWORD PTR [ebp-0xc],0x1
  4058eb:	c7 45 f0 f1 00 00 00 	mov    DWORD PTR [ebp-0x10],0xf1
  4058f2:	8b 55 f4             	mov    edx,DWORD PTR [ebp-0xc]
  4058f5:	8b 45 08             	mov    eax,DWORD PTR [ebp+0x8]
  4058f8:	01 d0                	add    eax,edx
  4058fa:	0f b6 00             	movzx  eax,BYTE PTR [eax]
  4058fd:	0f be c0             	movsx  eax,al
  405900:	34 9d                	xor    al,0x9d
  405902:	3b 45 f0             	cmp    eax,DWORD PTR [ebp-0x10]
  405905:	74 0b                	je     405912 <_check+0x43fe>
  405907:	8b 45 f4             	mov    eax,DWORD PTR [ebp-0xc]
  40590a:	89 04 24             	mov    DWORD PTR [esp],eax
  40590d:	e8 2e ba ff ff       	call   401340 <_badboy>
  405912:	83 45 f4 01          	add    DWORD PTR [ebp-0xc],0x1
  405916:	c7 45 f0 88 00 00 00 	mov    DWORD PTR [ebp-0x10],0x88
  40591d:	8b 55 f4             	mov    edx,DWORD PTR [ebp-0xc]
  405920:	8b 45 08             	mov    eax,DWORD PTR [ebp+0x8]
  405923:	01 d0                	add    eax,edx
  405925:	0f b6 00             	movzx  eax,BYTE PTR [eax]
  405928:	0f be c0             	movsx  eax,al
  40592b:	34 eb                	xor    al,0xeb
  40592d:	3b 45 f0             	cmp    eax,DWORD PTR [ebp-0x10]
  405930:	74 0b                	je     40593d <_check+0x4429>
  405932:	8b 45 f4             	mov    eax,DWORD PTR [ebp-0xc]
  405935:	89 04 24             	mov    DWORD PTR [esp],eax
  405938:	e8 03 ba ff ff       	call   401340 <_badboy>
  40593d:	83 45 f4 01          	add    DWORD PTR [ebp-0xc],0x1
  405941:	c7 45 f0 c7 00 00 00 	mov    DWORD PTR [ebp-0x10],0xc7
  405948:	8b 55 f4             	mov    edx,DWORD PTR [ebp-0xc]
  40594b:	8b 45 08             	mov    eax,DWORD PTR [ebp+0x8]
  40594e:	01 d0                	add    eax,edx
  405950:	0f b6 00             	movzx  eax,BYTE PTR [eax]
  405953:	0f be c0             	movsx  eax,al
  405956:	34 a6                	xor    al,0xa6
  405958:	3b 45 f0             	cmp    eax,DWORD PTR [ebp-0x10]
  40595b:	74 0b                	je     405968 <_check+0x4454>
  40595d:	8b 45 f4             	mov    eax,DWORD PTR [ebp-0xc]
  405960:	89 04 24             	mov    DWORD PTR [esp],eax
  405963:	e8 d8 b9 ff ff       	call   401340 <_badboy>
  405968:	83 45 f4 01          	add    DWORD PTR [ebp-0xc],0x1
  40596c:	c7 45 f0 9e 00 00 00 	mov    DWORD PTR [ebp-0x10],0x9e
  405973:	8b 55 f4             	mov    edx,DWORD PTR [ebp-0xc]
  405976:	8b 45 08             	mov    eax,DWORD PTR [ebp+0x8]
  405979:	01 d0                	add    eax,edx
  40597b:	0f b6 00             	movzx  eax,BYTE PTR [eax]
  40597e:	0f be c0             	movsx  eax,al
  405981:	34 f2                	xor    al,0xf2
  405983:	3b 45 f0             	cmp    eax,DWORD PTR [ebp-0x10]
  405986:	74 0b                	je     405993 <_check+0x447f>
  405988:	8b 45 f4             	mov    eax,DWORD PTR [ebp-0xc]
  40598b:	89 04 24             	mov    DWORD PTR [esp],eax
  40598e:	e8 ad b9 ff ff       	call   401340 <_badboy>
  405993:	83 45 f4 01          	add    DWORD PTR [ebp-0xc],0x1
  405997:	c7 45 f0 03 00 00 00 	mov    DWORD PTR [ebp-0x10],0x3
  40599e:	8b 55 f4             	mov    edx,DWORD PTR [ebp-0xc]
  4059a1:	8b 45 08             	mov    eax,DWORD PTR [ebp+0x8]
  4059a4:	01 d0                	add    eax,edx
  4059a6:	0f b6 00             	movzx  eax,BYTE PTR [eax]
  4059a9:	83 f0 6a             	xor    eax,0x6a
  4059ac:	0f be c0             	movsx  eax,al
  4059af:	3b 45 f0             	cmp    eax,DWORD PTR [ebp-0x10]
  4059b2:	74 0b                	je     4059bf <_check+0x44ab>
  4059b4:	8b 45 f4             	mov    eax,DWORD PTR [ebp-0xc]
  4059b7:	89 04 24             	mov    DWORD PTR [esp],eax
  4059ba:	e8 81 b9 ff ff       	call   401340 <_badboy>
  4059bf:	83 45 f4 01          	add    DWORD PTR [ebp-0xc],0x1
  4059c3:	c7 45 f0 e4 00 00 00 	mov    DWORD PTR [ebp-0x10],0xe4
  4059ca:	8b 55 f4             	mov    edx,DWORD PTR [ebp-0xc]
  4059cd:	8b 45 08             	mov    eax,DWORD PTR [ebp+0x8]
  4059d0:	01 d0                	add    eax,edx
  4059d2:	0f b6 00             	movzx  eax,BYTE PTR [eax]
  4059d5:	0f be c0             	movsx  eax,al
  4059d8:	34 86                	xor    al,0x86
  4059da:	3b 45 f0             	cmp    eax,DWORD PTR [ebp-0x10]
  4059dd:	74 0b                	je     4059ea <_check+0x44d6>
  4059df:	8b 45 f4             	mov    eax,DWORD PTR [ebp-0xc]
  4059e2:	89 04 24             	mov    DWORD PTR [esp],eax
  4059e5:	e8 56 b9 ff ff       	call   401340 <_badboy>
  4059ea:	83 45 f4 01          	add    DWORD PTR [ebp-0xc],0x1
  4059ee:	c7 45 f0 e1 00 00 00 	mov    DWORD PTR [ebp-0x10],0xe1
  4059f5:	8b 55 f4             	mov    edx,DWORD PTR [ebp-0xc]
  4059f8:	8b 45 08             	mov    eax,DWORD PTR [ebp+0x8]
  4059fb:	01 d0                	add    eax,edx
  4059fd:	0f b6 00             	movzx  eax,BYTE PTR [eax]
  405a00:	0f be c0             	movsx  eax,al
  405a03:	34 94                	xor    al,0x94
  405a05:	3b 45 f0             	cmp    eax,DWORD PTR [ebp-0x10]
  405a08:	74 0b                	je     405a15 <_check+0x4501>
  405a0a:	8b 45 f4             	mov    eax,DWORD PTR [ebp-0xc]
  405a0d:	89 04 24             	mov    DWORD PTR [esp],eax
  405a10:	e8 2b b9 ff ff       	call   401340 <_badboy>
  405a15:	83 45 f4 01          	add    DWORD PTR [ebp-0xc],0x1
  405a19:	c7 45 f0 c1 00 00 00 	mov    DWORD PTR [ebp-0x10],0xc1
  405a20:	8b 55 f4             	mov    edx,DWORD PTR [ebp-0xc]
  405a23:	8b 45 08             	mov    eax,DWORD PTR [ebp+0x8]
  405a26:	01 d0                	add    eax,edx
  405a28:	0f b6 00             	movzx  eax,BYTE PTR [eax]
  405a2b:	0f be c0             	movsx  eax,al
  405a2e:	34 b3                	xor    al,0xb3
  405a30:	3b 45 f0             	cmp    eax,DWORD PTR [ebp-0x10]
  405a33:	74 0b                	je     405a40 <_check+0x452c>
  405a35:	8b 45 f4             	mov    eax,DWORD PTR [ebp-0xc]
  405a38:	89 04 24             	mov    DWORD PTR [esp],eax
  405a3b:	e8 00 b9 ff ff       	call   401340 <_badboy>
  405a40:	83 45 f4 01          	add    DWORD PTR [ebp-0xc],0x1
  405a44:	c7 45 f0 12 00 00 00 	mov    DWORD PTR [ebp-0x10],0x12
  405a4b:	8b 55 f4             	mov    edx,DWORD PTR [ebp-0xc]
  405a4e:	8b 45 08             	mov    eax,DWORD PTR [ebp+0x8]
  405a51:	01 d0                	add    eax,edx
  405a53:	0f b6 00             	movzx  eax,BYTE PTR [eax]
  405a56:	83 f0 32             	xor    eax,0x32
  405a59:	0f be c0             	movsx  eax,al
  405a5c:	3b 45 f0             	cmp    eax,DWORD PTR [ebp-0x10]
  405a5f:	74 0b                	je     405a6c <_check+0x4558>
  405a61:	8b 45 f4             	mov    eax,DWORD PTR [ebp-0xc]
  405a64:	89 04 24             	mov    DWORD PTR [esp],eax
  405a67:	e8 d4 b8 ff ff       	call   401340 <_badboy>
  405a6c:	83 45 f4 01          	add    DWORD PTR [ebp-0xc],0x1
  405a70:	c7 45 f0 b5 00 00 00 	mov    DWORD PTR [ebp-0x10],0xb5
  405a77:	8b 55 f4             	mov    edx,DWORD PTR [ebp-0xc]
  405a7a:	8b 45 08             	mov    eax,DWORD PTR [ebp+0x8]
  405a7d:	01 d0                	add    eax,edx
  405a7f:	0f b6 00             	movzx  eax,BYTE PTR [eax]
  405a82:	0f be c0             	movsx  eax,al
  405a85:	34 f9                	xor    al,0xf9
  405a87:	3b 45 f0             	cmp    eax,DWORD PTR [ebp-0x10]
  405a8a:	74 0b                	je     405a97 <_check+0x4583>
  405a8c:	8b 45 f4             	mov    eax,DWORD PTR [ebp-0xc]
  405a8f:	89 04 24             	mov    DWORD PTR [esp],eax
  405a92:	e8 a9 b8 ff ff       	call   401340 <_badboy>
  405a97:	83 45 f4 01          	add    DWORD PTR [ebp-0xc],0x1
  405a9b:	c7 45 f0 d9 00 00 00 	mov    DWORD PTR [ebp-0x10],0xd9
  405aa2:	8b 55 f4             	mov    edx,DWORD PTR [ebp-0xc]
  405aa5:	8b 45 08             	mov    eax,DWORD PTR [ebp+0x8]
  405aa8:	01 d0                	add    eax,edx
  405aaa:	0f b6 00             	movzx  eax,BYTE PTR [eax]
  405aad:	0f be c0             	movsx  eax,al
  405ab0:	34 bc                	xor    al,0xbc
  405ab2:	3b 45 f0             	cmp    eax,DWORD PTR [ebp-0x10]
  405ab5:	74 0b                	je     405ac2 <_check+0x45ae>
  405ab7:	8b 45 f4             	mov    eax,DWORD PTR [ebp-0xc]
  405aba:	89 04 24             	mov    DWORD PTR [esp],eax
  405abd:	e8 7e b8 ff ff       	call   401340 <_badboy>
  405ac2:	83 45 f4 01          	add    DWORD PTR [ebp-0xc],0x1
  405ac6:	c7 45 f0 e3 00 00 00 	mov    DWORD PTR [ebp-0x10],0xe3
  405acd:	8b 55 f4             	mov    edx,DWORD PTR [ebp-0xc]
  405ad0:	8b 45 08             	mov    eax,DWORD PTR [ebp+0x8]
  405ad3:	01 d0                	add    eax,edx
  405ad5:	0f b6 00             	movzx  eax,BYTE PTR [eax]
  405ad8:	0f be c0             	movsx  eax,al
  405adb:	34 84                	xor    al,0x84
  405add:	3b 45 f0             	cmp    eax,DWORD PTR [ebp-0x10]
  405ae0:	74 0b                	je     405aed <_check+0x45d9>
  405ae2:	8b 45 f4             	mov    eax,DWORD PTR [ebp-0xc]
  405ae5:	89 04 24             	mov    DWORD PTR [esp],eax
  405ae8:	e8 53 b8 ff ff       	call   401340 <_badboy>
  405aed:	83 45 f4 01          	add    DWORD PTR [ebp-0xc],0x1
  405af1:	c7 45 f0 27 00 00 00 	mov    DWORD PTR [ebp-0x10],0x27
  405af8:	8b 55 f4             	mov    edx,DWORD PTR [ebp-0xc]
  405afb:	8b 45 08             	mov    eax,DWORD PTR [ebp+0x8]
  405afe:	01 d0                	add    eax,edx
  405b00:	0f b6 00             	movzx  eax,BYTE PTR [eax]
  405b03:	83 f0 42             	xor    eax,0x42
  405b06:	0f be c0             	movsx  eax,al
  405b09:	3b 45 f0             	cmp    eax,DWORD PTR [ebp-0x10]
  405b0c:	74 0b                	je     405b19 <_check+0x4605>
  405b0e:	8b 45 f4             	mov    eax,DWORD PTR [ebp-0xc]
  405b11:	89 04 24             	mov    DWORD PTR [esp],eax
  405b14:	e8 27 b8 ff ff       	call   401340 <_badboy>
  405b19:	83 45 f4 01          	add    DWORD PTR [ebp-0xc],0x1
  405b1d:	c7 45 f0 b9 00 00 00 	mov    DWORD PTR [ebp-0x10],0xb9
  405b24:	8b 55 f4             	mov    edx,DWORD PTR [ebp-0xc]
  405b27:	8b 45 08             	mov    eax,DWORD PTR [ebp+0x8]
  405b2a:	01 d0                	add    eax,edx
  405b2c:	0f b6 00             	movzx  eax,BYTE PTR [eax]
  405b2f:	0f be c0             	movsx  eax,al
  405b32:	34 d7                	xor    al,0xd7
  405b34:	3b 45 f0             	cmp    eax,DWORD PTR [ebp-0x10]
  405b37:	74 0b                	je     405b44 <_check+0x4630>
  405b39:	8b 45 f4             	mov    eax,DWORD PTR [ebp-0xc]
  405b3c:	89 04 24             	mov    DWORD PTR [esp],eax
  405b3f:	e8 fc b7 ff ff       	call   401340 <_badboy>
  405b44:	83 45 f4 01          	add    DWORD PTR [ebp-0xc],0x1
  405b48:	c7 45 f0 c2 00 00 00 	mov    DWORD PTR [ebp-0x10],0xc2
  405b4f:	8b 55 f4             	mov    edx,DWORD PTR [ebp-0xc]
  405b52:	8b 45 08             	mov    eax,DWORD PTR [ebp+0x8]
  405b55:	01 d0                	add    eax,edx
  405b57:	0f b6 00             	movzx  eax,BYTE PTR [eax]
  405b5a:	0f be c0             	movsx  eax,al
  405b5d:	34 a6                	xor    al,0xa6
  405b5f:	3b 45 f0             	cmp    eax,DWORD PTR [ebp-0x10]
  405b62:	74 0b                	je     405b6f <_check+0x465b>
  405b64:	8b 45 f4             	mov    eax,DWORD PTR [ebp-0xc]
  405b67:	89 04 24             	mov    DWORD PTR [esp],eax
  405b6a:	e8 d1 b7 ff ff       	call   401340 <_badboy>
  405b6f:	83 45 f4 01          	add    DWORD PTR [ebp-0xc],0x1
  405b73:	c7 45 f0 f1 00 00 00 	mov    DWORD PTR [ebp-0x10],0xf1
  405b7a:	8b 55 f4             	mov    edx,DWORD PTR [ebp-0xc]
  405b7d:	8b 45 08             	mov    eax,DWORD PTR [ebp+0x8]
  405b80:	01 d0                	add    eax,edx
  405b82:	0f b6 00             	movzx  eax,BYTE PTR [eax]
  405b85:	0f be c0             	movsx  eax,al
  405b88:	34 82                	xor    al,0x82
  405b8a:	3b 45 f0             	cmp    eax,DWORD PTR [ebp-0x10]
  405b8d:	74 0b                	je     405b9a <_check+0x4686>
  405b8f:	8b 45 f4             	mov    eax,DWORD PTR [ebp-0xc]
  405b92:	89 04 24             	mov    DWORD PTR [esp],eax
  405b95:	e8 a6 b7 ff ff       	call   401340 <_badboy>
  405b9a:	83 45 f4 01          	add    DWORD PTR [ebp-0xc],0x1
  405b9e:	c7 45 f0 7a 00 00 00 	mov    DWORD PTR [ebp-0x10],0x7a
  405ba5:	8b 55 f4             	mov    edx,DWORD PTR [ebp-0xc]
  405ba8:	8b 45 08             	mov    eax,DWORD PTR [ebp+0x8]
  405bab:	01 d0                	add    eax,edx
  405bad:	0f b6 00             	movzx  eax,BYTE PTR [eax]
  405bb0:	83 f0 5a             	xor    eax,0x5a
  405bb3:	0f be c0             	movsx  eax,al
  405bb6:	3b 45 f0             	cmp    eax,DWORD PTR [ebp-0x10]
  405bb9:	74 0b                	je     405bc6 <_check+0x46b2>
  405bbb:	8b 45 f4             	mov    eax,DWORD PTR [ebp-0xc]
  405bbe:	89 04 24             	mov    DWORD PTR [esp],eax
  405bc1:	e8 7a b7 ff ff       	call   401340 <_badboy>
  405bc6:	83 45 f4 01          	add    DWORD PTR [ebp-0xc],0x1
  405bca:	c7 45 f0 96 00 00 00 	mov    DWORD PTR [ebp-0x10],0x96
  405bd1:	8b 55 f4             	mov    edx,DWORD PTR [ebp-0xc]
  405bd4:	8b 45 08             	mov    eax,DWORD PTR [ebp+0x8]
  405bd7:	01 d0                	add    eax,edx
  405bd9:	0f b6 00             	movzx  eax,BYTE PTR [eax]
  405bdc:	0f be c0             	movsx  eax,al
  405bdf:	34 f7                	xor    al,0xf7
  405be1:	3b 45 f0             	cmp    eax,DWORD PTR [ebp-0x10]
  405be4:	74 0b                	je     405bf1 <_check+0x46dd>
  405be6:	8b 45 f4             	mov    eax,DWORD PTR [ebp-0xc]
  405be9:	89 04 24             	mov    DWORD PTR [esp],eax
  405bec:	e8 4f b7 ff ff       	call   401340 <_badboy>
  405bf1:	83 45 f4 01          	add    DWORD PTR [ebp-0xc],0x1
  405bf5:	c7 45 f0 6e 00 00 00 	mov    DWORD PTR [ebp-0x10],0x6e
  405bfc:	8b 55 f4             	mov    edx,DWORD PTR [ebp-0xc]
  405bff:	8b 45 08             	mov    eax,DWORD PTR [ebp+0x8]
  405c02:	01 d0                	add    eax,edx
  405c04:	0f b6 00             	movzx  eax,BYTE PTR [eax]
  405c07:	0f be c0             	movsx  eax,al
  405c0a:	3b 45 f0             	cmp    eax,DWORD PTR [ebp-0x10]
  405c0d:	74 0b                	je     405c1a <_check+0x4706>
  405c0f:	8b 45 f4             	mov    eax,DWORD PTR [ebp-0xc]
  405c12:	89 04 24             	mov    DWORD PTR [esp],eax
  405c15:	e8 26 b7 ff ff       	call   401340 <_badboy>
  405c1a:	83 45 f4 01          	add    DWORD PTR [ebp-0xc],0x1
  405c1e:	c7 45 f0 fc 00 00 00 	mov    DWORD PTR [ebp-0x10],0xfc
  405c25:	8b 55 f4             	mov    edx,DWORD PTR [ebp-0xc]
  405c28:	8b 45 08             	mov    eax,DWORD PTR [ebp+0x8]
  405c2b:	01 d0                	add    eax,edx
  405c2d:	0f b6 00             	movzx  eax,BYTE PTR [eax]
  405c30:	0f be c0             	movsx  eax,al
  405c33:	34 98                	xor    al,0x98
  405c35:	3b 45 f0             	cmp    eax,DWORD PTR [ebp-0x10]
  405c38:	74 0b                	je     405c45 <_check+0x4731>
  405c3a:	8b 45 f4             	mov    eax,DWORD PTR [ebp-0xc]
  405c3d:	89 04 24             	mov    DWORD PTR [esp],eax
  405c40:	e8 fb b6 ff ff       	call   401340 <_badboy>
  405c45:	83 45 f4 01          	add    DWORD PTR [ebp-0xc],0x1
  405c49:	c7 45 f0 e4 00 00 00 	mov    DWORD PTR [ebp-0x10],0xe4
  405c50:	8b 55 f4             	mov    edx,DWORD PTR [ebp-0xc]
  405c53:	8b 45 08             	mov    eax,DWORD PTR [ebp+0x8]
  405c56:	01 d0                	add    eax,edx
  405c58:	0f b6 00             	movzx  eax,BYTE PTR [eax]
  405c5b:	0f be c0             	movsx  eax,al
  405c5e:	34 c4                	xor    al,0xc4
  405c60:	3b 45 f0             	cmp    eax,DWORD PTR [ebp-0x10]
  405c63:	74 0b                	je     405c70 <_check+0x475c>
  405c65:	8b 45 f4             	mov    eax,DWORD PTR [ebp-0xc]
  405c68:	89 04 24             	mov    DWORD PTR [esp],eax
  405c6b:	e8 d0 b6 ff ff       	call   401340 <_badboy>
  405c70:	83 45 f4 01          	add    DWORD PTR [ebp-0xc],0x1
  405c74:	c7 45 f0 b2 00 00 00 	mov    DWORD PTR [ebp-0x10],0xb2
  405c7b:	8b 55 f4             	mov    edx,DWORD PTR [ebp-0xc]
  405c7e:	8b 45 08             	mov    eax,DWORD PTR [ebp+0x8]
  405c81:	01 d0                	add    eax,edx
  405c83:	0f b6 00             	movzx  eax,BYTE PTR [eax]
  405c86:	0f be c0             	movsx  eax,al
  405c89:	34 e1                	xor    al,0xe1
  405c8b:	3b 45 f0             	cmp    eax,DWORD PTR [ebp-0x10]
  405c8e:	74 0b                	je     405c9b <_check+0x4787>
  405c90:	8b 45 f4             	mov    eax,DWORD PTR [ebp-0xc]
  405c93:	89 04 24             	mov    DWORD PTR [esp],eax
  405c96:	e8 a5 b6 ff ff       	call   401340 <_badboy>
  405c9b:	83 45 f4 01          	add    DWORD PTR [ebp-0xc],0x1
  405c9f:	c7 45 f0 3f 00 00 00 	mov    DWORD PTR [ebp-0x10],0x3f
  405ca6:	8b 55 f4             	mov    edx,DWORD PTR [ebp-0xc]
  405ca9:	8b 45 08             	mov    eax,DWORD PTR [ebp+0x8]
  405cac:	01 d0                	add    eax,edx
  405cae:	0f b6 00             	movzx  eax,BYTE PTR [eax]
  405cb1:	83 f0 50             	xor    eax,0x50
  405cb4:	0f be c0             	movsx  eax,al
  405cb7:	3b 45 f0             	cmp    eax,DWORD PTR [ebp-0x10]
  405cba:	74 0b                	je     405cc7 <_check+0x47b3>
  405cbc:	8b 45 f4             	mov    eax,DWORD PTR [ebp-0xc]
  405cbf:	89 04 24             	mov    DWORD PTR [esp],eax
  405cc2:	e8 79 b6 ff ff       	call   401340 <_badboy>
  405cc7:	83 45 f4 01          	add    DWORD PTR [ebp-0xc],0x1
  405ccb:	c7 45 f0 17 00 00 00 	mov    DWORD PTR [ebp-0x10],0x17
  405cd2:	8b 55 f4             	mov    edx,DWORD PTR [ebp-0xc]
  405cd5:	8b 45 08             	mov    eax,DWORD PTR [ebp+0x8]
  405cd8:	01 d0                	add    eax,edx
  405cda:	0f b6 00             	movzx  eax,BYTE PTR [eax]
  405cdd:	83 f0 62             	xor    eax,0x62
  405ce0:	0f be c0             	movsx  eax,al
  405ce3:	3b 45 f0             	cmp    eax,DWORD PTR [ebp-0x10]
  405ce6:	74 0b                	je     405cf3 <_check+0x47df>
  405ce8:	8b 45 f4             	mov    eax,DWORD PTR [ebp-0xc]
  405ceb:	89 04 24             	mov    DWORD PTR [esp],eax
  405cee:	e8 4d b6 ff ff       	call   401340 <_badboy>
  405cf3:	83 45 f4 01          	add    DWORD PTR [ebp-0xc],0x1
  405cf7:	c7 45 f0 d2 00 00 00 	mov    DWORD PTR [ebp-0x10],0xd2
  405cfe:	8b 55 f4             	mov    edx,DWORD PTR [ebp-0xc]
  405d01:	8b 45 08             	mov    eax,DWORD PTR [ebp+0x8]
  405d04:	01 d0                	add    eax,edx
  405d06:	0f b6 00             	movzx  eax,BYTE PTR [eax]
  405d09:	0f be c0             	movsx  eax,al
  405d0c:	34 be                	xor    al,0xbe
  405d0e:	3b 45 f0             	cmp    eax,DWORD PTR [ebp-0x10]
  405d11:	74 0b                	je     405d1e <_check+0x480a>
  405d13:	8b 45 f4             	mov    eax,DWORD PTR [ebp-0xc]
  405d16:	89 04 24             	mov    DWORD PTR [esp],eax
  405d19:	e8 22 b6 ff ff       	call   401340 <_badboy>
  405d1e:	83 45 f4 01          	add    DWORD PTR [ebp-0xc],0x1
  405d22:	c7 45 f0 28 00 00 00 	mov    DWORD PTR [ebp-0x10],0x28
  405d29:	8b 55 f4             	mov    edx,DWORD PTR [ebp-0xc]
  405d2c:	8b 45 08             	mov    eax,DWORD PTR [ebp+0x8]
  405d2f:	01 d0                	add    eax,edx
  405d31:	0f b6 00             	movzx  eax,BYTE PTR [eax]
  405d34:	83 f0 4b             	xor    eax,0x4b
  405d37:	0f be c0             	movsx  eax,al
  405d3a:	3b 45 f0             	cmp    eax,DWORD PTR [ebp-0x10]
  405d3d:	74 0b                	je     405d4a <_check+0x4836>
  405d3f:	8b 45 f4             	mov    eax,DWORD PTR [ebp-0xc]
  405d42:	89 04 24             	mov    DWORD PTR [esp],eax
  405d45:	e8 f6 b5 ff ff       	call   401340 <_badboy>
  405d4a:	83 45 f4 01          	add    DWORD PTR [ebp-0xc],0x1
  405d4e:	c7 45 f0 37 00 00 00 	mov    DWORD PTR [ebp-0x10],0x37
  405d55:	8b 55 f4             	mov    edx,DWORD PTR [ebp-0xc]
  405d58:	8b 45 08             	mov    eax,DWORD PTR [ebp+0x8]
  405d5b:	01 d0                	add    eax,edx
  405d5d:	0f b6 00             	movzx  eax,BYTE PTR [eax]
  405d60:	83 f0 56             	xor    eax,0x56
  405d63:	0f be c0             	movsx  eax,al
  405d66:	3b 45 f0             	cmp    eax,DWORD PTR [ebp-0x10]
  405d69:	74 0b                	je     405d76 <_check+0x4862>
  405d6b:	8b 45 f4             	mov    eax,DWORD PTR [ebp-0xc]
  405d6e:	89 04 24             	mov    DWORD PTR [esp],eax
  405d71:	e8 ca b5 ff ff       	call   401340 <_badboy>
  405d76:	83 45 f4 01          	add    DWORD PTR [ebp-0xc],0x1
  405d7a:	c7 45 f0 9b 00 00 00 	mov    DWORD PTR [ebp-0x10],0x9b
  405d81:	8b 55 f4             	mov    edx,DWORD PTR [ebp-0xc]
  405d84:	8b 45 08             	mov    eax,DWORD PTR [ebp+0x8]
  405d87:	01 d0                	add    eax,edx
  405d89:	0f b6 00             	movzx  eax,BYTE PTR [eax]
  405d8c:	0f be c0             	movsx  eax,al
  405d8f:	34 f7                	xor    al,0xf7
  405d91:	3b 45 f0             	cmp    eax,DWORD PTR [ebp-0x10]
  405d94:	74 0b                	je     405da1 <_check+0x488d>
  405d96:	8b 45 f4             	mov    eax,DWORD PTR [ebp-0xc]
  405d99:	89 04 24             	mov    DWORD PTR [esp],eax
  405d9c:	e8 9f b5 ff ff       	call   401340 <_badboy>
  405da1:	83 45 f4 01          	add    DWORD PTR [ebp-0xc],0x1
  405da5:	c7 45 f0 bd 00 00 00 	mov    DWORD PTR [ebp-0x10],0xbd
  405dac:	8b 55 f4             	mov    edx,DWORD PTR [ebp-0xc]
  405daf:	8b 45 08             	mov    eax,DWORD PTR [ebp+0x8]
  405db2:	01 d0                	add    eax,edx
  405db4:	0f b6 00             	movzx  eax,BYTE PTR [eax]
  405db7:	0f be c0             	movsx  eax,al
  405dba:	34 d4                	xor    al,0xd4
  405dbc:	3b 45 f0             	cmp    eax,DWORD PTR [ebp-0x10]
  405dbf:	74 0b                	je     405dcc <_check+0x48b8>
  405dc1:	8b 45 f4             	mov    eax,DWORD PTR [ebp-0xc]
  405dc4:	89 04 24             	mov    DWORD PTR [esp],eax
  405dc7:	e8 74 b5 ff ff       	call   401340 <_badboy>
  405dcc:	83 45 f4 01          	add    DWORD PTR [ebp-0xc],0x1
  405dd0:	c7 45 f0 12 00 00 00 	mov    DWORD PTR [ebp-0x10],0x12
  405dd7:	8b 55 f4             	mov    edx,DWORD PTR [ebp-0xc]
  405dda:	8b 45 08             	mov    eax,DWORD PTR [ebp+0x8]
  405ddd:	01 d0                	add    eax,edx
  405ddf:	0f b6 00             	movzx  eax,BYTE PTR [eax]
  405de2:	83 f0 70             	xor    eax,0x70
  405de5:	0f be c0             	movsx  eax,al
  405de8:	3b 45 f0             	cmp    eax,DWORD PTR [ebp-0x10]
  405deb:	74 0b                	je     405df8 <_check+0x48e4>
  405ded:	8b 45 f4             	mov    eax,DWORD PTR [ebp-0xc]
  405df0:	89 04 24             	mov    DWORD PTR [esp],eax
  405df3:	e8 48 b5 ff ff       	call   401340 <_badboy>
  405df8:	83 45 f4 01          	add    DWORD PTR [ebp-0xc],0x1
  405dfc:	c7 45 f0 18 00 00 00 	mov    DWORD PTR [ebp-0x10],0x18
  405e03:	8b 55 f4             	mov    edx,DWORD PTR [ebp-0xc]
  405e06:	8b 45 08             	mov    eax,DWORD PTR [ebp+0x8]
  405e09:	01 d0                	add    eax,edx
  405e0b:	0f b6 00             	movzx  eax,BYTE PTR [eax]
  405e0e:	83 f0 6d             	xor    eax,0x6d
  405e11:	0f be c0             	movsx  eax,al
  405e14:	3b 45 f0             	cmp    eax,DWORD PTR [ebp-0x10]
  405e17:	74 0b                	je     405e24 <_check+0x4910>
  405e19:	8b 45 f4             	mov    eax,DWORD PTR [ebp-0xc]
  405e1c:	89 04 24             	mov    DWORD PTR [esp],eax
  405e1f:	e8 1c b5 ff ff       	call   401340 <_badboy>
  405e24:	83 45 f4 01          	add    DWORD PTR [ebp-0xc],0x1
  405e28:	c7 45 f0 7f 00 00 00 	mov    DWORD PTR [ebp-0x10],0x7f
  405e2f:	8b 55 f4             	mov    edx,DWORD PTR [ebp-0xc]
  405e32:	8b 45 08             	mov    eax,DWORD PTR [ebp+0x8]
  405e35:	01 d0                	add    eax,edx
  405e37:	0f b6 00             	movzx  eax,BYTE PTR [eax]
  405e3a:	83 f0 0d             	xor    eax,0xd
  405e3d:	0f be c0             	movsx  eax,al
  405e40:	3b 45 f0             	cmp    eax,DWORD PTR [ebp-0x10]
  405e43:	74 0b                	je     405e50 <_check+0x493c>
  405e45:	8b 45 f4             	mov    eax,DWORD PTR [ebp-0xc]
  405e48:	89 04 24             	mov    DWORD PTR [esp],eax
  405e4b:	e8 f0 b4 ff ff       	call   401340 <_badboy>
  405e50:	83 45 f4 01          	add    DWORD PTR [ebp-0xc],0x1
  405e54:	c7 45 f0 17 00 00 00 	mov    DWORD PTR [ebp-0x10],0x17
  405e5b:	8b 55 f4             	mov    edx,DWORD PTR [ebp-0xc]
  405e5e:	8b 45 08             	mov    eax,DWORD PTR [ebp+0x8]
  405e61:	01 d0                	add    eax,edx
  405e63:	0f b6 00             	movzx  eax,BYTE PTR [eax]
  405e66:	83 f0 2d             	xor    eax,0x2d
  405e69:	0f be c0             	movsx  eax,al
  405e6c:	3b 45 f0             	cmp    eax,DWORD PTR [ebp-0x10]
  405e6f:	74 0b                	je     405e7c <_check+0x4968>
  405e71:	8b 45 f4             	mov    eax,DWORD PTR [ebp-0xc]
  405e74:	89 04 24             	mov    DWORD PTR [esp],eax
  405e77:	e8 c4 b4 ff ff       	call   401340 <_badboy>
  405e7c:	83 45 f4 01          	add    DWORD PTR [ebp-0xc],0x1
  405e80:	c7 45 f0 82 00 00 00 	mov    DWORD PTR [ebp-0x10],0x82
  405e87:	8b 55 f4             	mov    edx,DWORD PTR [ebp-0xc]
  405e8a:	8b 45 08             	mov    eax,DWORD PTR [ebp+0x8]
  405e8d:	01 d0                	add    eax,edx
  405e8f:	0f b6 00             	movzx  eax,BYTE PTR [eax]
  405e92:	0f be c0             	movsx  eax,al
  405e95:	34 a2                	xor    al,0xa2
  405e97:	3b 45 f0             	cmp    eax,DWORD PTR [ebp-0x10]
  405e9a:	74 0b                	je     405ea7 <_check+0x4993>
  405e9c:	8b 45 f4             	mov    eax,DWORD PTR [ebp-0xc]
  405e9f:	89 04 24             	mov    DWORD PTR [esp],eax
  405ea2:	e8 99 b4 ff ff       	call   401340 <_badboy>
  405ea7:	83 45 f4 01          	add    DWORD PTR [ebp-0xc],0x1
  405eab:	c7 45 f0 21 00 00 00 	mov    DWORD PTR [ebp-0x10],0x21
  405eb2:	8b 55 f4             	mov    edx,DWORD PTR [ebp-0xc]
  405eb5:	8b 45 08             	mov    eax,DWORD PTR [ebp+0x8]
  405eb8:	01 d0                	add    eax,edx
  405eba:	0f b6 00             	movzx  eax,BYTE PTR [eax]
  405ebd:	83 f0 6d             	xor    eax,0x6d
  405ec0:	0f be c0             	movsx  eax,al
  405ec3:	3b 45 f0             	cmp    eax,DWORD PTR [ebp-0x10]
  405ec6:	74 0b                	je     405ed3 <_check+0x49bf>
  405ec8:	8b 45 f4             	mov    eax,DWORD PTR [ebp-0xc]
  405ecb:	89 04 24             	mov    DWORD PTR [esp],eax
  405ece:	e8 6d b4 ff ff       	call   401340 <_badboy>
  405ed3:	83 45 f4 01          	add    DWORD PTR [ebp-0xc],0x1
  405ed7:	c7 45 f0 bd 00 00 00 	mov    DWORD PTR [ebp-0x10],0xbd
  405ede:	8b 55 f4             	mov    edx,DWORD PTR [ebp-0xc]
  405ee1:	8b 45 08             	mov    eax,DWORD PTR [ebp+0x8]
  405ee4:	01 d0                	add    eax,edx
  405ee6:	0f b6 00             	movzx  eax,BYTE PTR [eax]
  405ee9:	0f be c0             	movsx  eax,al
  405eec:	34 d2                	xor    al,0xd2
  405eee:	3b 45 f0             	cmp    eax,DWORD PTR [ebp-0x10]
  405ef1:	74 0b                	je     405efe <_check+0x49ea>
  405ef3:	8b 45 f4             	mov    eax,DWORD PTR [ebp-0xc]
  405ef6:	89 04 24             	mov    DWORD PTR [esp],eax
  405ef9:	e8 42 b4 ff ff       	call   401340 <_badboy>
  405efe:	83 45 f4 01          	add    DWORD PTR [ebp-0xc],0x1
  405f02:	c7 45 f0 79 00 00 00 	mov    DWORD PTR [ebp-0x10],0x79
  405f09:	8b 55 f4             	mov    edx,DWORD PTR [ebp-0xc]
  405f0c:	8b 45 08             	mov    eax,DWORD PTR [ebp+0x8]
  405f0f:	01 d0                	add    eax,edx
  405f11:	0f b6 00             	movzx  eax,BYTE PTR [eax]
  405f14:	83 f0 0a             	xor    eax,0xa
  405f17:	0f be c0             	movsx  eax,al
  405f1a:	3b 45 f0             	cmp    eax,DWORD PTR [ebp-0x10]
  405f1d:	74 0b                	je     405f2a <_check+0x4a16>
  405f1f:	8b 45 f4             	mov    eax,DWORD PTR [ebp-0xc]
  405f22:	89 04 24             	mov    DWORD PTR [esp],eax
  405f25:	e8 16 b4 ff ff       	call   401340 <_badboy>
  405f2a:	83 45 f4 01          	add    DWORD PTR [ebp-0xc],0x1
  405f2e:	c7 45 f0 35 00 00 00 	mov    DWORD PTR [ebp-0x10],0x35
  405f35:	8b 55 f4             	mov    edx,DWORD PTR [ebp-0xc]
  405f38:	8b 45 08             	mov    eax,DWORD PTR [ebp+0x8]
  405f3b:	01 d0                	add    eax,edx
  405f3d:	0f b6 00             	movzx  eax,BYTE PTR [eax]
  405f40:	83 f0 41             	xor    eax,0x41
  405f43:	0f be c0             	movsx  eax,al
  405f46:	3b 45 f0             	cmp    eax,DWORD PTR [ebp-0x10]
  405f49:	74 0b                	je     405f56 <_check+0x4a42>
  405f4b:	8b 45 f4             	mov    eax,DWORD PTR [ebp-0xc]
  405f4e:	89 04 24             	mov    DWORD PTR [esp],eax
  405f51:	e8 ea b3 ff ff       	call   401340 <_badboy>
  405f56:	83 45 f4 01          	add    DWORD PTR [ebp-0xc],0x1
  405f5a:	c7 45 f0 80 00 00 00 	mov    DWORD PTR [ebp-0x10],0x80
  405f61:	8b 55 f4             	mov    edx,DWORD PTR [ebp-0xc]
  405f64:	8b 45 08             	mov    eax,DWORD PTR [ebp+0x8]
  405f67:	01 d0                	add    eax,edx
  405f69:	0f b6 00             	movzx  eax,BYTE PTR [eax]
  405f6c:	0f be c0             	movsx  eax,al
  405f6f:	34 a0                	xor    al,0xa0
  405f71:	3b 45 f0             	cmp    eax,DWORD PTR [ebp-0x10]
  405f74:	74 0b                	je     405f81 <_check+0x4a6d>
  405f76:	8b 45 f4             	mov    eax,DWORD PTR [ebp-0xc]
  405f79:	89 04 24             	mov    DWORD PTR [esp],eax
  405f7c:	e8 bf b3 ff ff       	call   401340 <_badboy>
  405f81:	83 45 f4 01          	add    DWORD PTR [ebp-0xc],0x1
  405f85:	c7 45 f0 48 00 00 00 	mov    DWORD PTR [ebp-0x10],0x48
  405f8c:	8b 55 f4             	mov    edx,DWORD PTR [ebp-0xc]
  405f8f:	8b 45 08             	mov    eax,DWORD PTR [ebp+0x8]
  405f92:	01 d0                	add    eax,edx
  405f94:	0f b6 00             	movzx  eax,BYTE PTR [eax]
  405f97:	83 f0 1b             	xor    eax,0x1b
  405f9a:	0f be c0             	movsx  eax,al
  405f9d:	3b 45 f0             	cmp    eax,DWORD PTR [ebp-0x10]
  405fa0:	74 0b                	je     405fad <_check+0x4a99>
  405fa2:	8b 45 f4             	mov    eax,DWORD PTR [ebp-0xc]
  405fa5:	89 04 24             	mov    DWORD PTR [esp],eax
  405fa8:	e8 93 b3 ff ff       	call   401340 <_badboy>
  405fad:	83 45 f4 01          	add    DWORD PTR [ebp-0xc],0x1
  405fb1:	c7 45 f0 53 00 00 00 	mov    DWORD PTR [ebp-0x10],0x53
  405fb8:	8b 55 f4             	mov    edx,DWORD PTR [ebp-0xc]
  405fbb:	8b 45 08             	mov    eax,DWORD PTR [ebp+0x8]
  405fbe:	01 d0                	add    eax,edx
  405fc0:	0f b6 00             	movzx  eax,BYTE PTR [eax]
  405fc3:	83 f0 24             	xor    eax,0x24
  405fc6:	0f be c0             	movsx  eax,al
  405fc9:	3b 45 f0             	cmp    eax,DWORD PTR [ebp-0x10]
  405fcc:	74 0b                	je     405fd9 <_check+0x4ac5>
  405fce:	8b 45 f4             	mov    eax,DWORD PTR [ebp-0xc]
  405fd1:	89 04 24             	mov    DWORD PTR [esp],eax
  405fd4:	e8 67 b3 ff ff       	call   401340 <_badboy>
  405fd9:	83 45 f4 01          	add    DWORD PTR [ebp-0xc],0x1
  405fdd:	c7 45 f0 91 00 00 00 	mov    DWORD PTR [ebp-0x10],0x91
  405fe4:	8b 55 f4             	mov    edx,DWORD PTR [ebp-0xc]
  405fe7:	8b 45 08             	mov    eax,DWORD PTR [ebp+0x8]
  405fea:	01 d0                	add    eax,edx
  405fec:	0f b6 00             	movzx  eax,BYTE PTR [eax]
  405fef:	0f be c0             	movsx  eax,al
  405ff2:	34 fe                	xor    al,0xfe
  405ff4:	3b 45 f0             	cmp    eax,DWORD PTR [ebp-0x10]
  405ff7:	74 0b                	je     406004 <_check+0x4af0>
  405ff9:	8b 45 f4             	mov    eax,DWORD PTR [ebp-0xc]
  405ffc:	89 04 24             	mov    DWORD PTR [esp],eax
  405fff:	e8 3c b3 ff ff       	call   401340 <_badboy>
  406004:	83 45 f4 01          	add    DWORD PTR [ebp-0xc],0x1
  406008:	c7 45 f0 a2 00 00 00 	mov    DWORD PTR [ebp-0x10],0xa2
  40600f:	8b 55 f4             	mov    edx,DWORD PTR [ebp-0xc]
  406012:	8b 45 08             	mov    eax,DWORD PTR [ebp+0x8]
  406015:	01 d0                	add    eax,edx
  406017:	0f b6 00             	movzx  eax,BYTE PTR [eax]
  40601a:	0f be c0             	movsx  eax,al
  40601d:	34 d0                	xor    al,0xd0
  40601f:	3b 45 f0             	cmp    eax,DWORD PTR [ebp-0x10]
  406022:	74 0b                	je     40602f <_check+0x4b1b>
  406024:	8b 45 f4             	mov    eax,DWORD PTR [ebp-0xc]
  406027:	89 04 24             	mov    DWORD PTR [esp],eax
  40602a:	e8 11 b3 ff ff       	call   401340 <_badboy>
  40602f:	83 45 f4 01          	add    DWORD PTR [ebp-0xc],0x1
  406033:	c7 45 f0 21 00 00 00 	mov    DWORD PTR [ebp-0x10],0x21
  40603a:	8b 55 f4             	mov    edx,DWORD PTR [ebp-0xc]
  40603d:	8b 45 08             	mov    eax,DWORD PTR [ebp+0x8]
  406040:	01 d0                	add    eax,edx
  406042:	0f b6 00             	movzx  eax,BYTE PTR [eax]
  406045:	83 f0 45             	xor    eax,0x45
  406048:	0f be c0             	movsx  eax,al
  40604b:	3b 45 f0             	cmp    eax,DWORD PTR [ebp-0x10]
  40604e:	74 0b                	je     40605b <_check+0x4b47>
  406050:	8b 45 f4             	mov    eax,DWORD PTR [ebp-0xc]
  406053:	89 04 24             	mov    DWORD PTR [esp],eax
  406056:	e8 e5 b2 ff ff       	call   401340 <_badboy>
  40605b:	83 45 f4 01          	add    DWORD PTR [ebp-0xc],0x1
  40605f:	c7 45 f0 ed 00 00 00 	mov    DWORD PTR [ebp-0x10],0xed
  406066:	8b 55 f4             	mov    edx,DWORD PTR [ebp-0xc]
  406069:	8b 45 08             	mov    eax,DWORD PTR [ebp+0x8]
  40606c:	01 d0                	add    eax,edx
  40606e:	0f b6 00             	movzx  eax,BYTE PTR [eax]
  406071:	0f be c0             	movsx  eax,al
  406074:	34 9e                	xor    al,0x9e
  406076:	3b 45 f0             	cmp    eax,DWORD PTR [ebp-0x10]
  406079:	74 0b                	je     406086 <_check+0x4b72>
  40607b:	8b 45 f4             	mov    eax,DWORD PTR [ebp-0xc]
  40607e:	89 04 24             	mov    DWORD PTR [esp],eax
  406081:	e8 ba b2 ff ff       	call   401340 <_badboy>
  406086:	83 45 f4 01          	add    DWORD PTR [ebp-0xc],0x1
  40608a:	c7 45 f0 3e 00 00 00 	mov    DWORD PTR [ebp-0x10],0x3e
  406091:	8b 55 f4             	mov    edx,DWORD PTR [ebp-0xc]
  406094:	8b 45 08             	mov    eax,DWORD PTR [ebp+0x8]
  406097:	01 d0                	add    eax,edx
  406099:	0f b6 00             	movzx  eax,BYTE PTR [eax]
  40609c:	83 f0 12             	xor    eax,0x12
  40609f:	0f be c0             	movsx  eax,al
  4060a2:	3b 45 f0             	cmp    eax,DWORD PTR [ebp-0x10]
  4060a5:	74 0b                	je     4060b2 <_check+0x4b9e>
  4060a7:	8b 45 f4             	mov    eax,DWORD PTR [ebp-0xc]
  4060aa:	89 04 24             	mov    DWORD PTR [esp],eax
  4060ad:	e8 8e b2 ff ff       	call   401340 <_badboy>
  4060b2:	83 45 f4 01          	add    DWORD PTR [ebp-0xc],0x1
  4060b6:	c7 45 f0 8c 00 00 00 	mov    DWORD PTR [ebp-0x10],0x8c
  4060bd:	8b 55 f4             	mov    edx,DWORD PTR [ebp-0xc]
  4060c0:	8b 45 08             	mov    eax,DWORD PTR [ebp+0x8]
  4060c3:	01 d0                	add    eax,edx
  4060c5:	0f b6 00             	movzx  eax,BYTE PTR [eax]
  4060c8:	0f be c0             	movsx  eax,al
  4060cb:	34 ac                	xor    al,0xac
  4060cd:	3b 45 f0             	cmp    eax,DWORD PTR [ebp-0x10]
  4060d0:	74 0b                	je     4060dd <_check+0x4bc9>
  4060d2:	8b 45 f4             	mov    eax,DWORD PTR [ebp-0xc]
  4060d5:	89 04 24             	mov    DWORD PTR [esp],eax
  4060d8:	e8 63 b2 ff ff       	call   401340 <_badboy>
  4060dd:	83 45 f4 01          	add    DWORD PTR [ebp-0xc],0x1
  4060e1:	c7 45 f0 9d 00 00 00 	mov    DWORD PTR [ebp-0x10],0x9d
  4060e8:	8b 55 f4             	mov    edx,DWORD PTR [ebp-0xc]
  4060eb:	8b 45 08             	mov    eax,DWORD PTR [ebp+0x8]
  4060ee:	01 d0                	add    eax,edx
  4060f0:	0f b6 00             	movzx  eax,BYTE PTR [eax]
  4060f3:	0f be c0             	movsx  eax,al
  4060f6:	34 fc                	xor    al,0xfc
  4060f8:	3b 45 f0             	cmp    eax,DWORD PTR [ebp-0x10]
  4060fb:	74 0b                	je     406108 <_check+0x4bf4>
  4060fd:	8b 45 f4             	mov    eax,DWORD PTR [ebp-0xc]
  406100:	89 04 24             	mov    DWORD PTR [esp],eax
  406103:	e8 38 b2 ff ff       	call   401340 <_badboy>
  406108:	83 45 f4 01          	add    DWORD PTR [ebp-0xc],0x1
  40610c:	c7 45 f0 65 00 00 00 	mov    DWORD PTR [ebp-0x10],0x65
  406113:	8b 55 f4             	mov    edx,DWORD PTR [ebp-0xc]
  406116:	8b 45 08             	mov    eax,DWORD PTR [ebp+0x8]
  406119:	01 d0                	add    eax,edx
  40611b:	0f b6 00             	movzx  eax,BYTE PTR [eax]
  40611e:	83 f0 16             	xor    eax,0x16
  406121:	0f be c0             	movsx  eax,al
  406124:	3b 45 f0             	cmp    eax,DWORD PTR [ebp-0x10]
  406127:	74 0b                	je     406134 <_check+0x4c20>
  406129:	8b 45 f4             	mov    eax,DWORD PTR [ebp-0xc]
  40612c:	89 04 24             	mov    DWORD PTR [esp],eax
  40612f:	e8 0c b2 ff ff       	call   401340 <_badboy>
  406134:	83 45 f4 01          	add    DWORD PTR [ebp-0xc],0x1
  406138:	c7 45 f0 2d 00 00 00 	mov    DWORD PTR [ebp-0x10],0x2d
  40613f:	8b 55 f4             	mov    edx,DWORD PTR [ebp-0xc]
  406142:	8b 45 08             	mov    eax,DWORD PTR [ebp+0x8]
  406145:	01 d0                	add    eax,edx
  406147:	0f b6 00             	movzx  eax,BYTE PTR [eax]
  40614a:	83 f0 0d             	xor    eax,0xd
  40614d:	0f be c0             	movsx  eax,al
  406150:	3b 45 f0             	cmp    eax,DWORD PTR [ebp-0x10]
  406153:	74 0b                	je     406160 <_check+0x4c4c>
  406155:	8b 45 f4             	mov    eax,DWORD PTR [ebp-0xc]
  406158:	89 04 24             	mov    DWORD PTR [esp],eax
  40615b:	e8 e0 b1 ff ff       	call   401340 <_badboy>
  406160:	83 45 f4 01          	add    DWORD PTR [ebp-0xc],0x1
  406164:	c7 45 f0 06 00 00 00 	mov    DWORD PTR [ebp-0x10],0x6
  40616b:	8b 55 f4             	mov    edx,DWORD PTR [ebp-0xc]
  40616e:	8b 45 08             	mov    eax,DWORD PTR [ebp+0x8]
  406171:	01 d0                	add    eax,edx
  406173:	0f b6 00             	movzx  eax,BYTE PTR [eax]
  406176:	83 f0 4e             	xor    eax,0x4e
  406179:	0f be c0             	movsx  eax,al
  40617c:	3b 45 f0             	cmp    eax,DWORD PTR [ebp-0x10]
  40617f:	74 0b                	je     40618c <_check+0x4c78>
  406181:	8b 45 f4             	mov    eax,DWORD PTR [ebp-0xc]
  406184:	89 04 24             	mov    DWORD PTR [esp],eax
  406187:	e8 b4 b1 ff ff       	call   401340 <_badboy>
  40618c:	83 45 f4 01          	add    DWORD PTR [ebp-0xc],0x1
  406190:	c7 45 f0 79 00 00 00 	mov    DWORD PTR [ebp-0x10],0x79
  406197:	8b 55 f4             	mov    edx,DWORD PTR [ebp-0xc]
  40619a:	8b 45 08             	mov    eax,DWORD PTR [ebp+0x8]
  40619d:	01 d0                	add    eax,edx
  40619f:	0f b6 00             	movzx  eax,BYTE PTR [eax]
  4061a2:	83 f0 1c             	xor    eax,0x1c
  4061a5:	0f be c0             	movsx  eax,al
  4061a8:	3b 45 f0             	cmp    eax,DWORD PTR [ebp-0x10]
  4061ab:	74 0b                	je     4061b8 <_check+0x4ca4>
  4061ad:	8b 45 f4             	mov    eax,DWORD PTR [ebp-0xc]
  4061b0:	89 04 24             	mov    DWORD PTR [esp],eax
  4061b3:	e8 88 b1 ff ff       	call   401340 <_badboy>
  4061b8:	83 45 f4 01          	add    DWORD PTR [ebp-0xc],0x1
  4061bc:	c7 45 f0 17 00 00 00 	mov    DWORD PTR [ebp-0x10],0x17
  4061c3:	8b 55 f4             	mov    edx,DWORD PTR [ebp-0xc]
  4061c6:	8b 45 08             	mov    eax,DWORD PTR [ebp+0x8]
  4061c9:	01 d0                	add    eax,edx
  4061cb:	0f b6 00             	movzx  eax,BYTE PTR [eax]
  4061ce:	83 f0 37             	xor    eax,0x37
  4061d1:	0f be c0             	movsx  eax,al
  4061d4:	3b 45 f0             	cmp    eax,DWORD PTR [ebp-0x10]
  4061d7:	74 0b                	je     4061e4 <_check+0x4cd0>
  4061d9:	8b 45 f4             	mov    eax,DWORD PTR [ebp-0xc]
  4061dc:	89 04 24             	mov    DWORD PTR [esp],eax
  4061df:	e8 5c b1 ff ff       	call   401340 <_badboy>
  4061e4:	83 45 f4 01          	add    DWORD PTR [ebp-0xc],0x1
  4061e8:	c7 45 f0 35 00 00 00 	mov    DWORD PTR [ebp-0x10],0x35
  4061ef:	8b 55 f4             	mov    edx,DWORD PTR [ebp-0xc]
  4061f2:	8b 45 08             	mov    eax,DWORD PTR [ebp+0x8]
  4061f5:	01 d0                	add    eax,edx
  4061f7:	0f b6 00             	movzx  eax,BYTE PTR [eax]
  4061fa:	83 f0 62             	xor    eax,0x62
  4061fd:	0f be c0             	movsx  eax,al
  406200:	3b 45 f0             	cmp    eax,DWORD PTR [ebp-0x10]
  406203:	74 0b                	je     406210 <_check+0x4cfc>
  406205:	8b 45 f4             	mov    eax,DWORD PTR [ebp-0xc]
  406208:	89 04 24             	mov    DWORD PTR [esp],eax
  40620b:	e8 30 b1 ff ff       	call   401340 <_badboy>
  406210:	83 45 f4 01          	add    DWORD PTR [ebp-0xc],0x1
  406214:	c7 45 f0 5b 00 00 00 	mov    DWORD PTR [ebp-0x10],0x5b
  40621b:	8b 55 f4             	mov    edx,DWORD PTR [ebp-0xc]
  40621e:	8b 45 08             	mov    eax,DWORD PTR [ebp+0x8]
  406221:	01 d0                	add    eax,edx
  406223:	0f b6 00             	movzx  eax,BYTE PTR [eax]
  406226:	83 f0 33             	xor    eax,0x33
  406229:	0f be c0             	movsx  eax,al
  40622c:	3b 45 f0             	cmp    eax,DWORD PTR [ebp-0x10]
  40622f:	74 0b                	je     40623c <_check+0x4d28>
  406231:	8b 45 f4             	mov    eax,DWORD PTR [ebp-0xc]
  406234:	89 04 24             	mov    DWORD PTR [esp],eax
  406237:	e8 04 b1 ff ff       	call   401340 <_badboy>
  40623c:	83 45 f4 01          	add    DWORD PTR [ebp-0xc],0x1
  406240:	c7 45 f0 82 00 00 00 	mov    DWORD PTR [ebp-0x10],0x82
  406247:	8b 55 f4             	mov    edx,DWORD PTR [ebp-0xc]
  40624a:	8b 45 08             	mov    eax,DWORD PTR [ebp+0x8]
  40624d:	01 d0                	add    eax,edx
  40624f:	0f b6 00             	movzx  eax,BYTE PTR [eax]
  406252:	0f be c0             	movsx  eax,al
  406255:	34 ed                	xor    al,0xed
  406257:	3b 45 f0             	cmp    eax,DWORD PTR [ebp-0x10]
  40625a:	74 0b                	je     406267 <_check+0x4d53>
  40625c:	8b 45 f4             	mov    eax,DWORD PTR [ebp-0xc]
  40625f:	89 04 24             	mov    DWORD PTR [esp],eax
  406262:	e8 d9 b0 ff ff       	call   401340 <_badboy>
  406267:	83 45 f4 01          	add    DWORD PTR [ebp-0xc],0x1
  40626b:	c7 45 f0 d8 00 00 00 	mov    DWORD PTR [ebp-0x10],0xd8
  406272:	8b 55 f4             	mov    edx,DWORD PTR [ebp-0xc]
  406275:	8b 45 08             	mov    eax,DWORD PTR [ebp+0x8]
  406278:	01 d0                	add    eax,edx
  40627a:	0f b6 00             	movzx  eax,BYTE PTR [eax]
  40627d:	0f be c0             	movsx  eax,al
  406280:	34 f8                	xor    al,0xf8
  406282:	3b 45 f0             	cmp    eax,DWORD PTR [ebp-0x10]
  406285:	74 0b                	je     406292 <_check+0x4d7e>
  406287:	8b 45 f4             	mov    eax,DWORD PTR [ebp-0xc]
  40628a:	89 04 24             	mov    DWORD PTR [esp],eax
  40628d:	e8 ae b0 ff ff       	call   401340 <_badboy>
  406292:	83 45 f4 01          	add    DWORD PTR [ebp-0xc],0x1
  406296:	c7 45 f0 27 00 00 00 	mov    DWORD PTR [ebp-0x10],0x27
  40629d:	8b 55 f4             	mov    edx,DWORD PTR [ebp-0xc]
  4062a0:	8b 45 08             	mov    eax,DWORD PTR [ebp+0x8]
  4062a3:	01 d0                	add    eax,edx
  4062a5:	0f b6 00             	movzx  eax,BYTE PTR [eax]
  4062a8:	83 f0 6b             	xor    eax,0x6b
  4062ab:	0f be c0             	movsx  eax,al
  4062ae:	3b 45 f0             	cmp    eax,DWORD PTR [ebp-0x10]
  4062b1:	74 0b                	je     4062be <_check+0x4daa>
  4062b3:	8b 45 f4             	mov    eax,DWORD PTR [ebp-0xc]
  4062b6:	89 04 24             	mov    DWORD PTR [esp],eax
  4062b9:	e8 82 b0 ff ff       	call   401340 <_badboy>
  4062be:	83 45 f4 01          	add    DWORD PTR [ebp-0xc],0x1
  4062c2:	c7 45 f0 ac 00 00 00 	mov    DWORD PTR [ebp-0x10],0xac
  4062c9:	8b 55 f4             	mov    edx,DWORD PTR [ebp-0xc]
  4062cc:	8b 45 08             	mov    eax,DWORD PTR [ebp+0x8]
  4062cf:	01 d0                	add    eax,edx
  4062d1:	0f b6 00             	movzx  eax,BYTE PTR [eax]
  4062d4:	0f be c0             	movsx  eax,al
  4062d7:	34 c5                	xor    al,0xc5
  4062d9:	3b 45 f0             	cmp    eax,DWORD PTR [ebp-0x10]
  4062dc:	74 0b                	je     4062e9 <_check+0x4dd5>
  4062de:	8b 45 f4             	mov    eax,DWORD PTR [ebp-0xc]
  4062e1:	89 04 24             	mov    DWORD PTR [esp],eax
  4062e4:	e8 57 b0 ff ff       	call   401340 <_badboy>
  4062e9:	83 45 f4 01          	add    DWORD PTR [ebp-0xc],0x1
  4062ed:	c7 45 f0 df 00 00 00 	mov    DWORD PTR [ebp-0x10],0xdf
  4062f4:	8b 55 f4             	mov    edx,DWORD PTR [ebp-0xc]
  4062f7:	8b 45 08             	mov    eax,DWORD PTR [ebp+0x8]
  4062fa:	01 d0                	add    eax,edx
  4062fc:	0f b6 00             	movzx  eax,BYTE PTR [eax]
  4062ff:	0f be c0             	movsx  eax,al
  406302:	34 a9                	xor    al,0xa9
  406304:	3b 45 f0             	cmp    eax,DWORD PTR [ebp-0x10]
  406307:	74 0b                	je     406314 <_check+0x4e00>
  406309:	8b 45 f4             	mov    eax,DWORD PTR [ebp-0xc]
  40630c:	89 04 24             	mov    DWORD PTR [esp],eax
  40630f:	e8 2c b0 ff ff       	call   401340 <_badboy>
  406314:	83 45 f4 01          	add    DWORD PTR [ebp-0xc],0x1
  406318:	c7 45 f0 c8 00 00 00 	mov    DWORD PTR [ebp-0x10],0xc8
  40631f:	8b 55 f4             	mov    edx,DWORD PTR [ebp-0xc]
  406322:	8b 45 08             	mov    eax,DWORD PTR [ebp+0x8]
  406325:	01 d0                	add    eax,edx
  406327:	0f b6 00             	movzx  eax,BYTE PTR [eax]
  40632a:	0f be c0             	movsx  eax,al
  40632d:	34 ad                	xor    al,0xad
  40632f:	3b 45 f0             	cmp    eax,DWORD PTR [ebp-0x10]
  406332:	74 0b                	je     40633f <_check+0x4e2b>
  406334:	8b 45 f4             	mov    eax,DWORD PTR [ebp-0xc]
  406337:	89 04 24             	mov    DWORD PTR [esp],eax
  40633a:	e8 01 b0 ff ff       	call   401340 <_badboy>
  40633f:	83 45 f4 01          	add    DWORD PTR [ebp-0xc],0x1
  406343:	c7 45 f0 33 00 00 00 	mov    DWORD PTR [ebp-0x10],0x33
  40634a:	8b 55 f4             	mov    edx,DWORD PTR [ebp-0xc]
  40634d:	8b 45 08             	mov    eax,DWORD PTR [ebp+0x8]
  406350:	01 d0                	add    eax,edx
  406352:	0f b6 00             	movzx  eax,BYTE PTR [eax]
  406355:	83 f0 40             	xor    eax,0x40
  406358:	0f be c0             	movsx  eax,al
  40635b:	3b 45 f0             	cmp    eax,DWORD PTR [ebp-0x10]
  40635e:	74 0b                	je     40636b <_check+0x4e57>
  406360:	8b 45 f4             	mov    eax,DWORD PTR [ebp-0xc]
  406363:	89 04 24             	mov    DWORD PTR [esp],eax
  406366:	e8 d5 af ff ff       	call   401340 <_badboy>
  40636b:	83 45 f4 01          	add    DWORD PTR [ebp-0xc],0x1
  40636f:	c7 45 f0 d9 00 00 00 	mov    DWORD PTR [ebp-0x10],0xd9
  406376:	8b 55 f4             	mov    edx,DWORD PTR [ebp-0xc]
  406379:	8b 45 08             	mov    eax,DWORD PTR [ebp+0x8]
  40637c:	01 d0                	add    eax,edx
  40637e:	0f b6 00             	movzx  eax,BYTE PTR [eax]
  406381:	0f be c0             	movsx  eax,al
  406384:	34 f9                	xor    al,0xf9
  406386:	3b 45 f0             	cmp    eax,DWORD PTR [ebp-0x10]
  406389:	74 0b                	je     406396 <_check+0x4e82>
  40638b:	8b 45 f4             	mov    eax,DWORD PTR [ebp-0xc]
  40638e:	89 04 24             	mov    DWORD PTR [esp],eax
  406391:	e8 aa af ff ff       	call   401340 <_badboy>
  406396:	83 45 f4 01          	add    DWORD PTR [ebp-0xc],0x1
  40639a:	c7 45 f0 b2 00 00 00 	mov    DWORD PTR [ebp-0x10],0xb2
  4063a1:	8b 55 f4             	mov    edx,DWORD PTR [ebp-0xc]
  4063a4:	8b 45 08             	mov    eax,DWORD PTR [ebp+0x8]
  4063a7:	01 d0                	add    eax,edx
  4063a9:	0f b6 00             	movzx  eax,BYTE PTR [eax]
  4063ac:	0f be c0             	movsx  eax,al
  4063af:	34 d4                	xor    al,0xd4
  4063b1:	3b 45 f0             	cmp    eax,DWORD PTR [ebp-0x10]
  4063b4:	74 0b                	je     4063c1 <_check+0x4ead>
  4063b6:	8b 45 f4             	mov    eax,DWORD PTR [ebp-0xc]
  4063b9:	89 04 24             	mov    DWORD PTR [esp],eax
  4063bc:	e8 7f af ff ff       	call   401340 <_badboy>
  4063c1:	83 45 f4 01          	add    DWORD PTR [ebp-0xc],0x1
  4063c5:	c7 45 f0 ac 00 00 00 	mov    DWORD PTR [ebp-0x10],0xac
  4063cc:	8b 55 f4             	mov    edx,DWORD PTR [ebp-0xc]
  4063cf:	8b 45 08             	mov    eax,DWORD PTR [ebp+0x8]
  4063d2:	01 d0                	add    eax,edx
  4063d4:	0f b6 00             	movzx  eax,BYTE PTR [eax]
  4063d7:	0f be c0             	movsx  eax,al
  4063da:	34 c3                	xor    al,0xc3
  4063dc:	3b 45 f0             	cmp    eax,DWORD PTR [ebp-0x10]
  4063df:	74 0b                	je     4063ec <_check+0x4ed8>
  4063e1:	8b 45 f4             	mov    eax,DWORD PTR [ebp-0xc]
  4063e4:	89 04 24             	mov    DWORD PTR [esp],eax
  4063e7:	e8 54 af ff ff       	call   401340 <_badboy>
  4063ec:	83 45 f4 01          	add    DWORD PTR [ebp-0xc],0x1
  4063f0:	c7 45 f0 dc 00 00 00 	mov    DWORD PTR [ebp-0x10],0xdc
  4063f7:	8b 55 f4             	mov    edx,DWORD PTR [ebp-0xc]
  4063fa:	8b 45 08             	mov    eax,DWORD PTR [ebp+0x8]
  4063fd:	01 d0                	add    eax,edx
  4063ff:	0f b6 00             	movzx  eax,BYTE PTR [eax]
  406402:	0f be c0             	movsx  eax,al
  406405:	34 ae                	xor    al,0xae
  406407:	3b 45 f0             	cmp    eax,DWORD PTR [ebp-0x10]
  40640a:	74 0b                	je     406417 <_check+0x4f03>
  40640c:	8b 45 f4             	mov    eax,DWORD PTR [ebp-0xc]
  40640f:	89 04 24             	mov    DWORD PTR [esp],eax
  406412:	e8 29 af ff ff       	call   401340 <_badboy>
  406417:	83 45 f4 01          	add    DWORD PTR [ebp-0xc],0x1
  40641b:	c7 45 f0 14 00 00 00 	mov    DWORD PTR [ebp-0x10],0x14
  406422:	8b 55 f4             	mov    edx,DWORD PTR [ebp-0xc]
  406425:	8b 45 08             	mov    eax,DWORD PTR [ebp+0x8]
  406428:	01 d0                	add    eax,edx
  40642a:	0f b6 00             	movzx  eax,BYTE PTR [eax]
  40642d:	83 f0 34             	xor    eax,0x34
  406430:	0f be c0             	movsx  eax,al
  406433:	3b 45 f0             	cmp    eax,DWORD PTR [ebp-0x10]
  406436:	74 0b                	je     406443 <_check+0x4f2f>
  406438:	8b 45 f4             	mov    eax,DWORD PTR [ebp-0xc]
  40643b:	89 04 24             	mov    DWORD PTR [esp],eax
  40643e:	e8 fd ae ff ff       	call   401340 <_badboy>
  406443:	83 45 f4 01          	add    DWORD PTR [ebp-0xc],0x1
  406447:	c7 45 f0 e0 00 00 00 	mov    DWORD PTR [ebp-0x10],0xe0
  40644e:	8b 55 f4             	mov    edx,DWORD PTR [ebp-0xc]
  406451:	8b 45 08             	mov    eax,DWORD PTR [ebp+0x8]
  406454:	01 d0                	add    eax,edx
  406456:	0f b6 00             	movzx  eax,BYTE PTR [eax]
  406459:	0f be c0             	movsx  eax,al
  40645c:	34 a2                	xor    al,0xa2
  40645e:	3b 45 f0             	cmp    eax,DWORD PTR [ebp-0x10]
  406461:	74 0b                	je     40646e <_check+0x4f5a>
  406463:	8b 45 f4             	mov    eax,DWORD PTR [ebp-0xc]
  406466:	89 04 24             	mov    DWORD PTR [esp],eax
  406469:	e8 d2 ae ff ff       	call   401340 <_badboy>
  40646e:	83 45 f4 01          	add    DWORD PTR [ebp-0xc],0x1
  406472:	c7 45 f0 49 00 00 00 	mov    DWORD PTR [ebp-0x10],0x49
  406479:	8b 55 f4             	mov    edx,DWORD PTR [ebp-0xc]
  40647c:	8b 45 08             	mov    eax,DWORD PTR [ebp+0x8]
  40647f:	01 d0                	add    eax,edx
  406481:	0f b6 00             	movzx  eax,BYTE PTR [eax]
  406484:	83 f0 28             	xor    eax,0x28
  406487:	0f be c0             	movsx  eax,al
  40648a:	3b 45 f0             	cmp    eax,DWORD PTR [ebp-0x10]
  40648d:	74 0b                	je     40649a <_check+0x4f86>
  40648f:	8b 45 f4             	mov    eax,DWORD PTR [ebp-0xc]
  406492:	89 04 24             	mov    DWORD PTR [esp],eax
  406495:	e8 a6 ae ff ff       	call   401340 <_badboy>
  40649a:	83 45 f4 01          	add    DWORD PTR [ebp-0xc],0x1
  40649e:	c7 45 f0 1e 00 00 00 	mov    DWORD PTR [ebp-0x10],0x1e
  4064a5:	8b 55 f4             	mov    edx,DWORD PTR [ebp-0xc]
  4064a8:	8b 45 08             	mov    eax,DWORD PTR [ebp+0x8]
  4064ab:	01 d0                	add    eax,edx
  4064ad:	0f b6 00             	movzx  eax,BYTE PTR [eax]
  4064b0:	83 f0 6a             	xor    eax,0x6a
  4064b3:	0f be c0             	movsx  eax,al
  4064b6:	3b 45 f0             	cmp    eax,DWORD PTR [ebp-0x10]
  4064b9:	74 0b                	je     4064c6 <_check+0x4fb2>
  4064bb:	8b 45 f4             	mov    eax,DWORD PTR [ebp-0xc]
  4064be:	89 04 24             	mov    DWORD PTR [esp],eax
  4064c1:	e8 7a ae ff ff       	call   401340 <_badboy>
  4064c6:	83 45 f4 01          	add    DWORD PTR [ebp-0xc],0x1
  4064ca:	c7 45 f0 cc 00 00 00 	mov    DWORD PTR [ebp-0x10],0xcc
  4064d1:	8b 55 f4             	mov    edx,DWORD PTR [ebp-0xc]
  4064d4:	8b 45 08             	mov    eax,DWORD PTR [ebp+0x8]
  4064d7:	01 d0                	add    eax,edx
  4064d9:	0f b6 00             	movzx  eax,BYTE PTR [eax]
  4064dc:	0f be c0             	movsx  eax,al
  4064df:	34 b8                	xor    al,0xb8
  4064e1:	3b 45 f0             	cmp    eax,DWORD PTR [ebp-0x10]
  4064e4:	74 0b                	je     4064f1 <_check+0x4fdd>
  4064e6:	8b 45 f4             	mov    eax,DWORD PTR [ebp-0xc]
  4064e9:	89 04 24             	mov    DWORD PTR [esp],eax
  4064ec:	e8 4f ae ff ff       	call   401340 <_badboy>
  4064f1:	83 45 f4 01          	add    DWORD PTR [ebp-0xc],0x1
  4064f5:	c7 45 f0 2c 00 00 00 	mov    DWORD PTR [ebp-0x10],0x2c
  4064fc:	8b 55 f4             	mov    edx,DWORD PTR [ebp-0xc]
  4064ff:	8b 45 08             	mov    eax,DWORD PTR [ebp+0x8]
  406502:	01 d0                	add    eax,edx
  406504:	0f b6 00             	movzx  eax,BYTE PTR [eax]
  406507:	83 f0 40             	xor    eax,0x40
  40650a:	0f be c0             	movsx  eax,al
  40650d:	3b 45 f0             	cmp    eax,DWORD PTR [ebp-0x10]
  406510:	74 0b                	je     40651d <_check+0x5009>
  406512:	8b 45 f4             	mov    eax,DWORD PTR [ebp-0xc]
  406515:	89 04 24             	mov    DWORD PTR [esp],eax
  406518:	e8 23 ae ff ff       	call   401340 <_badboy>
  40651d:	83 45 f4 01          	add    DWORD PTR [ebp-0xc],0x1
  406521:	c7 45 f0 fe 00 00 00 	mov    DWORD PTR [ebp-0x10],0xfe
  406528:	8b 55 f4             	mov    edx,DWORD PTR [ebp-0xc]
  40652b:	8b 45 08             	mov    eax,DWORD PTR [ebp+0x8]
  40652e:	01 d0                	add    eax,edx
  406530:	0f b6 00             	movzx  eax,BYTE PTR [eax]
  406533:	0f be c0             	movsx  eax,al
  406536:	34 9b                	xor    al,0x9b
  406538:	3b 45 f0             	cmp    eax,DWORD PTR [ebp-0x10]
  40653b:	74 0b                	je     406548 <_check+0x5034>
  40653d:	8b 45 f4             	mov    eax,DWORD PTR [ebp-0xc]
  406540:	89 04 24             	mov    DWORD PTR [esp],eax
  406543:	e8 f8 ad ff ff       	call   401340 <_badboy>
  406548:	83 45 f4 01          	add    DWORD PTR [ebp-0xc],0x1
  40654c:	c7 45 f0 74 00 00 00 	mov    DWORD PTR [ebp-0x10],0x74
  406553:	8b 55 f4             	mov    edx,DWORD PTR [ebp-0xc]
  406556:	8b 45 08             	mov    eax,DWORD PTR [ebp+0x8]
  406559:	01 d0                	add    eax,edx
  40655b:	0f b6 00             	movzx  eax,BYTE PTR [eax]
  40655e:	83 f0 5a             	xor    eax,0x5a
  406561:	0f be c0             	movsx  eax,al
  406564:	3b 45 f0             	cmp    eax,DWORD PTR [ebp-0x10]
  406567:	74 0b                	je     406574 <_check+0x5060>
  406569:	8b 45 f4             	mov    eax,DWORD PTR [ebp-0xc]
  40656c:	89 04 24             	mov    DWORD PTR [esp],eax
  40656f:	e8 cc ad ff ff       	call   401340 <_badboy>
  406574:	83 45 f4 01          	add    DWORD PTR [ebp-0xc],0x1
  406578:	c7 45 f0 be 00 00 00 	mov    DWORD PTR [ebp-0x10],0xbe
  40657f:	8b 55 f4             	mov    edx,DWORD PTR [ebp-0xc]
  406582:	8b 45 08             	mov    eax,DWORD PTR [ebp+0x8]
  406585:	01 d0                	add    eax,edx
  406587:	0f b6 00             	movzx  eax,BYTE PTR [eax]
  40658a:	0f be c0             	movsx  eax,al
  40658d:	34 b4                	xor    al,0xb4
  40658f:	3b 45 f0             	cmp    eax,DWORD PTR [ebp-0x10]
  406592:	74 0b                	je     40659f <_check+0x508b>
  406594:	8b 45 f4             	mov    eax,DWORD PTR [ebp-0xc]
  406597:	89 04 24             	mov    DWORD PTR [esp],eax
  40659a:	e8 a1 ad ff ff       	call   401340 <_badboy>
  40659f:	83 45 f4 01          	add    DWORD PTR [ebp-0xc],0x1
  4065a3:	c7 45 f0 be 00 00 00 	mov    DWORD PTR [ebp-0x10],0xbe
  4065aa:	8b 55 f4             	mov    edx,DWORD PTR [ebp-0xc]
  4065ad:	8b 45 08             	mov    eax,DWORD PTR [ebp+0x8]
  4065b0:	01 d0                	add    eax,edx
  4065b2:	0f b6 00             	movzx  eax,BYTE PTR [eax]
  4065b5:	0f be c0             	movsx  eax,al
  4065b8:	34 b4                	xor    al,0xb4
  4065ba:	3b 45 f0             	cmp    eax,DWORD PTR [ebp-0x10]
  4065bd:	74 0b                	je     4065ca <_check+0x50b6>
  4065bf:	8b 45 f4             	mov    eax,DWORD PTR [ebp-0xc]
  4065c2:	89 04 24             	mov    DWORD PTR [esp],eax
  4065c5:	e8 76 ad ff ff       	call   401340 <_badboy>
  4065ca:	83 45 f4 01          	add    DWORD PTR [ebp-0xc],0x1
  4065ce:	c7 45 f0 f0 00 00 00 	mov    DWORD PTR [ebp-0x10],0xf0
  4065d5:	8b 55 f4             	mov    edx,DWORD PTR [ebp-0xc]
  4065d8:	8b 45 08             	mov    eax,DWORD PTR [ebp+0x8]
  4065db:	01 d0                	add    eax,edx
  4065dd:	0f b6 00             	movzx  eax,BYTE PTR [eax]
  4065e0:	0f be c0             	movsx  eax,al
  4065e3:	34 b1                	xor    al,0xb1
  4065e5:	3b 45 f0             	cmp    eax,DWORD PTR [ebp-0x10]
  4065e8:	74 0b                	je     4065f5 <_check+0x50e1>
  4065ea:	8b 45 f4             	mov    eax,DWORD PTR [ebp-0xc]
  4065ed:	89 04 24             	mov    DWORD PTR [esp],eax
  4065f0:	e8 4b ad ff ff       	call   401340 <_badboy>
  4065f5:	83 45 f4 01          	add    DWORD PTR [ebp-0xc],0x1
  4065f9:	c7 45 f0 94 00 00 00 	mov    DWORD PTR [ebp-0x10],0x94
  406600:	8b 55 f4             	mov    edx,DWORD PTR [ebp-0xc]
  406603:	8b 45 08             	mov    eax,DWORD PTR [ebp+0x8]
  406606:	01 d0                	add    eax,edx
  406608:	0f b6 00             	movzx  eax,BYTE PTR [eax]
  40660b:	0f be c0             	movsx  eax,al
  40660e:	34 f8                	xor    al,0xf8
  406610:	3b 45 f0             	cmp    eax,DWORD PTR [ebp-0x10]
  406613:	74 0b                	je     406620 <_check+0x510c>
  406615:	8b 45 f4             	mov    eax,DWORD PTR [ebp-0xc]
  406618:	89 04 24             	mov    DWORD PTR [esp],eax
  40661b:	e8 20 ad ff ff       	call   401340 <_badboy>
  406620:	83 45 f4 01          	add    DWORD PTR [ebp-0xc],0x1
  406624:	c7 45 f0 82 00 00 00 	mov    DWORD PTR [ebp-0x10],0x82
  40662b:	8b 55 f4             	mov    edx,DWORD PTR [ebp-0xc]
  40662e:	8b 45 08             	mov    eax,DWORD PTR [ebp+0x8]
  406631:	01 d0                	add    eax,edx
  406633:	0f b6 00             	movzx  eax,BYTE PTR [eax]
  406636:	0f be c0             	movsx  eax,al
  406639:	34 ee                	xor    al,0xee
  40663b:	3b 45 f0             	cmp    eax,DWORD PTR [ebp-0x10]
  40663e:	74 0b                	je     40664b <_check+0x5137>
  406640:	8b 45 f4             	mov    eax,DWORD PTR [ebp-0xc]
  406643:	89 04 24             	mov    DWORD PTR [esp],eax
  406646:	e8 f5 ac ff ff       	call   401340 <_badboy>
  40664b:	83 45 f4 01          	add    DWORD PTR [ebp-0xc],0x1
  40664f:	c7 45 f0 4d 00 00 00 	mov    DWORD PTR [ebp-0x10],0x4d
  406656:	8b 55 f4             	mov    edx,DWORD PTR [ebp-0xc]
  406659:	8b 45 08             	mov    eax,DWORD PTR [ebp+0x8]
  40665c:	01 d0                	add    eax,edx
  40665e:	0f b6 00             	movzx  eax,BYTE PTR [eax]
  406661:	83 f0 6d             	xor    eax,0x6d
  406664:	0f be c0             	movsx  eax,al
  406667:	3b 45 f0             	cmp    eax,DWORD PTR [ebp-0x10]
  40666a:	74 0b                	je     406677 <_check+0x5163>
  40666c:	8b 45 f4             	mov    eax,DWORD PTR [ebp-0xc]
  40666f:	89 04 24             	mov    DWORD PTR [esp],eax
  406672:	e8 c9 ac ff ff       	call   401340 <_badboy>
  406677:	83 45 f4 01          	add    DWORD PTR [ebp-0xc],0x1
  40667b:	c7 45 f0 b5 00 00 00 	mov    DWORD PTR [ebp-0x10],0xb5
  406682:	8b 55 f4             	mov    edx,DWORD PTR [ebp-0xc]
  406685:	8b 45 08             	mov    eax,DWORD PTR [ebp+0x8]
  406688:	01 d0                	add    eax,edx
  40668a:	0f b6 00             	movzx  eax,BYTE PTR [eax]
  40668d:	0f be c0             	movsx  eax,al
  406690:	34 fc                	xor    al,0xfc
  406692:	3b 45 f0             	cmp    eax,DWORD PTR [ebp-0x10]
  406695:	74 0b                	je     4066a2 <_check+0x518e>
  406697:	8b 45 f4             	mov    eax,DWORD PTR [ebp-0xc]
  40669a:	89 04 24             	mov    DWORD PTR [esp],eax
  40669d:	e8 9e ac ff ff       	call   401340 <_badboy>
  4066a2:	83 45 f4 01          	add    DWORD PTR [ebp-0xc],0x1
  4066a6:	c7 45 f0 32 00 00 00 	mov    DWORD PTR [ebp-0x10],0x32
  4066ad:	8b 55 f4             	mov    edx,DWORD PTR [ebp-0xc]
  4066b0:	8b 45 08             	mov    eax,DWORD PTR [ebp+0x8]
  4066b3:	01 d0                	add    eax,edx
  4066b5:	0f b6 00             	movzx  eax,BYTE PTR [eax]
  4066b8:	83 f0 12             	xor    eax,0x12
  4066bb:	0f be c0             	movsx  eax,al
  4066be:	3b 45 f0             	cmp    eax,DWORD PTR [ebp-0x10]
  4066c1:	74 0b                	je     4066ce <_check+0x51ba>
  4066c3:	8b 45 f4             	mov    eax,DWORD PTR [ebp-0xc]
  4066c6:	89 04 24             	mov    DWORD PTR [esp],eax
  4066c9:	e8 72 ac ff ff       	call   401340 <_badboy>
  4066ce:	83 45 f4 01          	add    DWORD PTR [ebp-0xc],0x1
  4066d2:	c7 45 f0 a1 00 00 00 	mov    DWORD PTR [ebp-0x10],0xa1
  4066d9:	8b 55 f4             	mov    edx,DWORD PTR [ebp-0xc]
  4066dc:	8b 45 08             	mov    eax,DWORD PTR [ebp+0x8]
  4066df:	01 d0                	add    eax,edx
  4066e1:	0f b6 00             	movzx  eax,BYTE PTR [eax]
  4066e4:	0f be c0             	movsx  eax,al
  4066e7:	34 cf                	xor    al,0xcf
  4066e9:	3b 45 f0             	cmp    eax,DWORD PTR [ebp-0x10]
  4066ec:	74 0b                	je     4066f9 <_check+0x51e5>
  4066ee:	8b 45 f4             	mov    eax,DWORD PTR [ebp-0xc]
  4066f1:	89 04 24             	mov    DWORD PTR [esp],eax
  4066f4:	e8 47 ac ff ff       	call   401340 <_badboy>
  4066f9:	83 45 f4 01          	add    DWORD PTR [ebp-0xc],0x1
  4066fd:	c7 45 f0 79 00 00 00 	mov    DWORD PTR [ebp-0x10],0x79
  406704:	8b 55 f4             	mov    edx,DWORD PTR [ebp-0xc]
  406707:	8b 45 08             	mov    eax,DWORD PTR [ebp+0x8]
  40670a:	01 d0                	add    eax,edx
  40670c:	0f b6 00             	movzx  eax,BYTE PTR [eax]
  40670f:	83 f0 1c             	xor    eax,0x1c
  406712:	0f be c0             	movsx  eax,al
  406715:	3b 45 f0             	cmp    eax,DWORD PTR [ebp-0x10]
  406718:	74 0b                	je     406725 <_check+0x5211>
  40671a:	8b 45 f4             	mov    eax,DWORD PTR [ebp-0xc]
  40671d:	89 04 24             	mov    DWORD PTR [esp],eax
  406720:	e8 1b ac ff ff       	call   401340 <_badboy>
  406725:	83 45 f4 01          	add    DWORD PTR [ebp-0xc],0x1
  406729:	c7 45 f0 40 00 00 00 	mov    DWORD PTR [ebp-0x10],0x40
  406730:	8b 55 f4             	mov    edx,DWORD PTR [ebp-0xc]
  406733:	8b 45 08             	mov    eax,DWORD PTR [ebp+0x8]
  406736:	01 d0                	add    eax,edx
  406738:	0f b6 00             	movzx  eax,BYTE PTR [eax]
  40673b:	83 f0 25             	xor    eax,0x25
  40673e:	0f be c0             	movsx  eax,al
  406741:	3b 45 f0             	cmp    eax,DWORD PTR [ebp-0x10]
  406744:	74 0b                	je     406751 <_check+0x523d>
  406746:	8b 45 f4             	mov    eax,DWORD PTR [ebp-0xc]
  406749:	89 04 24             	mov    DWORD PTR [esp],eax
  40674c:	e8 ef ab ff ff       	call   401340 <_badboy>
  406751:	83 45 f4 01          	add    DWORD PTR [ebp-0xc],0x1
  406755:	c7 45 f0 c0 00 00 00 	mov    DWORD PTR [ebp-0x10],0xc0
  40675c:	8b 55 f4             	mov    edx,DWORD PTR [ebp-0xc]
  40675f:	8b 45 08             	mov    eax,DWORD PTR [ebp+0x8]
  406762:	01 d0                	add    eax,edx
  406764:	0f b6 00             	movzx  eax,BYTE PTR [eax]
  406767:	0f be c0             	movsx  eax,al
  40676a:	34 a4                	xor    al,0xa4
  40676c:	3b 45 f0             	cmp    eax,DWORD PTR [ebp-0x10]
  40676f:	74 0b                	je     40677c <_check+0x5268>
  406771:	8b 45 f4             	mov    eax,DWORD PTR [ebp-0xc]
  406774:	89 04 24             	mov    DWORD PTR [esp],eax
  406777:	e8 c4 ab ff ff       	call   401340 <_badboy>
  40677c:	83 45 f4 01          	add    DWORD PTR [ebp-0xc],0x1
  406780:	c7 45 f0 a7 00 00 00 	mov    DWORD PTR [ebp-0x10],0xa7
  406787:	8b 55 f4             	mov    edx,DWORD PTR [ebp-0xc]
  40678a:	8b 45 08             	mov    eax,DWORD PTR [ebp+0x8]
  40678d:	01 d0                	add    eax,edx
  40678f:	0f b6 00             	movzx  eax,BYTE PTR [eax]
  406792:	0f be c0             	movsx  eax,al
  406795:	34 87                	xor    al,0x87
  406797:	3b 45 f0             	cmp    eax,DWORD PTR [ebp-0x10]
  40679a:	74 0b                	je     4067a7 <_check+0x5293>
  40679c:	8b 45 f4             	mov    eax,DWORD PTR [ebp-0xc]
  40679f:	89 04 24             	mov    DWORD PTR [esp],eax
  4067a2:	e8 99 ab ff ff       	call   401340 <_badboy>
  4067a7:	83 45 f4 01          	add    DWORD PTR [ebp-0xc],0x1
  4067ab:	c7 45 f0 e6 00 00 00 	mov    DWORD PTR [ebp-0x10],0xe6
  4067b2:	8b 55 f4             	mov    edx,DWORD PTR [ebp-0xc]
  4067b5:	8b 45 08             	mov    eax,DWORD PTR [ebp+0x8]
  4067b8:	01 d0                	add    eax,edx
  4067ba:	0f b6 00             	movzx  eax,BYTE PTR [eax]
  4067bd:	0f be c0             	movsx  eax,al
  4067c0:	34 8e                	xor    al,0x8e
  4067c2:	3b 45 f0             	cmp    eax,DWORD PTR [ebp-0x10]
  4067c5:	74 0b                	je     4067d2 <_check+0x52be>
  4067c7:	8b 45 f4             	mov    eax,DWORD PTR [ebp-0xc]
  4067ca:	89 04 24             	mov    DWORD PTR [esp],eax
  4067cd:	e8 6e ab ff ff       	call   401340 <_badboy>
  4067d2:	83 45 f4 01          	add    DWORD PTR [ebp-0xc],0x1
  4067d6:	c7 45 f0 a2 00 00 00 	mov    DWORD PTR [ebp-0x10],0xa2
  4067dd:	8b 55 f4             	mov    edx,DWORD PTR [ebp-0xc]
  4067e0:	8b 45 08             	mov    eax,DWORD PTR [ebp+0x8]
  4067e3:	01 d0                	add    eax,edx
  4067e5:	0f b6 00             	movzx  eax,BYTE PTR [eax]
  4067e8:	0f be c0             	movsx  eax,al
  4067eb:	34 c7                	xor    al,0xc7
  4067ed:	3b 45 f0             	cmp    eax,DWORD PTR [ebp-0x10]
  4067f0:	74 0b                	je     4067fd <_check+0x52e9>
  4067f2:	8b 45 f4             	mov    eax,DWORD PTR [ebp-0xc]
  4067f5:	89 04 24             	mov    DWORD PTR [esp],eax
  4067f8:	e8 43 ab ff ff       	call   401340 <_badboy>
  4067fd:	83 45 f4 01          	add    DWORD PTR [ebp-0xc],0x1
  406801:	c7 45 f0 15 00 00 00 	mov    DWORD PTR [ebp-0x10],0x15
  406808:	8b 55 f4             	mov    edx,DWORD PTR [ebp-0xc]
  40680b:	8b 45 08             	mov    eax,DWORD PTR [ebp+0x8]
  40680e:	01 d0                	add    eax,edx
  406810:	0f b6 00             	movzx  eax,BYTE PTR [eax]
  406813:	83 f0 67             	xor    eax,0x67
  406816:	0f be c0             	movsx  eax,al
  406819:	3b 45 f0             	cmp    eax,DWORD PTR [ebp-0x10]
  40681c:	74 0b                	je     406829 <_check+0x5315>
  40681e:	8b 45 f4             	mov    eax,DWORD PTR [ebp-0xc]
  406821:	89 04 24             	mov    DWORD PTR [esp],eax
  406824:	e8 17 ab ff ff       	call   401340 <_badboy>
  406829:	83 45 f4 01          	add    DWORD PTR [ebp-0xc],0x1
  40682d:	c7 45 f0 42 00 00 00 	mov    DWORD PTR [ebp-0x10],0x42
  406834:	8b 55 f4             	mov    edx,DWORD PTR [ebp-0xc]
  406837:	8b 45 08             	mov    eax,DWORD PTR [ebp+0x8]
  40683a:	01 d0                	add    eax,edx
  40683c:	0f b6 00             	movzx  eax,BYTE PTR [eax]
  40683f:	83 f0 27             	xor    eax,0x27
  406842:	0f be c0             	movsx  eax,al
  406845:	3b 45 f0             	cmp    eax,DWORD PTR [ebp-0x10]
  406848:	74 0b                	je     406855 <_check+0x5341>
  40684a:	8b 45 f4             	mov    eax,DWORD PTR [ebp-0xc]
  40684d:	89 04 24             	mov    DWORD PTR [esp],eax
  406850:	e8 eb aa ff ff       	call   401340 <_badboy>
  406855:	83 45 f4 01          	add    DWORD PTR [ebp-0xc],0x1
  406859:	c7 45 f0 b4 00 00 00 	mov    DWORD PTR [ebp-0x10],0xb4
  406860:	8b 55 f4             	mov    edx,DWORD PTR [ebp-0xc]
  406863:	8b 45 08             	mov    eax,DWORD PTR [ebp+0x8]
  406866:	01 d0                	add    eax,edx
  406868:	0f b6 00             	movzx  eax,BYTE PTR [eax]
  40686b:	0f be c0             	movsx  eax,al
  40686e:	34 94                	xor    al,0x94
  406870:	3b 45 f0             	cmp    eax,DWORD PTR [ebp-0x10]
  406873:	74 0b                	je     406880 <_check+0x536c>
  406875:	8b 45 f4             	mov    eax,DWORD PTR [ebp-0xc]
  406878:	89 04 24             	mov    DWORD PTR [esp],eax
  40687b:	e8 c0 aa ff ff       	call   401340 <_badboy>
  406880:	83 45 f4 01          	add    DWORD PTR [ebp-0xc],0x1
  406884:	c7 45 f0 f7 00 00 00 	mov    DWORD PTR [ebp-0x10],0xf7
  40688b:	8b 55 f4             	mov    edx,DWORD PTR [ebp-0xc]
  40688e:	8b 45 08             	mov    eax,DWORD PTR [ebp+0x8]
  406891:	01 d0                	add    eax,edx
  406893:	0f b6 00             	movzx  eax,BYTE PTR [eax]
  406896:	0f be c0             	movsx  eax,al
  406899:	34 9e                	xor    al,0x9e
  40689b:	3b 45 f0             	cmp    eax,DWORD PTR [ebp-0x10]
  40689e:	74 0b                	je     4068ab <_check+0x5397>
  4068a0:	8b 45 f4             	mov    eax,DWORD PTR [ebp-0xc]
  4068a3:	89 04 24             	mov    DWORD PTR [esp],eax
  4068a6:	e8 95 aa ff ff       	call   401340 <_badboy>
  4068ab:	83 45 f4 01          	add    DWORD PTR [ebp-0xc],0x1
  4068af:	c7 45 f0 33 00 00 00 	mov    DWORD PTR [ebp-0x10],0x33
  4068b6:	8b 55 f4             	mov    edx,DWORD PTR [ebp-0xc]
  4068b9:	8b 45 08             	mov    eax,DWORD PTR [ebp+0x8]
  4068bc:	01 d0                	add    eax,edx
  4068be:	0f b6 00             	movzx  eax,BYTE PTR [eax]
  4068c1:	83 f0 40             	xor    eax,0x40
  4068c4:	0f be c0             	movsx  eax,al
  4068c7:	3b 45 f0             	cmp    eax,DWORD PTR [ebp-0x10]
  4068ca:	74 0b                	je     4068d7 <_check+0x53c3>
  4068cc:	8b 45 f4             	mov    eax,DWORD PTR [ebp-0xc]
  4068cf:	89 04 24             	mov    DWORD PTR [esp],eax
  4068d2:	e8 69 aa ff ff       	call   401340 <_badboy>
  4068d7:	83 45 f4 01          	add    DWORD PTR [ebp-0xc],0x1
  4068db:	c7 45 f0 8a 00 00 00 	mov    DWORD PTR [ebp-0x10],0x8a
  4068e2:	8b 55 f4             	mov    edx,DWORD PTR [ebp-0xc]
  4068e5:	8b 45 08             	mov    eax,DWORD PTR [ebp+0x8]
  4068e8:	01 d0                	add    eax,edx
  4068ea:	0f b6 00             	movzx  eax,BYTE PTR [eax]
  4068ed:	0f be c0             	movsx  eax,al
  4068f0:	34 aa                	xor    al,0xaa
  4068f2:	3b 45 f0             	cmp    eax,DWORD PTR [ebp-0x10]
  4068f5:	74 0b                	je     406902 <_check+0x53ee>
  4068f7:	8b 45 f4             	mov    eax,DWORD PTR [ebp-0xc]
  4068fa:	89 04 24             	mov    DWORD PTR [esp],eax
  4068fd:	e8 3e aa ff ff       	call   401340 <_badboy>
  406902:	83 45 f4 01          	add    DWORD PTR [ebp-0xc],0x1
  406906:	c7 45 f0 26 00 00 00 	mov    DWORD PTR [ebp-0x10],0x26
  40690d:	8b 55 f4             	mov    edx,DWORD PTR [ebp-0xc]
  406910:	8b 45 08             	mov    eax,DWORD PTR [ebp+0x8]
  406913:	01 d0                	add    eax,edx
  406915:	0f b6 00             	movzx  eax,BYTE PTR [eax]
  406918:	83 f0 47             	xor    eax,0x47
  40691b:	0f be c0             	movsx  eax,al
  40691e:	3b 45 f0             	cmp    eax,DWORD PTR [ebp-0x10]
  406921:	74 0b                	je     40692e <_check+0x541a>
  406923:	8b 45 f4             	mov    eax,DWORD PTR [ebp-0xc]
  406926:	89 04 24             	mov    DWORD PTR [esp],eax
  406929:	e8 12 aa ff ff       	call   401340 <_badboy>
  40692e:	83 45 f4 01          	add    DWORD PTR [ebp-0xc],0x1
  406932:	c7 45 f0 d2 00 00 00 	mov    DWORD PTR [ebp-0x10],0xd2
  406939:	8b 55 f4             	mov    edx,DWORD PTR [ebp-0xc]
  40693c:	8b 45 08             	mov    eax,DWORD PTR [ebp+0x8]
  40693f:	01 d0                	add    eax,edx
  406941:	0f b6 00             	movzx  eax,BYTE PTR [eax]
  406944:	0f be c0             	movsx  eax,al
  406947:	34 f2                	xor    al,0xf2
  406949:	3b 45 f0             	cmp    eax,DWORD PTR [ebp-0x10]
  40694c:	74 0b                	je     406959 <_check+0x5445>
  40694e:	8b 45 f4             	mov    eax,DWORD PTR [ebp-0xc]
  406951:	89 04 24             	mov    DWORD PTR [esp],eax
  406954:	e8 e7 a9 ff ff       	call   401340 <_badboy>
  406959:	83 45 f4 01          	add    DWORD PTR [ebp-0xc],0x1
  40695d:	c7 45 f0 5d 00 00 00 	mov    DWORD PTR [ebp-0x10],0x5d
  406964:	8b 55 f4             	mov    edx,DWORD PTR [ebp-0xc]
  406967:	8b 45 08             	mov    eax,DWORD PTR [ebp+0x8]
  40696a:	01 d0                	add    eax,edx
  40696c:	0f b6 00             	movzx  eax,BYTE PTR [eax]
  40696f:	83 f0 31             	xor    eax,0x31
  406972:	0f be c0             	movsx  eax,al
  406975:	3b 45 f0             	cmp    eax,DWORD PTR [ebp-0x10]
  406978:	74 0b                	je     406985 <_check+0x5471>
  40697a:	8b 45 f4             	mov    eax,DWORD PTR [ebp-0xc]
  40697d:	89 04 24             	mov    DWORD PTR [esp],eax
  406980:	e8 bb a9 ff ff       	call   401340 <_badboy>
  406985:	83 45 f4 01          	add    DWORD PTR [ebp-0xc],0x1
  406989:	c7 45 f0 76 00 00 00 	mov    DWORD PTR [ebp-0x10],0x76
  406990:	8b 55 f4             	mov    edx,DWORD PTR [ebp-0xc]
  406993:	8b 45 08             	mov    eax,DWORD PTR [ebp+0x8]
  406996:	01 d0                	add    eax,edx
  406998:	0f b6 00             	movzx  eax,BYTE PTR [eax]
  40699b:	83 f0 19             	xor    eax,0x19
  40699e:	0f be c0             	movsx  eax,al
  4069a1:	3b 45 f0             	cmp    eax,DWORD PTR [ebp-0x10]
  4069a4:	74 0b                	je     4069b1 <_check+0x549d>
  4069a6:	8b 45 f4             	mov    eax,DWORD PTR [ebp-0xc]
  4069a9:	89 04 24             	mov    DWORD PTR [esp],eax
  4069ac:	e8 8f a9 ff ff       	call   401340 <_badboy>
  4069b1:	83 45 f4 01          	add    DWORD PTR [ebp-0xc],0x1
  4069b5:	c7 45 f0 30 00 00 00 	mov    DWORD PTR [ebp-0x10],0x30
  4069bc:	8b 55 f4             	mov    edx,DWORD PTR [ebp-0xc]
  4069bf:	8b 45 08             	mov    eax,DWORD PTR [ebp+0x8]
  4069c2:	01 d0                	add    eax,edx
  4069c4:	0f b6 00             	movzx  eax,BYTE PTR [eax]
  4069c7:	83 f0 5e             	xor    eax,0x5e
  4069ca:	0f be c0             	movsx  eax,al
  4069cd:	3b 45 f0             	cmp    eax,DWORD PTR [ebp-0x10]
  4069d0:	74 0b                	je     4069dd <_check+0x54c9>
  4069d2:	8b 45 f4             	mov    eax,DWORD PTR [ebp-0xc]
  4069d5:	89 04 24             	mov    DWORD PTR [esp],eax
  4069d8:	e8 63 a9 ff ff       	call   401340 <_badboy>
  4069dd:	83 45 f4 01          	add    DWORD PTR [ebp-0xc],0x1
  4069e1:	c7 45 f0 7e 00 00 00 	mov    DWORD PTR [ebp-0x10],0x7e
  4069e8:	8b 55 f4             	mov    edx,DWORD PTR [ebp-0xc]
  4069eb:	8b 45 08             	mov    eax,DWORD PTR [ebp+0x8]
  4069ee:	01 d0                	add    eax,edx
  4069f0:	0f b6 00             	movzx  eax,BYTE PTR [eax]
  4069f3:	83 f0 19             	xor    eax,0x19
  4069f6:	0f be c0             	movsx  eax,al
  4069f9:	3b 45 f0             	cmp    eax,DWORD PTR [ebp-0x10]
  4069fc:	74 0b                	je     406a09 <_check+0x54f5>
  4069fe:	8b 45 f4             	mov    eax,DWORD PTR [ebp-0xc]
  406a01:	89 04 24             	mov    DWORD PTR [esp],eax
  406a04:	e8 37 a9 ff ff       	call   401340 <_badboy>
  406a09:	83 45 f4 01          	add    DWORD PTR [ebp-0xc],0x1
  406a0d:	c7 45 f0 8e 00 00 00 	mov    DWORD PTR [ebp-0x10],0x8e
  406a14:	8b 55 f4             	mov    edx,DWORD PTR [ebp-0xc]
  406a17:	8b 45 08             	mov    eax,DWORD PTR [ebp+0x8]
  406a1a:	01 d0                	add    eax,edx
  406a1c:	0f b6 00             	movzx  eax,BYTE PTR [eax]
  406a1f:	0f be c0             	movsx  eax,al
  406a22:	34 ae                	xor    al,0xae
  406a24:	3b 45 f0             	cmp    eax,DWORD PTR [ebp-0x10]
  406a27:	74 0b                	je     406a34 <_check+0x5520>
  406a29:	8b 45 f4             	mov    eax,DWORD PTR [ebp-0xc]
  406a2c:	89 04 24             	mov    DWORD PTR [esp],eax
  406a2f:	e8 0c a9 ff ff       	call   401340 <_badboy>
  406a34:	83 45 f4 01          	add    DWORD PTR [ebp-0xc],0x1
  406a38:	c7 45 f0 b9 00 00 00 	mov    DWORD PTR [ebp-0x10],0xb9
  406a3f:	8b 55 f4             	mov    edx,DWORD PTR [ebp-0xc]
  406a42:	8b 45 08             	mov    eax,DWORD PTR [ebp+0x8]
  406a45:	01 d0                	add    eax,edx
  406a47:	0f b6 00             	movzx  eax,BYTE PTR [eax]
  406a4a:	0f be c0             	movsx  eax,al
  406a4d:	34 cd                	xor    al,0xcd
  406a4f:	3b 45 f0             	cmp    eax,DWORD PTR [ebp-0x10]
  406a52:	74 0b                	je     406a5f <_check+0x554b>
  406a54:	8b 45 f4             	mov    eax,DWORD PTR [ebp-0xc]
  406a57:	89 04 24             	mov    DWORD PTR [esp],eax
  406a5a:	e8 e1 a8 ff ff       	call   401340 <_badboy>
  406a5f:	83 45 f4 01          	add    DWORD PTR [ebp-0xc],0x1
  406a63:	c7 45 f0 67 00 00 00 	mov    DWORD PTR [ebp-0x10],0x67
  406a6a:	8b 55 f4             	mov    edx,DWORD PTR [ebp-0xc]
  406a6d:	8b 45 08             	mov    eax,DWORD PTR [ebp+0x8]
  406a70:	01 d0                	add    eax,edx
  406a72:	0f b6 00             	movzx  eax,BYTE PTR [eax]
  406a75:	83 f0 02             	xor    eax,0x2
  406a78:	0f be c0             	movsx  eax,al
  406a7b:	3b 45 f0             	cmp    eax,DWORD PTR [ebp-0x10]
  406a7e:	74 0b                	je     406a8b <_check+0x5577>
  406a80:	8b 45 f4             	mov    eax,DWORD PTR [ebp-0xc]
  406a83:	89 04 24             	mov    DWORD PTR [esp],eax
  406a86:	e8 b5 a8 ff ff       	call   401340 <_badboy>
  406a8b:	83 45 f4 01          	add    DWORD PTR [ebp-0xc],0x1
  406a8f:	c7 45 f0 00 00 00 00 	mov    DWORD PTR [ebp-0x10],0x0
  406a96:	8b 55 f4             	mov    edx,DWORD PTR [ebp-0xc]
  406a99:	8b 45 08             	mov    eax,DWORD PTR [ebp+0x8]
  406a9c:	01 d0                	add    eax,edx
  406a9e:	0f b6 00             	movzx  eax,BYTE PTR [eax]
  406aa1:	83 f0 78             	xor    eax,0x78
  406aa4:	0f be c0             	movsx  eax,al
  406aa7:	3b 45 f0             	cmp    eax,DWORD PTR [ebp-0x10]
  406aaa:	74 0b                	je     406ab7 <_check+0x55a3>
  406aac:	8b 45 f4             	mov    eax,DWORD PTR [ebp-0xc]
  406aaf:	89 04 24             	mov    DWORD PTR [esp],eax
  406ab2:	e8 89 a8 ff ff       	call   401340 <_badboy>
  406ab7:	83 45 f4 01          	add    DWORD PTR [ebp-0xc],0x1
  406abb:	c7 45 f0 2a 00 00 00 	mov    DWORD PTR [ebp-0x10],0x2a
  406ac2:	8b 55 f4             	mov    edx,DWORD PTR [ebp-0xc]
  406ac5:	8b 45 08             	mov    eax,DWORD PTR [ebp+0x8]
  406ac8:	01 d0                	add    eax,edx
  406aca:	0f b6 00             	movzx  eax,BYTE PTR [eax]
  406acd:	83 f0 5e             	xor    eax,0x5e
  406ad0:	0f be c0             	movsx  eax,al
  406ad3:	3b 45 f0             	cmp    eax,DWORD PTR [ebp-0x10]
  406ad6:	74 0b                	je     406ae3 <_check+0x55cf>
  406ad8:	8b 45 f4             	mov    eax,DWORD PTR [ebp-0xc]
  406adb:	89 04 24             	mov    DWORD PTR [esp],eax
  406ade:	e8 5d a8 ff ff       	call   401340 <_badboy>
  406ae3:	83 45 f4 01          	add    DWORD PTR [ebp-0xc],0x1
  406ae7:	c7 45 f0 49 00 00 00 	mov    DWORD PTR [ebp-0x10],0x49
  406aee:	8b 55 f4             	mov    edx,DWORD PTR [ebp-0xc]
  406af1:	8b 45 08             	mov    eax,DWORD PTR [ebp+0x8]
  406af4:	01 d0                	add    eax,edx
  406af6:	0f b6 00             	movzx  eax,BYTE PTR [eax]
  406af9:	83 f0 65             	xor    eax,0x65
  406afc:	0f be c0             	movsx  eax,al
  406aff:	3b 45 f0             	cmp    eax,DWORD PTR [ebp-0x10]
  406b02:	74 0b                	je     406b0f <_check+0x55fb>
  406b04:	8b 45 f4             	mov    eax,DWORD PTR [ebp-0xc]
  406b07:	89 04 24             	mov    DWORD PTR [esp],eax
  406b0a:	e8 31 a8 ff ff       	call   401340 <_badboy>
  406b0f:	83 45 f4 01          	add    DWORD PTR [ebp-0xc],0x1
  406b13:	c7 45 f0 98 00 00 00 	mov    DWORD PTR [ebp-0x10],0x98
  406b1a:	8b 55 f4             	mov    edx,DWORD PTR [ebp-0xc]
  406b1d:	8b 45 08             	mov    eax,DWORD PTR [ebp+0x8]
  406b20:	01 d0                	add    eax,edx
  406b22:	0f b6 00             	movzx  eax,BYTE PTR [eax]
  406b25:	0f be c0             	movsx  eax,al
  406b28:	34 b8                	xor    al,0xb8
  406b2a:	3b 45 f0             	cmp    eax,DWORD PTR [ebp-0x10]
  406b2d:	74 0b                	je     406b3a <_check+0x5626>
  406b2f:	8b 45 f4             	mov    eax,DWORD PTR [ebp-0xc]
  406b32:	89 04 24             	mov    DWORD PTR [esp],eax
  406b35:	e8 06 a8 ff ff       	call   401340 <_badboy>
  406b3a:	83 45 f4 01          	add    DWORD PTR [ebp-0xc],0x1
  406b3e:	c7 45 f0 7d 00 00 00 	mov    DWORD PTR [ebp-0x10],0x7d
  406b45:	8b 55 f4             	mov    edx,DWORD PTR [ebp-0xc]
  406b48:	8b 45 08             	mov    eax,DWORD PTR [ebp+0x8]
  406b4b:	01 d0                	add    eax,edx
  406b4d:	0f b6 00             	movzx  eax,BYTE PTR [eax]
  406b50:	83 f0 17             	xor    eax,0x17
  406b53:	0f be c0             	movsx  eax,al
  406b56:	3b 45 f0             	cmp    eax,DWORD PTR [ebp-0x10]
  406b59:	74 0b                	je     406b66 <_check+0x5652>
  406b5b:	8b 45 f4             	mov    eax,DWORD PTR [ebp-0xc]
  406b5e:	89 04 24             	mov    DWORD PTR [esp],eax
  406b61:	e8 da a7 ff ff       	call   401340 <_badboy>
  406b66:	83 45 f4 01          	add    DWORD PTR [ebp-0xc],0x1
  406b6a:	c7 45 f0 dd 00 00 00 	mov    DWORD PTR [ebp-0x10],0xdd
  406b71:	8b 55 f4             	mov    edx,DWORD PTR [ebp-0xc]
  406b74:	8b 45 08             	mov    eax,DWORD PTR [ebp+0x8]
  406b77:	01 d0                	add    eax,edx
  406b79:	0f b6 00             	movzx  eax,BYTE PTR [eax]
  406b7c:	0f be c0             	movsx  eax,al
  406b7f:	34 a8                	xor    al,0xa8
  406b81:	3b 45 f0             	cmp    eax,DWORD PTR [ebp-0x10]
  406b84:	74 0b                	je     406b91 <_check+0x567d>
  406b86:	8b 45 f4             	mov    eax,DWORD PTR [ebp-0xc]
  406b89:	89 04 24             	mov    DWORD PTR [esp],eax
  406b8c:	e8 af a7 ff ff       	call   401340 <_badboy>
  406b91:	83 45 f4 01          	add    DWORD PTR [ebp-0xc],0x1
  406b95:	c7 45 f0 d5 00 00 00 	mov    DWORD PTR [ebp-0x10],0xd5
  406b9c:	8b 55 f4             	mov    edx,DWORD PTR [ebp-0xc]
  406b9f:	8b 45 08             	mov    eax,DWORD PTR [ebp+0x8]
  406ba2:	01 d0                	add    eax,edx
  406ba4:	0f b6 00             	movzx  eax,BYTE PTR [eax]
  406ba7:	0f be c0             	movsx  eax,al
  406baa:	34 a6                	xor    al,0xa6
  406bac:	3b 45 f0             	cmp    eax,DWORD PTR [ebp-0x10]
  406baf:	74 0b                	je     406bbc <_check+0x56a8>
  406bb1:	8b 45 f4             	mov    eax,DWORD PTR [ebp-0xc]
  406bb4:	89 04 24             	mov    DWORD PTR [esp],eax
  406bb7:	e8 84 a7 ff ff       	call   401340 <_badboy>
  406bbc:	83 45 f4 01          	add    DWORD PTR [ebp-0xc],0x1
  406bc0:	c7 45 f0 cd 00 00 00 	mov    DWORD PTR [ebp-0x10],0xcd
  406bc7:	8b 55 f4             	mov    edx,DWORD PTR [ebp-0xc]
  406bca:	8b 45 08             	mov    eax,DWORD PTR [ebp+0x8]
  406bcd:	01 d0                	add    eax,edx
  406bcf:	0f b6 00             	movzx  eax,BYTE PTR [eax]
  406bd2:	0f be c0             	movsx  eax,al
  406bd5:	34 b9                	xor    al,0xb9
  406bd7:	3b 45 f0             	cmp    eax,DWORD PTR [ebp-0x10]
  406bda:	74 0b                	je     406be7 <_check+0x56d3>
  406bdc:	8b 45 f4             	mov    eax,DWORD PTR [ebp-0xc]
  406bdf:	89 04 24             	mov    DWORD PTR [esp],eax
  406be2:	e8 59 a7 ff ff       	call   401340 <_badboy>
  406be7:	83 45 f4 01          	add    DWORD PTR [ebp-0xc],0x1
  406beb:	c7 45 f0 d7 00 00 00 	mov    DWORD PTR [ebp-0x10],0xd7
  406bf2:	8b 55 f4             	mov    edx,DWORD PTR [ebp-0xc]
  406bf5:	8b 45 08             	mov    eax,DWORD PTR [ebp+0x8]
  406bf8:	01 d0                	add    eax,edx
  406bfa:	0f b6 00             	movzx  eax,BYTE PTR [eax]
  406bfd:	0f be c0             	movsx  eax,al
  406c00:	34 f7                	xor    al,0xf7
  406c02:	3b 45 f0             	cmp    eax,DWORD PTR [ebp-0x10]
  406c05:	74 0b                	je     406c12 <_check+0x56fe>
  406c07:	8b 45 f4             	mov    eax,DWORD PTR [ebp-0xc]
  406c0a:	89 04 24             	mov    DWORD PTR [esp],eax
  406c0d:	e8 2e a7 ff ff       	call   401340 <_badboy>
  406c12:	83 45 f4 01          	add    DWORD PTR [ebp-0xc],0x1
  406c16:	c7 45 f0 3b 00 00 00 	mov    DWORD PTR [ebp-0x10],0x3b
  406c1d:	8b 55 f4             	mov    edx,DWORD PTR [ebp-0xc]
  406c20:	8b 45 08             	mov    eax,DWORD PTR [ebp+0x8]
  406c23:	01 d0                	add    eax,edx
  406c25:	0f b6 00             	movzx  eax,BYTE PTR [eax]
  406c28:	83 f0 59             	xor    eax,0x59
  406c2b:	0f be c0             	movsx  eax,al
  406c2e:	3b 45 f0             	cmp    eax,DWORD PTR [ebp-0x10]
  406c31:	74 0b                	je     406c3e <_check+0x572a>
  406c33:	8b 45 f4             	mov    eax,DWORD PTR [ebp-0xc]
  406c36:	89 04 24             	mov    DWORD PTR [esp],eax
  406c39:	e8 02 a7 ff ff       	call   401340 <_badboy>
  406c3e:	83 45 f4 01          	add    DWORD PTR [ebp-0xc],0x1
  406c42:	c7 45 f0 16 00 00 00 	mov    DWORD PTR [ebp-0x10],0x16
  406c49:	8b 55 f4             	mov    edx,DWORD PTR [ebp-0xc]
  406c4c:	8b 45 08             	mov    eax,DWORD PTR [ebp+0x8]
  406c4f:	01 d0                	add    eax,edx
  406c51:	0f b6 00             	movzx  eax,BYTE PTR [eax]
  406c54:	83 f0 73             	xor    eax,0x73
  406c57:	0f be c0             	movsx  eax,al
  406c5a:	3b 45 f0             	cmp    eax,DWORD PTR [ebp-0x10]
  406c5d:	74 0b                	je     406c6a <_check+0x5756>
  406c5f:	8b 45 f4             	mov    eax,DWORD PTR [ebp-0xc]
  406c62:	89 04 24             	mov    DWORD PTR [esp],eax
  406c65:	e8 d6 a6 ff ff       	call   401340 <_badboy>
  406c6a:	83 45 f4 01          	add    DWORD PTR [ebp-0xc],0x1
  406c6e:	c7 45 f0 2b 00 00 00 	mov    DWORD PTR [ebp-0x10],0x2b
  406c75:	8b 55 f4             	mov    edx,DWORD PTR [ebp-0xc]
  406c78:	8b 45 08             	mov    eax,DWORD PTR [ebp+0x8]
  406c7b:	01 d0                	add    eax,edx
  406c7d:	0f b6 00             	movzx  eax,BYTE PTR [eax]
  406c80:	83 f0 48             	xor    eax,0x48
  406c83:	0f be c0             	movsx  eax,al
  406c86:	3b 45 f0             	cmp    eax,DWORD PTR [ebp-0x10]
  406c89:	74 0b                	je     406c96 <_check+0x5782>
  406c8b:	8b 45 f4             	mov    eax,DWORD PTR [ebp-0xc]
  406c8e:	89 04 24             	mov    DWORD PTR [esp],eax
  406c91:	e8 aa a6 ff ff       	call   401340 <_badboy>
  406c96:	83 45 f4 01          	add    DWORD PTR [ebp-0xc],0x1
  406c9a:	c7 45 f0 1f 00 00 00 	mov    DWORD PTR [ebp-0x10],0x1f
  406ca1:	8b 55 f4             	mov    edx,DWORD PTR [ebp-0xc]
  406ca4:	8b 45 08             	mov    eax,DWORD PTR [ebp+0x8]
  406ca7:	01 d0                	add    eax,edx
  406ca9:	0f b6 00             	movzx  eax,BYTE PTR [eax]
  406cac:	83 f0 7e             	xor    eax,0x7e
  406caf:	0f be c0             	movsx  eax,al
  406cb2:	3b 45 f0             	cmp    eax,DWORD PTR [ebp-0x10]
  406cb5:	74 0b                	je     406cc2 <_check+0x57ae>
  406cb7:	8b 45 f4             	mov    eax,DWORD PTR [ebp-0xc]
  406cba:	89 04 24             	mov    DWORD PTR [esp],eax
  406cbd:	e8 7e a6 ff ff       	call   401340 <_badboy>
  406cc2:	83 45 f4 01          	add    DWORD PTR [ebp-0xc],0x1
  406cc6:	c7 45 f0 29 00 00 00 	mov    DWORD PTR [ebp-0x10],0x29
  406ccd:	8b 55 f4             	mov    edx,DWORD PTR [ebp-0xc]
  406cd0:	8b 45 08             	mov    eax,DWORD PTR [ebp+0x8]
  406cd3:	01 d0                	add    eax,edx
  406cd5:	0f b6 00             	movzx  eax,BYTE PTR [eax]
  406cd8:	83 f0 5c             	xor    eax,0x5c
  406cdb:	0f be c0             	movsx  eax,al
  406cde:	3b 45 f0             	cmp    eax,DWORD PTR [ebp-0x10]
  406ce1:	74 0b                	je     406cee <_check+0x57da>
  406ce3:	8b 45 f4             	mov    eax,DWORD PTR [ebp-0xc]
  406ce6:	89 04 24             	mov    DWORD PTR [esp],eax
  406ce9:	e8 52 a6 ff ff       	call   401340 <_badboy>
  406cee:	83 45 f4 01          	add    DWORD PTR [ebp-0xc],0x1
  406cf2:	c7 45 f0 56 00 00 00 	mov    DWORD PTR [ebp-0x10],0x56
  406cf9:	8b 55 f4             	mov    edx,DWORD PTR [ebp-0xc]
  406cfc:	8b 45 08             	mov    eax,DWORD PTR [ebp+0x8]
  406cff:	01 d0                	add    eax,edx
  406d01:	0f b6 00             	movzx  eax,BYTE PTR [eax]
  406d04:	83 f0 25             	xor    eax,0x25
  406d07:	0f be c0             	movsx  eax,al
  406d0a:	3b 45 f0             	cmp    eax,DWORD PTR [ebp-0x10]
  406d0d:	74 0b                	je     406d1a <_check+0x5806>
  406d0f:	8b 45 f4             	mov    eax,DWORD PTR [ebp-0xc]
  406d12:	89 04 24             	mov    DWORD PTR [esp],eax
  406d15:	e8 26 a6 ff ff       	call   401340 <_badboy>
  406d1a:	83 45 f4 01          	add    DWORD PTR [ebp-0xc],0x1
  406d1e:	c7 45 f0 0f 00 00 00 	mov    DWORD PTR [ebp-0x10],0xf
  406d25:	8b 55 f4             	mov    edx,DWORD PTR [ebp-0xc]
  406d28:	8b 45 08             	mov    eax,DWORD PTR [ebp+0x8]
  406d2b:	01 d0                	add    eax,edx
  406d2d:	0f b6 00             	movzx  eax,BYTE PTR [eax]
  406d30:	83 f0 6a             	xor    eax,0x6a
  406d33:	0f be c0             	movsx  eax,al
  406d36:	3b 45 f0             	cmp    eax,DWORD PTR [ebp-0x10]
  406d39:	74 0b                	je     406d46 <_check+0x5832>
  406d3b:	8b 45 f4             	mov    eax,DWORD PTR [ebp-0xc]
  406d3e:	89 04 24             	mov    DWORD PTR [esp],eax
  406d41:	e8 fa a5 ff ff       	call   401340 <_badboy>
  406d46:	83 45 f4 01          	add    DWORD PTR [ebp-0xc],0x1
  406d4a:	c7 45 f0 c3 00 00 00 	mov    DWORD PTR [ebp-0x10],0xc3
  406d51:	8b 55 f4             	mov    edx,DWORD PTR [ebp-0xc]
  406d54:	8b 45 08             	mov    eax,DWORD PTR [ebp+0x8]
  406d57:	01 d0                	add    eax,edx
  406d59:	0f b6 00             	movzx  eax,BYTE PTR [eax]
  406d5c:	0f be c0             	movsx  eax,al
  406d5f:	34 e3                	xor    al,0xe3
  406d61:	3b 45 f0             	cmp    eax,DWORD PTR [ebp-0x10]
  406d64:	74 0b                	je     406d71 <_check+0x585d>
  406d66:	8b 45 f4             	mov    eax,DWORD PTR [ebp-0xc]
  406d69:	89 04 24             	mov    DWORD PTR [esp],eax
  406d6c:	e8 cf a5 ff ff       	call   401340 <_badboy>
  406d71:	83 45 f4 01          	add    DWORD PTR [ebp-0xc],0x1
  406d75:	c7 45 f0 6a 00 00 00 	mov    DWORD PTR [ebp-0x10],0x6a
  406d7c:	8b 55 f4             	mov    edx,DWORD PTR [ebp-0xc]
  406d7f:	8b 45 08             	mov    eax,DWORD PTR [ebp+0x8]
  406d82:	01 d0                	add    eax,edx
  406d84:	0f b6 00             	movzx  eax,BYTE PTR [eax]
  406d87:	83 f0 23             	xor    eax,0x23
  406d8a:	0f be c0             	movsx  eax,al
  406d8d:	3b 45 f0             	cmp    eax,DWORD PTR [ebp-0x10]
  406d90:	74 0b                	je     406d9d <_check+0x5889>
  406d92:	8b 45 f4             	mov    eax,DWORD PTR [ebp-0xc]
  406d95:	89 04 24             	mov    DWORD PTR [esp],eax
  406d98:	e8 a3 a5 ff ff       	call   401340 <_badboy>
  406d9d:	83 45 f4 01          	add    DWORD PTR [ebp-0xc],0x1
  406da1:	c7 45 f0 7c 00 00 00 	mov    DWORD PTR [ebp-0x10],0x7c
  406da8:	8b 55 f4             	mov    edx,DWORD PTR [ebp-0xc]
  406dab:	8b 45 08             	mov    eax,DWORD PTR [ebp+0x8]
  406dae:	01 d0                	add    eax,edx
  406db0:	0f b6 00             	movzx  eax,BYTE PTR [eax]
  406db3:	83 f0 5c             	xor    eax,0x5c
  406db6:	0f be c0             	movsx  eax,al
  406db9:	3b 45 f0             	cmp    eax,DWORD PTR [ebp-0x10]
  406dbc:	74 0b                	je     406dc9 <_check+0x58b5>
  406dbe:	8b 45 f4             	mov    eax,DWORD PTR [ebp-0xc]
  406dc1:	89 04 24             	mov    DWORD PTR [esp],eax
  406dc4:	e8 77 a5 ff ff       	call   401340 <_badboy>
  406dc9:	83 45 f4 01          	add    DWORD PTR [ebp-0xc],0x1
  406dcd:	c7 45 f0 83 00 00 00 	mov    DWORD PTR [ebp-0x10],0x83
  406dd4:	8b 55 f4             	mov    edx,DWORD PTR [ebp-0xc]
  406dd7:	8b 45 08             	mov    eax,DWORD PTR [ebp+0x8]
  406dda:	01 d0                	add    eax,edx
  406ddc:	0f b6 00             	movzx  eax,BYTE PTR [eax]
  406ddf:	0f be c0             	movsx  eax,al
  406de2:	34 f4                	xor    al,0xf4
  406de4:	3b 45 f0             	cmp    eax,DWORD PTR [ebp-0x10]
  406de7:	74 0b                	je     406df4 <_check+0x58e0>
  406de9:	8b 45 f4             	mov    eax,DWORD PTR [ebp-0xc]
  406dec:	89 04 24             	mov    DWORD PTR [esp],eax
  406def:	e8 4c a5 ff ff       	call   401340 <_badboy>
  406df4:	83 45 f4 01          	add    DWORD PTR [ebp-0xc],0x1
  406df8:	c7 45 f0 c7 00 00 00 	mov    DWORD PTR [ebp-0x10],0xc7
  406dff:	8b 55 f4             	mov    edx,DWORD PTR [ebp-0xc]
  406e02:	8b 45 08             	mov    eax,DWORD PTR [ebp+0x8]
  406e05:	01 d0                	add    eax,edx
  406e07:	0f b6 00             	movzx  eax,BYTE PTR [eax]
  406e0a:	0f be c0             	movsx  eax,al
  406e0d:	34 a6                	xor    al,0xa6
  406e0f:	3b 45 f0             	cmp    eax,DWORD PTR [ebp-0x10]
  406e12:	74 0b                	je     406e1f <_check+0x590b>
  406e14:	8b 45 f4             	mov    eax,DWORD PTR [ebp-0xc]
  406e17:	89 04 24             	mov    DWORD PTR [esp],eax
  406e1a:	e8 21 a5 ff ff       	call   401340 <_badboy>
  406e1f:	83 45 f4 01          	add    DWORD PTR [ebp-0xc],0x1
  406e23:	c7 45 f0 ed 00 00 00 	mov    DWORD PTR [ebp-0x10],0xed
  406e2a:	8b 55 f4             	mov    edx,DWORD PTR [ebp-0xc]
  406e2d:	8b 45 08             	mov    eax,DWORD PTR [ebp+0x8]
  406e30:	01 d0                	add    eax,edx
  406e32:	0f b6 00             	movzx  eax,BYTE PTR [eax]
  406e35:	0f be c0             	movsx  eax,al
  406e38:	34 83                	xor    al,0x83
  406e3a:	3b 45 f0             	cmp    eax,DWORD PTR [ebp-0x10]
  406e3d:	74 0b                	je     406e4a <_check+0x5936>
  406e3f:	8b 45 f4             	mov    eax,DWORD PTR [ebp-0xc]
  406e42:	89 04 24             	mov    DWORD PTR [esp],eax
  406e45:	e8 f6 a4 ff ff       	call   401340 <_badboy>
  406e4a:	83 45 f4 01          	add    DWORD PTR [ebp-0xc],0x1
  406e4e:	c7 45 f0 15 00 00 00 	mov    DWORD PTR [ebp-0x10],0x15
  406e55:	8b 55 f4             	mov    edx,DWORD PTR [ebp-0xc]
  406e58:	8b 45 08             	mov    eax,DWORD PTR [ebp+0x8]
  406e5b:	01 d0                	add    eax,edx
  406e5d:	0f b6 00             	movzx  eax,BYTE PTR [eax]
  406e60:	83 f0 61             	xor    eax,0x61
  406e63:	0f be c0             	movsx  eax,al
  406e66:	3b 45 f0             	cmp    eax,DWORD PTR [ebp-0x10]
  406e69:	74 0b                	je     406e76 <_check+0x5962>
  406e6b:	8b 45 f4             	mov    eax,DWORD PTR [ebp-0xc]
  406e6e:	89 04 24             	mov    DWORD PTR [esp],eax
  406e71:	e8 ca a4 ff ff       	call   401340 <_badboy>
  406e76:	83 45 f4 01          	add    DWORD PTR [ebp-0xc],0x1
  406e7a:	c7 45 f0 7d 00 00 00 	mov    DWORD PTR [ebp-0x10],0x7d
  406e81:	8b 55 f4             	mov    edx,DWORD PTR [ebp-0xc]
  406e84:	8b 45 08             	mov    eax,DWORD PTR [ebp+0x8]
  406e87:	01 d0                	add    eax,edx
  406e89:	0f b6 00             	movzx  eax,BYTE PTR [eax]
  406e8c:	83 f0 5d             	xor    eax,0x5d
  406e8f:	0f be c0             	movsx  eax,al
  406e92:	3b 45 f0             	cmp    eax,DWORD PTR [ebp-0x10]
  406e95:	74 0b                	je     406ea2 <_check+0x598e>
  406e97:	8b 45 f4             	mov    eax,DWORD PTR [ebp-0xc]
  406e9a:	89 04 24             	mov    DWORD PTR [esp],eax
  406e9d:	e8 9e a4 ff ff       	call   401340 <_badboy>
  406ea2:	83 45 f4 01          	add    DWORD PTR [ebp-0xc],0x1
  406ea6:	c7 45 f0 53 00 00 00 	mov    DWORD PTR [ebp-0x10],0x53
  406ead:	8b 55 f4             	mov    edx,DWORD PTR [ebp-0xc]
  406eb0:	8b 45 08             	mov    eax,DWORD PTR [ebp+0x8]
  406eb3:	01 d0                	add    eax,edx
  406eb5:	0f b6 00             	movzx  eax,BYTE PTR [eax]
  406eb8:	83 f0 2a             	xor    eax,0x2a
  406ebb:	0f be c0             	movsx  eax,al
  406ebe:	3b 45 f0             	cmp    eax,DWORD PTR [ebp-0x10]
  406ec1:	74 0b                	je     406ece <_check+0x59ba>
  406ec3:	8b 45 f4             	mov    eax,DWORD PTR [ebp-0xc]
  406ec6:	89 04 24             	mov    DWORD PTR [esp],eax
  406ec9:	e8 72 a4 ff ff       	call   401340 <_badboy>
  406ece:	83 45 f4 01          	add    DWORD PTR [ebp-0xc],0x1
  406ed2:	c7 45 f0 65 00 00 00 	mov    DWORD PTR [ebp-0x10],0x65
  406ed9:	8b 55 f4             	mov    edx,DWORD PTR [ebp-0xc]
  406edc:	8b 45 08             	mov    eax,DWORD PTR [ebp+0x8]
  406edf:	01 d0                	add    eax,edx
  406ee1:	0f b6 00             	movzx  eax,BYTE PTR [eax]
  406ee4:	83 f0 0a             	xor    eax,0xa
  406ee7:	0f be c0             	movsx  eax,al
  406eea:	3b 45 f0             	cmp    eax,DWORD PTR [ebp-0x10]
  406eed:	74 0b                	je     406efa <_check+0x59e6>
  406eef:	8b 45 f4             	mov    eax,DWORD PTR [ebp-0xc]
  406ef2:	89 04 24             	mov    DWORD PTR [esp],eax
  406ef5:	e8 46 a4 ff ff       	call   401340 <_badboy>
  406efa:	83 45 f4 01          	add    DWORD PTR [ebp-0xc],0x1
  406efe:	c7 45 f0 31 00 00 00 	mov    DWORD PTR [ebp-0x10],0x31
  406f05:	8b 55 f4             	mov    edx,DWORD PTR [ebp-0xc]
  406f08:	8b 45 08             	mov    eax,DWORD PTR [ebp+0x8]
  406f0b:	01 d0                	add    eax,edx
  406f0d:	0f b6 00             	movzx  eax,BYTE PTR [eax]
  406f10:	83 f0 44             	xor    eax,0x44
  406f13:	0f be c0             	movsx  eax,al
  406f16:	3b 45 f0             	cmp    eax,DWORD PTR [ebp-0x10]
  406f19:	74 0b                	je     406f26 <_check+0x5a12>
  406f1b:	8b 45 f4             	mov    eax,DWORD PTR [ebp-0xc]
  406f1e:	89 04 24             	mov    DWORD PTR [esp],eax
  406f21:	e8 1a a4 ff ff       	call   401340 <_badboy>
  406f26:	83 45 f4 01          	add    DWORD PTR [ebp-0xc],0x1
  406f2a:	c7 45 f0 26 00 00 00 	mov    DWORD PTR [ebp-0x10],0x26
  406f31:	8b 55 f4             	mov    edx,DWORD PTR [ebp-0xc]
  406f34:	8b 45 08             	mov    eax,DWORD PTR [ebp+0x8]
  406f37:	01 d0                	add    eax,edx
  406f39:	0f b6 00             	movzx  eax,BYTE PTR [eax]
  406f3c:	83 f0 06             	xor    eax,0x6
  406f3f:	0f be c0             	movsx  eax,al
  406f42:	3b 45 f0             	cmp    eax,DWORD PTR [ebp-0x10]
  406f45:	74 0b                	je     406f52 <_check+0x5a3e>
  406f47:	8b 45 f4             	mov    eax,DWORD PTR [ebp-0xc]
  406f4a:	89 04 24             	mov    DWORD PTR [esp],eax
  406f4d:	e8 ee a3 ff ff       	call   401340 <_badboy>
  406f52:	83 45 f4 01          	add    DWORD PTR [ebp-0xc],0x1
  406f56:	c7 45 f0 27 00 00 00 	mov    DWORD PTR [ebp-0x10],0x27
  406f5d:	8b 55 f4             	mov    edx,DWORD PTR [ebp-0xc]
  406f60:	8b 45 08             	mov    eax,DWORD PTR [ebp+0x8]
  406f63:	01 d0                	add    eax,edx
  406f65:	0f b6 00             	movzx  eax,BYTE PTR [eax]
  406f68:	83 f0 53             	xor    eax,0x53
  406f6b:	0f be c0             	movsx  eax,al
  406f6e:	3b 45 f0             	cmp    eax,DWORD PTR [ebp-0x10]
  406f71:	74 0b                	je     406f7e <_check+0x5a6a>
  406f73:	8b 45 f4             	mov    eax,DWORD PTR [ebp-0xc]
  406f76:	89 04 24             	mov    DWORD PTR [esp],eax
  406f79:	e8 c2 a3 ff ff       	call   401340 <_badboy>
  406f7e:	83 45 f4 01          	add    DWORD PTR [ebp-0xc],0x1
  406f82:	c7 45 f0 44 00 00 00 	mov    DWORD PTR [ebp-0x10],0x44
  406f89:	8b 55 f4             	mov    edx,DWORD PTR [ebp-0xc]
  406f8c:	8b 45 08             	mov    eax,DWORD PTR [ebp+0x8]
  406f8f:	01 d0                	add    eax,edx
  406f91:	0f b6 00             	movzx  eax,BYTE PTR [eax]
  406f94:	83 f0 2b             	xor    eax,0x2b
  406f97:	0f be c0             	movsx  eax,al
  406f9a:	3b 45 f0             	cmp    eax,DWORD PTR [ebp-0x10]
  406f9d:	74 0b                	je     406faa <_check+0x5a96>
  406f9f:	8b 45 f4             	mov    eax,DWORD PTR [ebp-0xc]
  406fa2:	89 04 24             	mov    DWORD PTR [esp],eax
  406fa5:	e8 96 a3 ff ff       	call   401340 <_badboy>
  406faa:	83 45 f4 01          	add    DWORD PTR [ebp-0xc],0x1
  406fae:	c7 45 f0 6e 00 00 00 	mov    DWORD PTR [ebp-0x10],0x6e
  406fb5:	8b 55 f4             	mov    edx,DWORD PTR [ebp-0xc]
  406fb8:	8b 45 08             	mov    eax,DWORD PTR [ebp+0x8]
  406fbb:	01 d0                	add    eax,edx
  406fbd:	0f b6 00             	movzx  eax,BYTE PTR [eax]
  406fc0:	83 f0 4e             	xor    eax,0x4e
  406fc3:	0f be c0             	movsx  eax,al
  406fc6:	3b 45 f0             	cmp    eax,DWORD PTR [ebp-0x10]
  406fc9:	74 0b                	je     406fd6 <_check+0x5ac2>
  406fcb:	8b 45 f4             	mov    eax,DWORD PTR [ebp-0xc]
  406fce:	89 04 24             	mov    DWORD PTR [esp],eax
  406fd1:	e8 6a a3 ff ff       	call   401340 <_badboy>
  406fd6:	83 45 f4 01          	add    DWORD PTR [ebp-0xc],0x1
  406fda:	c7 45 f0 c9 00 00 00 	mov    DWORD PTR [ebp-0x10],0xc9
  406fe1:	8b 55 f4             	mov    edx,DWORD PTR [ebp-0xc]
  406fe4:	8b 45 08             	mov    eax,DWORD PTR [ebp+0x8]
  406fe7:	01 d0                	add    eax,edx
  406fe9:	0f b6 00             	movzx  eax,BYTE PTR [eax]
  406fec:	0f be c0             	movsx  eax,al
  406fef:	34 ab                	xor    al,0xab
  406ff1:	3b 45 f0             	cmp    eax,DWORD PTR [ebp-0x10]
  406ff4:	74 0b                	je     407001 <_check+0x5aed>
  406ff6:	8b 45 f4             	mov    eax,DWORD PTR [ebp-0xc]
  406ff9:	89 04 24             	mov    DWORD PTR [esp],eax
  406ffc:	e8 3f a3 ff ff       	call   401340 <_badboy>
  407001:	83 45 f4 01          	add    DWORD PTR [ebp-0xc],0x1
  407005:	c7 45 f0 12 00 00 00 	mov    DWORD PTR [ebp-0x10],0x12
  40700c:	8b 55 f4             	mov    edx,DWORD PTR [ebp-0xc]
  40700f:	8b 45 08             	mov    eax,DWORD PTR [ebp+0x8]
  407012:	01 d0                	add    eax,edx
  407014:	0f b6 00             	movzx  eax,BYTE PTR [eax]
  407017:	83 f0 77             	xor    eax,0x77
  40701a:	0f be c0             	movsx  eax,al
  40701d:	3b 45 f0             	cmp    eax,DWORD PTR [ebp-0x10]
  407020:	74 0b                	je     40702d <_check+0x5b19>
  407022:	8b 45 f4             	mov    eax,DWORD PTR [ebp-0xc]
  407025:	89 04 24             	mov    DWORD PTR [esp],eax
  407028:	e8 13 a3 ff ff       	call   401340 <_badboy>
  40702d:	83 45 f4 01          	add    DWORD PTR [ebp-0xc],0x1
  407031:	c7 45 f0 07 00 00 00 	mov    DWORD PTR [ebp-0x10],0x7
  407038:	8b 55 f4             	mov    edx,DWORD PTR [ebp-0xc]
  40703b:	8b 45 08             	mov    eax,DWORD PTR [ebp+0x8]
  40703e:	01 d0                	add    eax,edx
  407040:	0f b6 00             	movzx  eax,BYTE PTR [eax]
  407043:	83 f0 27             	xor    eax,0x27
  407046:	0f be c0             	movsx  eax,al
  407049:	3b 45 f0             	cmp    eax,DWORD PTR [ebp-0x10]
  40704c:	74 0b                	je     407059 <_check+0x5b45>
  40704e:	8b 45 f4             	mov    eax,DWORD PTR [ebp-0xc]
  407051:	89 04 24             	mov    DWORD PTR [esp],eax
  407054:	e8 e7 a2 ff ff       	call   401340 <_badboy>
  407059:	83 45 f4 01          	add    DWORD PTR [ebp-0xc],0x1
  40705d:	c7 45 f0 37 00 00 00 	mov    DWORD PTR [ebp-0x10],0x37
  407064:	8b 55 f4             	mov    edx,DWORD PTR [ebp-0xc]
  407067:	8b 45 08             	mov    eax,DWORD PTR [ebp+0x8]
  40706a:	01 d0                	add    eax,edx
  40706c:	0f b6 00             	movzx  eax,BYTE PTR [eax]
  40706f:	83 f0 56             	xor    eax,0x56
  407072:	0f be c0             	movsx  eax,al
  407075:	3b 45 f0             	cmp    eax,DWORD PTR [ebp-0x10]
  407078:	74 0b                	je     407085 <_check+0x5b71>
  40707a:	8b 45 f4             	mov    eax,DWORD PTR [ebp-0xc]
  40707d:	89 04 24             	mov    DWORD PTR [esp],eax
  407080:	e8 bb a2 ff ff       	call   401340 <_badboy>
  407085:	83 45 f4 01          	add    DWORD PTR [ebp-0xc],0x1
  407089:	c7 45 f0 96 00 00 00 	mov    DWORD PTR [ebp-0x10],0x96
  407090:	8b 55 f4             	mov    edx,DWORD PTR [ebp-0xc]
  407093:	8b 45 08             	mov    eax,DWORD PTR [ebp+0x8]
  407096:	01 d0                	add    eax,edx
  407098:	0f b6 00             	movzx  eax,BYTE PTR [eax]
  40709b:	0f be c0             	movsx  eax,al
  40709e:	34 f4                	xor    al,0xf4
  4070a0:	3b 45 f0             	cmp    eax,DWORD PTR [ebp-0x10]
  4070a3:	74 0b                	je     4070b0 <_check+0x5b9c>
  4070a5:	8b 45 f4             	mov    eax,DWORD PTR [ebp-0xc]
  4070a8:	89 04 24             	mov    DWORD PTR [esp],eax
  4070ab:	e8 90 a2 ff ff       	call   401340 <_badboy>
  4070b0:	83 45 f4 01          	add    DWORD PTR [ebp-0xc],0x1
  4070b4:	c7 45 f0 3e 00 00 00 	mov    DWORD PTR [ebp-0x10],0x3e
  4070bb:	8b 55 f4             	mov    edx,DWORD PTR [ebp-0xc]
  4070be:	8b 45 08             	mov    eax,DWORD PTR [ebp+0x8]
  4070c1:	01 d0                	add    eax,edx
  4070c3:	0f b6 00             	movzx  eax,BYTE PTR [eax]
  4070c6:	83 f0 52             	xor    eax,0x52
  4070c9:	0f be c0             	movsx  eax,al
  4070cc:	3b 45 f0             	cmp    eax,DWORD PTR [ebp-0x10]
  4070cf:	74 0b                	je     4070dc <_check+0x5bc8>
  4070d1:	8b 45 f4             	mov    eax,DWORD PTR [ebp-0xc]
  4070d4:	89 04 24             	mov    DWORD PTR [esp],eax
  4070d7:	e8 64 a2 ff ff       	call   401340 <_badboy>
  4070dc:	83 45 f4 01          	add    DWORD PTR [ebp-0xc],0x1
  4070e0:	c7 45 f0 8f 00 00 00 	mov    DWORD PTR [ebp-0x10],0x8f
  4070e7:	8b 55 f4             	mov    edx,DWORD PTR [ebp-0xc]
  4070ea:	8b 45 08             	mov    eax,DWORD PTR [ebp+0x8]
  4070ed:	01 d0                	add    eax,edx
  4070ef:	0f b6 00             	movzx  eax,BYTE PTR [eax]
  4070f2:	0f be c0             	movsx  eax,al
  4070f5:	34 ea                	xor    al,0xea
  4070f7:	3b 45 f0             	cmp    eax,DWORD PTR [ebp-0x10]
  4070fa:	74 0b                	je     407107 <_check+0x5bf3>
  4070fc:	8b 45 f4             	mov    eax,DWORD PTR [ebp-0xc]
  4070ff:	89 04 24             	mov    DWORD PTR [esp],eax
  407102:	e8 39 a2 ff ff       	call   401340 <_badboy>
  407107:	83 45 f4 01          	add    DWORD PTR [ebp-0xc],0x1
  40710b:	c7 45 f0 80 00 00 00 	mov    DWORD PTR [ebp-0x10],0x80
  407112:	8b 55 f4             	mov    edx,DWORD PTR [ebp-0xc]
  407115:	8b 45 08             	mov    eax,DWORD PTR [ebp+0x8]
  407118:	01 d0                	add    eax,edx
  40711a:	0f b6 00             	movzx  eax,BYTE PTR [eax]
  40711d:	0f be c0             	movsx  eax,al
  407120:	34 a0                	xor    al,0xa0
  407122:	3b 45 f0             	cmp    eax,DWORD PTR [ebp-0x10]
  407125:	74 0b                	je     407132 <_check+0x5c1e>
  407127:	8b 45 f4             	mov    eax,DWORD PTR [ebp-0xc]
  40712a:	89 04 24             	mov    DWORD PTR [esp],eax
  40712d:	e8 0e a2 ff ff       	call   401340 <_badboy>
  407132:	83 45 f4 01          	add    DWORD PTR [ebp-0xc],0x1
  407136:	c7 45 f0 d4 00 00 00 	mov    DWORD PTR [ebp-0x10],0xd4
  40713d:	8b 55 f4             	mov    edx,DWORD PTR [ebp-0xc]
  407140:	8b 45 08             	mov    eax,DWORD PTR [ebp+0x8]
  407143:	01 d0                	add    eax,edx
  407145:	0f b6 00             	movzx  eax,BYTE PTR [eax]
  407148:	0f be c0             	movsx  eax,al
  40714b:	34 a0                	xor    al,0xa0
  40714d:	3b 45 f0             	cmp    eax,DWORD PTR [ebp-0x10]
  407150:	74 0b                	je     40715d <_check+0x5c49>
  407152:	8b 45 f4             	mov    eax,DWORD PTR [ebp-0xc]
  407155:	89 04 24             	mov    DWORD PTR [esp],eax
  407158:	e8 e3 a1 ff ff       	call   401340 <_badboy>
  40715d:	83 45 f4 01          	add    DWORD PTR [ebp-0xc],0x1
  407161:	c7 45 f0 1a 00 00 00 	mov    DWORD PTR [ebp-0x10],0x1a
  407168:	8b 55 f4             	mov    edx,DWORD PTR [ebp-0xc]
  40716b:	8b 45 08             	mov    eax,DWORD PTR [ebp+0x8]
  40716e:	01 d0                	add    eax,edx
  407170:	0f b6 00             	movzx  eax,BYTE PTR [eax]
  407173:	83 f0 75             	xor    eax,0x75
  407176:	0f be c0             	movsx  eax,al
  407179:	3b 45 f0             	cmp    eax,DWORD PTR [ebp-0x10]
  40717c:	74 0b                	je     407189 <_check+0x5c75>
  40717e:	8b 45 f4             	mov    eax,DWORD PTR [ebp-0xc]
  407181:	89 04 24             	mov    DWORD PTR [esp],eax
  407184:	e8 b7 a1 ff ff       	call   401340 <_badboy>
  407189:	83 45 f4 01          	add    DWORD PTR [ebp-0xc],0x1
  40718d:	c7 45 f0 64 00 00 00 	mov    DWORD PTR [ebp-0x10],0x64
  407194:	8b 55 f4             	mov    edx,DWORD PTR [ebp-0xc]
  407197:	8b 45 08             	mov    eax,DWORD PTR [ebp+0x8]
  40719a:	01 d0                	add    eax,edx
  40719c:	0f b6 00             	movzx  eax,BYTE PTR [eax]
  40719f:	83 f0 44             	xor    eax,0x44
  4071a2:	0f be c0             	movsx  eax,al
  4071a5:	3b 45 f0             	cmp    eax,DWORD PTR [ebp-0x10]
  4071a8:	74 0b                	je     4071b5 <_check+0x5ca1>
  4071aa:	8b 45 f4             	mov    eax,DWORD PTR [ebp-0xc]
  4071ad:	89 04 24             	mov    DWORD PTR [esp],eax
  4071b0:	e8 8b a1 ff ff       	call   401340 <_badboy>
  4071b5:	83 45 f4 01          	add    DWORD PTR [ebp-0xc],0x1
  4071b9:	c7 45 f0 09 00 00 00 	mov    DWORD PTR [ebp-0x10],0x9
  4071c0:	8b 55 f4             	mov    edx,DWORD PTR [ebp-0xc]
  4071c3:	8b 45 08             	mov    eax,DWORD PTR [ebp+0x8]
  4071c6:	01 d0                	add    eax,edx
  4071c8:	0f b6 00             	movzx  eax,BYTE PTR [eax]
  4071cb:	83 f0 7b             	xor    eax,0x7b
  4071ce:	0f be c0             	movsx  eax,al
  4071d1:	3b 45 f0             	cmp    eax,DWORD PTR [ebp-0x10]
  4071d4:	74 0b                	je     4071e1 <_check+0x5ccd>
  4071d6:	8b 45 f4             	mov    eax,DWORD PTR [ebp-0xc]
  4071d9:	89 04 24             	mov    DWORD PTR [esp],eax
  4071dc:	e8 5f a1 ff ff       	call   401340 <_badboy>
  4071e1:	83 45 f4 01          	add    DWORD PTR [ebp-0xc],0x1
  4071e5:	c7 45 f0 84 00 00 00 	mov    DWORD PTR [ebp-0x10],0x84
  4071ec:	8b 55 f4             	mov    edx,DWORD PTR [ebp-0xc]
  4071ef:	8b 45 08             	mov    eax,DWORD PTR [ebp+0x8]
  4071f2:	01 d0                	add    eax,edx
  4071f4:	0f b6 00             	movzx  eax,BYTE PTR [eax]
  4071f7:	0f be c0             	movsx  eax,al
  4071fa:	34 e1                	xor    al,0xe1
  4071fc:	3b 45 f0             	cmp    eax,DWORD PTR [ebp-0x10]
  4071ff:	74 0b                	je     40720c <_check+0x5cf8>
  407201:	8b 45 f4             	mov    eax,DWORD PTR [ebp-0xc]
  407204:	89 04 24             	mov    DWORD PTR [esp],eax
  407207:	e8 34 a1 ff ff       	call   401340 <_badboy>
  40720c:	83 45 f4 01          	add    DWORD PTR [ebp-0xc],0x1
  407210:	c7 45 f0 10 00 00 00 	mov    DWORD PTR [ebp-0x10],0x10
  407217:	8b 55 f4             	mov    edx,DWORD PTR [ebp-0xc]
  40721a:	8b 45 08             	mov    eax,DWORD PTR [ebp+0x8]
  40721d:	01 d0                	add    eax,edx
  40721f:	0f b6 00             	movzx  eax,BYTE PTR [eax]
  407222:	83 f0 66             	xor    eax,0x66
  407225:	0f be c0             	movsx  eax,al
  407228:	3b 45 f0             	cmp    eax,DWORD PTR [ebp-0x10]
  40722b:	74 0b                	je     407238 <_check+0x5d24>
  40722d:	8b 45 f4             	mov    eax,DWORD PTR [ebp-0xc]
  407230:	89 04 24             	mov    DWORD PTR [esp],eax
  407233:	e8 08 a1 ff ff       	call   401340 <_badboy>
  407238:	83 45 f4 01          	add    DWORD PTR [ebp-0xc],0x1
  40723c:	c7 45 f0 5f 00 00 00 	mov    DWORD PTR [ebp-0x10],0x5f
  407243:	8b 55 f4             	mov    edx,DWORD PTR [ebp-0xc]
  407246:	8b 45 08             	mov    eax,DWORD PTR [ebp+0x8]
  407249:	01 d0                	add    eax,edx
  40724b:	0f b6 00             	movzx  eax,BYTE PTR [eax]
  40724e:	83 f0 3a             	xor    eax,0x3a
  407251:	0f be c0             	movsx  eax,al
  407254:	3b 45 f0             	cmp    eax,DWORD PTR [ebp-0x10]
  407257:	74 0b                	je     407264 <_check+0x5d50>
  407259:	8b 45 f4             	mov    eax,DWORD PTR [ebp-0xc]
  40725c:	89 04 24             	mov    DWORD PTR [esp],eax
  40725f:	e8 dc a0 ff ff       	call   401340 <_badboy>
  407264:	83 45 f4 01          	add    DWORD PTR [ebp-0xc],0x1
  407268:	c7 45 f0 f6 00 00 00 	mov    DWORD PTR [ebp-0x10],0xf6
  40726f:	8b 55 f4             	mov    edx,DWORD PTR [ebp-0xc]
  407272:	8b 45 08             	mov    eax,DWORD PTR [ebp+0x8]
  407275:	01 d0                	add    eax,edx
  407277:	0f b6 00             	movzx  eax,BYTE PTR [eax]
  40727a:	0f be c0             	movsx  eax,al
  40727d:	34 84                	xor    al,0x84
  40727f:	3b 45 f0             	cmp    eax,DWORD PTR [ebp-0x10]
  407282:	74 0b                	je     40728f <_check+0x5d7b>
  407284:	8b 45 f4             	mov    eax,DWORD PTR [ebp-0xc]
  407287:	89 04 24             	mov    DWORD PTR [esp],eax
  40728a:	e8 b1 a0 ff ff       	call   401340 <_badboy>
  40728f:	83 45 f4 01          	add    DWORD PTR [ebp-0xc],0x1
  407293:	c7 45 f0 04 00 00 00 	mov    DWORD PTR [ebp-0x10],0x4
  40729a:	8b 55 f4             	mov    edx,DWORD PTR [ebp-0xc]
  40729d:	8b 45 08             	mov    eax,DWORD PTR [ebp+0x8]
  4072a0:	01 d0                	add    eax,edx
  4072a2:	0f b6 00             	movzx  eax,BYTE PTR [eax]
  4072a5:	83 f0 77             	xor    eax,0x77
  4072a8:	0f be c0             	movsx  eax,al
  4072ab:	3b 45 f0             	cmp    eax,DWORD PTR [ebp-0x10]
  4072ae:	74 0b                	je     4072bb <_check+0x5da7>
  4072b0:	8b 45 f4             	mov    eax,DWORD PTR [ebp-0xc]
  4072b3:	89 04 24             	mov    DWORD PTR [esp],eax
  4072b6:	e8 85 a0 ff ff       	call   401340 <_badboy>
  4072bb:	83 45 f4 01          	add    DWORD PTR [ebp-0xc],0x1
  4072bf:	c7 45 f0 28 00 00 00 	mov    DWORD PTR [ebp-0x10],0x28
  4072c6:	8b 55 f4             	mov    edx,DWORD PTR [ebp-0xc]
  4072c9:	8b 45 08             	mov    eax,DWORD PTR [ebp+0x8]
  4072cc:	01 d0                	add    eax,edx
  4072ce:	0f b6 00             	movzx  eax,BYTE PTR [eax]
  4072d1:	83 f0 4d             	xor    eax,0x4d
  4072d4:	0f be c0             	movsx  eax,al
  4072d7:	3b 45 f0             	cmp    eax,DWORD PTR [ebp-0x10]
  4072da:	74 0b                	je     4072e7 <_check+0x5dd3>
  4072dc:	8b 45 f4             	mov    eax,DWORD PTR [ebp-0xc]
  4072df:	89 04 24             	mov    DWORD PTR [esp],eax
  4072e2:	e8 59 a0 ff ff       	call   401340 <_badboy>
  4072e7:	83 45 f4 01          	add    DWORD PTR [ebp-0xc],0x1
  4072eb:	c7 45 f0 35 00 00 00 	mov    DWORD PTR [ebp-0x10],0x35
  4072f2:	8b 55 f4             	mov    edx,DWORD PTR [ebp-0xc]
  4072f5:	8b 45 08             	mov    eax,DWORD PTR [ebp+0x8]
  4072f8:	01 d0                	add    eax,edx
  4072fa:	0f b6 00             	movzx  eax,BYTE PTR [eax]
  4072fd:	83 f0 15             	xor    eax,0x15
  407300:	0f be c0             	movsx  eax,al
  407303:	3b 45 f0             	cmp    eax,DWORD PTR [ebp-0x10]
  407306:	74 0b                	je     407313 <_check+0x5dff>
  407308:	8b 45 f4             	mov    eax,DWORD PTR [ebp-0xc]
  40730b:	89 04 24             	mov    DWORD PTR [esp],eax
  40730e:	e8 2d a0 ff ff       	call   401340 <_badboy>
  407313:	83 45 f4 01          	add    DWORD PTR [ebp-0xc],0x1
  407317:	c7 45 f0 dc 00 00 00 	mov    DWORD PTR [ebp-0x10],0xdc
  40731e:	8b 55 f4             	mov    edx,DWORD PTR [ebp-0xc]
  407321:	8b 45 08             	mov    eax,DWORD PTR [ebp+0x8]
  407324:	01 d0                	add    eax,edx
  407326:	0f b6 00             	movzx  eax,BYTE PTR [eax]
  407329:	0f be c0             	movsx  eax,al
  40732c:	34 b5                	xor    al,0xb5
  40732e:	3b 45 f0             	cmp    eax,DWORD PTR [ebp-0x10]
  407331:	74 0b                	je     40733e <_check+0x5e2a>
  407333:	8b 45 f4             	mov    eax,DWORD PTR [ebp-0xc]
  407336:	89 04 24             	mov    DWORD PTR [esp],eax
  407339:	e8 02 a0 ff ff       	call   401340 <_badboy>
  40733e:	83 45 f4 01          	add    DWORD PTR [ebp-0xc],0x1
  407342:	c7 45 f0 1b 00 00 00 	mov    DWORD PTR [ebp-0x10],0x1b
  407349:	8b 55 f4             	mov    edx,DWORD PTR [ebp-0xc]
  40734c:	8b 45 08             	mov    eax,DWORD PTR [ebp+0x8]
  40734f:	01 d0                	add    eax,edx
  407351:	0f b6 00             	movzx  eax,BYTE PTR [eax]
  407354:	83 f0 6f             	xor    eax,0x6f
  407357:	0f be c0             	movsx  eax,al
  40735a:	3b 45 f0             	cmp    eax,DWORD PTR [ebp-0x10]
  40735d:	74 0b                	je     40736a <_check+0x5e56>
  40735f:	8b 45 f4             	mov    eax,DWORD PTR [ebp-0xc]
  407362:	89 04 24             	mov    DWORD PTR [esp],eax
  407365:	e8 d6 9f ff ff       	call   401340 <_badboy>
  40736a:	83 45 f4 01          	add    DWORD PTR [ebp-0xc],0x1
  40736e:	c7 45 f0 55 00 00 00 	mov    DWORD PTR [ebp-0x10],0x55
  407375:	8b 55 f4             	mov    edx,DWORD PTR [ebp-0xc]
  407378:	8b 45 08             	mov    eax,DWORD PTR [ebp+0x8]
  40737b:	01 d0                	add    eax,edx
  40737d:	0f b6 00             	movzx  eax,BYTE PTR [eax]
  407380:	83 f0 7b             	xor    eax,0x7b
  407383:	0f be c0             	movsx  eax,al
  407386:	3b 45 f0             	cmp    eax,DWORD PTR [ebp-0x10]
  407389:	74 0b                	je     407396 <_check+0x5e82>
  40738b:	8b 45 f4             	mov    eax,DWORD PTR [ebp-0xc]
  40738e:	89 04 24             	mov    DWORD PTR [esp],eax
  407391:	e8 aa 9f ff ff       	call   401340 <_badboy>
  407396:	83 45 f4 01          	add    DWORD PTR [ebp-0xc],0x1
  40739a:	c7 45 f0 d4 00 00 00 	mov    DWORD PTR [ebp-0x10],0xd4
  4073a1:	8b 55 f4             	mov    edx,DWORD PTR [ebp-0xc]
  4073a4:	8b 45 08             	mov    eax,DWORD PTR [ebp+0x8]
  4073a7:	01 d0                	add    eax,edx
  4073a9:	0f b6 00             	movzx  eax,BYTE PTR [eax]
  4073ac:	0f be c0             	movsx  eax,al
  4073af:	34 f4                	xor    al,0xf4
  4073b1:	3b 45 f0             	cmp    eax,DWORD PTR [ebp-0x10]
  4073b4:	74 0b                	je     4073c1 <_check+0x5ead>
  4073b6:	8b 45 f4             	mov    eax,DWORD PTR [ebp-0xc]
  4073b9:	89 04 24             	mov    DWORD PTR [esp],eax
  4073bc:	e8 7f 9f ff ff       	call   401340 <_badboy>
  4073c1:	83 45 f4 01          	add    DWORD PTR [ebp-0xc],0x1
  4073c5:	c7 45 f0 df 00 00 00 	mov    DWORD PTR [ebp-0x10],0xdf
  4073cc:	8b 55 f4             	mov    edx,DWORD PTR [ebp-0xc]
  4073cf:	8b 45 08             	mov    eax,DWORD PTR [ebp+0x8]
  4073d2:	01 d0                	add    eax,edx
  4073d4:	0f b6 00             	movzx  eax,BYTE PTR [eax]
  4073d7:	0f be c0             	movsx  eax,al
  4073da:	34 96                	xor    al,0x96
  4073dc:	3b 45 f0             	cmp    eax,DWORD PTR [ebp-0x10]
  4073df:	74 0b                	je     4073ec <_check+0x5ed8>
  4073e1:	8b 45 f4             	mov    eax,DWORD PTR [ebp-0xc]
  4073e4:	89 04 24             	mov    DWORD PTR [esp],eax
  4073e7:	e8 54 9f ff ff       	call   401340 <_badboy>
  4073ec:	83 45 f4 01          	add    DWORD PTR [ebp-0xc],0x1
  4073f0:	c7 45 f0 eb 00 00 00 	mov    DWORD PTR [ebp-0x10],0xeb
  4073f7:	8b 55 f4             	mov    edx,DWORD PTR [ebp-0xc]
  4073fa:	8b 45 08             	mov    eax,DWORD PTR [ebp+0x8]
  4073fd:	01 d0                	add    eax,edx
  4073ff:	0f b6 00             	movzx  eax,BYTE PTR [eax]
  407402:	0f be c0             	movsx  eax,al
  407405:	34 cb                	xor    al,0xcb
  407407:	3b 45 f0             	cmp    eax,DWORD PTR [ebp-0x10]
  40740a:	74 0b                	je     407417 <_check+0x5f03>
  40740c:	8b 45 f4             	mov    eax,DWORD PTR [ebp-0xc]
  40740f:	89 04 24             	mov    DWORD PTR [esp],eax
  407412:	e8 29 9f ff ff       	call   401340 <_badboy>
  407417:	83 45 f4 01          	add    DWORD PTR [ebp-0xc],0x1
  40741b:	c7 45 f0 cd 00 00 00 	mov    DWORD PTR [ebp-0x10],0xcd
  407422:	8b 55 f4             	mov    edx,DWORD PTR [ebp-0xc]
  407425:	8b 45 08             	mov    eax,DWORD PTR [ebp+0x8]
  407428:	01 d0                	add    eax,edx
  40742a:	0f b6 00             	movzx  eax,BYTE PTR [eax]
  40742d:	0f be c0             	movsx  eax,al
  407430:	34 a5                	xor    al,0xa5
  407432:	3b 45 f0             	cmp    eax,DWORD PTR [ebp-0x10]
  407435:	74 0b                	je     407442 <_check+0x5f2e>
  407437:	8b 45 f4             	mov    eax,DWORD PTR [ebp-0xc]
  40743a:	89 04 24             	mov    DWORD PTR [esp],eax
  40743d:	e8 fe 9e ff ff       	call   401340 <_badboy>
  407442:	83 45 f4 01          	add    DWORD PTR [ebp-0xc],0x1
  407446:	c7 45 f0 79 00 00 00 	mov    DWORD PTR [ebp-0x10],0x79
  40744d:	8b 55 f4             	mov    edx,DWORD PTR [ebp-0xc]
  407450:	8b 45 08             	mov    eax,DWORD PTR [ebp+0x8]
  407453:	01 d0                	add    eax,edx
  407455:	0f b6 00             	movzx  eax,BYTE PTR [eax]
  407458:	83 f0 16             	xor    eax,0x16
  40745b:	0f be c0             	movsx  eax,al
  40745e:	3b 45 f0             	cmp    eax,DWORD PTR [ebp-0x10]
  407461:	74 0b                	je     40746e <_check+0x5f5a>
  407463:	8b 45 f4             	mov    eax,DWORD PTR [ebp-0xc]
  407466:	89 04 24             	mov    DWORD PTR [esp],eax
  407469:	e8 d2 9e ff ff       	call   401340 <_badboy>
  40746e:	83 45 f4 01          	add    DWORD PTR [ebp-0xc],0x1
  407472:	c7 45 f0 49 00 00 00 	mov    DWORD PTR [ebp-0x10],0x49
  407479:	8b 55 f4             	mov    edx,DWORD PTR [ebp-0xc]
  40747c:	8b 45 08             	mov    eax,DWORD PTR [ebp+0x8]
  40747f:	01 d0                	add    eax,edx
  407481:	0f b6 00             	movzx  eax,BYTE PTR [eax]
  407484:	83 f0 39             	xor    eax,0x39
  407487:	0f be c0             	movsx  eax,al
  40748a:	3b 45 f0             	cmp    eax,DWORD PTR [ebp-0x10]
  40748d:	74 0b                	je     40749a <_check+0x5f86>
  40748f:	8b 45 f4             	mov    eax,DWORD PTR [ebp-0xc]
  407492:	89 04 24             	mov    DWORD PTR [esp],eax
  407495:	e8 a6 9e ff ff       	call   401340 <_badboy>
  40749a:	83 45 f4 01          	add    DWORD PTR [ebp-0xc],0x1
  40749e:	c7 45 f0 f3 00 00 00 	mov    DWORD PTR [ebp-0x10],0xf3
  4074a5:	8b 55 f4             	mov    edx,DWORD PTR [ebp-0xc]
  4074a8:	8b 45 08             	mov    eax,DWORD PTR [ebp+0x8]
  4074ab:	01 d0                	add    eax,edx
  4074ad:	0f b6 00             	movzx  eax,BYTE PTR [eax]
  4074b0:	0f be c0             	movsx  eax,al
  4074b3:	34 96                	xor    al,0x96
  4074b5:	3b 45 f0             	cmp    eax,DWORD PTR [ebp-0x10]
  4074b8:	74 0b                	je     4074c5 <_check+0x5fb1>
  4074ba:	8b 45 f4             	mov    eax,DWORD PTR [ebp-0xc]
  4074bd:	89 04 24             	mov    DWORD PTR [esp],eax
  4074c0:	e8 7b 9e ff ff       	call   401340 <_badboy>
  4074c5:	83 45 f4 01          	add    DWORD PTR [ebp-0xc],0x1
  4074c9:	c7 45 f0 0c 00 00 00 	mov    DWORD PTR [ebp-0x10],0xc
  4074d0:	8b 55 f4             	mov    edx,DWORD PTR [ebp-0xc]
  4074d3:	8b 45 08             	mov    eax,DWORD PTR [ebp+0x8]
  4074d6:	01 d0                	add    eax,edx
  4074d8:	0f b6 00             	movzx  eax,BYTE PTR [eax]
  4074db:	83 f0 2c             	xor    eax,0x2c
  4074de:	0f be c0             	movsx  eax,al
  4074e1:	3b 45 f0             	cmp    eax,DWORD PTR [ebp-0x10]
  4074e4:	74 0b                	je     4074f1 <_check+0x5fdd>
  4074e6:	8b 45 f4             	mov    eax,DWORD PTR [ebp-0xc]
  4074e9:	89 04 24             	mov    DWORD PTR [esp],eax
  4074ec:	e8 4f 9e ff ff       	call   401340 <_badboy>
  4074f1:	83 45 f4 01          	add    DWORD PTR [ebp-0xc],0x1
  4074f5:	c7 45 f0 d1 00 00 00 	mov    DWORD PTR [ebp-0x10],0xd1
  4074fc:	8b 55 f4             	mov    edx,DWORD PTR [ebp-0xc]
  4074ff:	8b 45 08             	mov    eax,DWORD PTR [ebp+0x8]
  407502:	01 d0                	add    eax,edx
  407504:	0f b6 00             	movzx  eax,BYTE PTR [eax]
  407507:	0f be c0             	movsx  eax,al
  40750a:	34 a8                	xor    al,0xa8
  40750c:	3b 45 f0             	cmp    eax,DWORD PTR [ebp-0x10]
  40750f:	74 0b                	je     40751c <_check+0x6008>
  407511:	8b 45 f4             	mov    eax,DWORD PTR [ebp-0xc]
  407514:	89 04 24             	mov    DWORD PTR [esp],eax
  407517:	e8 24 9e ff ff       	call   401340 <_badboy>
  40751c:	83 45 f4 01          	add    DWORD PTR [ebp-0xc],0x1
  407520:	c7 45 f0 5a 00 00 00 	mov    DWORD PTR [ebp-0x10],0x5a
  407527:	8b 55 f4             	mov    edx,DWORD PTR [ebp-0xc]
  40752a:	8b 45 08             	mov    eax,DWORD PTR [ebp+0x8]
  40752d:	01 d0                	add    eax,edx
  40752f:	0f b6 00             	movzx  eax,BYTE PTR [eax]
  407532:	83 f0 35             	xor    eax,0x35
  407535:	0f be c0             	movsx  eax,al
  407538:	3b 45 f0             	cmp    eax,DWORD PTR [ebp-0x10]
  40753b:	74 0b                	je     407548 <_check+0x6034>
  40753d:	8b 45 f4             	mov    eax,DWORD PTR [ebp-0xc]
  407540:	89 04 24             	mov    DWORD PTR [esp],eax
  407543:	e8 f8 9d ff ff       	call   401340 <_badboy>
  407548:	83 45 f4 01          	add    DWORD PTR [ebp-0xc],0x1
  40754c:	c7 45 f0 86 00 00 00 	mov    DWORD PTR [ebp-0x10],0x86
  407553:	8b 55 f4             	mov    edx,DWORD PTR [ebp-0xc]
  407556:	8b 45 08             	mov    eax,DWORD PTR [ebp+0x8]
  407559:	01 d0                	add    eax,edx
  40755b:	0f b6 00             	movzx  eax,BYTE PTR [eax]
  40755e:	0f be c0             	movsx  eax,al
  407561:	34 f3                	xor    al,0xf3
  407563:	3b 45 f0             	cmp    eax,DWORD PTR [ebp-0x10]
  407566:	74 0b                	je     407573 <_check+0x605f>
  407568:	8b 45 f4             	mov    eax,DWORD PTR [ebp-0xc]
  40756b:	89 04 24             	mov    DWORD PTR [esp],eax
  40756e:	e8 cd 9d ff ff       	call   401340 <_badboy>
  407573:	83 45 f4 01          	add    DWORD PTR [ebp-0xc],0x1
  407577:	c7 45 f0 46 00 00 00 	mov    DWORD PTR [ebp-0x10],0x46
  40757e:	8b 55 f4             	mov    edx,DWORD PTR [ebp-0xc]
  407581:	8b 45 08             	mov    eax,DWORD PTR [ebp+0x8]
  407584:	01 d0                	add    eax,edx
  407586:	0f b6 00             	movzx  eax,BYTE PTR [eax]
  407589:	83 f0 61             	xor    eax,0x61
  40758c:	0f be c0             	movsx  eax,al
  40758f:	3b 45 f0             	cmp    eax,DWORD PTR [ebp-0x10]
  407592:	74 0b                	je     40759f <_check+0x608b>
  407594:	8b 45 f4             	mov    eax,DWORD PTR [ebp-0xc]
  407597:	89 04 24             	mov    DWORD PTR [esp],eax
  40759a:	e8 a1 9d ff ff       	call   401340 <_badboy>
  40759f:	83 45 f4 01          	add    DWORD PTR [ebp-0xc],0x1
  4075a3:	c7 45 f0 7d 00 00 00 	mov    DWORD PTR [ebp-0x10],0x7d
  4075aa:	8b 55 f4             	mov    edx,DWORD PTR [ebp-0xc]
  4075ad:	8b 45 08             	mov    eax,DWORD PTR [ebp+0x8]
  4075b0:	01 d0                	add    eax,edx
  4075b2:	0f b6 00             	movzx  eax,BYTE PTR [eax]
  4075b5:	83 f0 11             	xor    eax,0x11
  4075b8:	0f be c0             	movsx  eax,al
  4075bb:	3b 45 f0             	cmp    eax,DWORD PTR [ebp-0x10]
  4075be:	74 0b                	je     4075cb <_check+0x60b7>
  4075c0:	8b 45 f4             	mov    eax,DWORD PTR [ebp-0xc]
  4075c3:	89 04 24             	mov    DWORD PTR [esp],eax
  4075c6:	e8 75 9d ff ff       	call   401340 <_badboy>
  4075cb:	83 45 f4 01          	add    DWORD PTR [ebp-0xc],0x1
  4075cf:	c7 45 f0 e6 00 00 00 	mov    DWORD PTR [ebp-0x10],0xe6
  4075d6:	8b 55 f4             	mov    edx,DWORD PTR [ebp-0xc]
  4075d9:	8b 45 08             	mov    eax,DWORD PTR [ebp+0x8]
  4075dc:	01 d0                	add    eax,edx
  4075de:	0f b6 00             	movzx  eax,BYTE PTR [eax]
  4075e1:	0f be c0             	movsx  eax,al
  4075e4:	34 8a                	xor    al,0x8a
  4075e6:	3b 45 f0             	cmp    eax,DWORD PTR [ebp-0x10]
  4075e9:	74 0b                	je     4075f6 <_check+0x60e2>
  4075eb:	8b 45 f4             	mov    eax,DWORD PTR [ebp-0xc]
  4075ee:	89 04 24             	mov    DWORD PTR [esp],eax
  4075f1:	e8 4a 9d ff ff       	call   401340 <_badboy>
  4075f6:	83 45 f4 01          	add    DWORD PTR [ebp-0xc],0x1
  4075fa:	c7 45 f0 fc 00 00 00 	mov    DWORD PTR [ebp-0x10],0xfc
  407601:	8b 55 f4             	mov    edx,DWORD PTR [ebp-0xc]
  407604:	8b 45 08             	mov    eax,DWORD PTR [ebp+0x8]
  407607:	01 d0                	add    eax,edx
  407609:	0f b6 00             	movzx  eax,BYTE PTR [eax]
  40760c:	0f be c0             	movsx  eax,al
  40760f:	34 dc                	xor    al,0xdc
  407611:	3b 45 f0             	cmp    eax,DWORD PTR [ebp-0x10]
  407614:	74 0b                	je     407621 <_check+0x610d>
  407616:	8b 45 f4             	mov    eax,DWORD PTR [ebp-0xc]
  407619:	89 04 24             	mov    DWORD PTR [esp],eax
  40761c:	e8 1f 9d ff ff       	call   401340 <_badboy>
  407621:	83 45 f4 01          	add    DWORD PTR [ebp-0xc],0x1
  407625:	c7 45 f0 e7 00 00 00 	mov    DWORD PTR [ebp-0x10],0xe7
  40762c:	8b 55 f4             	mov    edx,DWORD PTR [ebp-0xc]
  40762f:	8b 45 08             	mov    eax,DWORD PTR [ebp+0x8]
  407632:	01 d0                	add    eax,edx
  407634:	0f b6 00             	movzx  eax,BYTE PTR [eax]
  407637:	0f be c0             	movsx  eax,al
  40763a:	34 8b                	xor    al,0x8b
  40763c:	3b 45 f0             	cmp    eax,DWORD PTR [ebp-0x10]
  40763f:	74 0b                	je     40764c <_check+0x6138>
  407641:	8b 45 f4             	mov    eax,DWORD PTR [ebp-0xc]
  407644:	89 04 24             	mov    DWORD PTR [esp],eax
  407647:	e8 f4 9c ff ff       	call   401340 <_badboy>
  40764c:	83 45 f4 01          	add    DWORD PTR [ebp-0xc],0x1
  407650:	c7 45 f0 fc 00 00 00 	mov    DWORD PTR [ebp-0x10],0xfc
  407657:	8b 55 f4             	mov    edx,DWORD PTR [ebp-0xc]
  40765a:	8b 45 08             	mov    eax,DWORD PTR [ebp+0x8]
  40765d:	01 d0                	add    eax,edx
  40765f:	0f b6 00             	movzx  eax,BYTE PTR [eax]
  407662:	0f be c0             	movsx  eax,al
  407665:	34 99                	xor    al,0x99
  407667:	3b 45 f0             	cmp    eax,DWORD PTR [ebp-0x10]
  40766a:	74 0b                	je     407677 <_check+0x6163>
  40766c:	8b 45 f4             	mov    eax,DWORD PTR [ebp-0xc]
  40766f:	89 04 24             	mov    DWORD PTR [esp],eax
  407672:	e8 c9 9c ff ff       	call   401340 <_badboy>
  407677:	83 45 f4 01          	add    DWORD PTR [ebp-0xc],0x1
  40767b:	c7 45 f0 7a 00 00 00 	mov    DWORD PTR [ebp-0x10],0x7a
  407682:	8b 55 f4             	mov    edx,DWORD PTR [ebp-0xc]
  407685:	8b 45 08             	mov    eax,DWORD PTR [ebp+0x8]
  407688:	01 d0                	add    eax,edx
  40768a:	0f b6 00             	movzx  eax,BYTE PTR [eax]
  40768d:	83 f0 1b             	xor    eax,0x1b
  407690:	0f be c0             	movsx  eax,al
  407693:	3b 45 f0             	cmp    eax,DWORD PTR [ebp-0x10]
  407696:	74 0b                	je     4076a3 <_check+0x618f>
  407698:	8b 45 f4             	mov    eax,DWORD PTR [ebp-0xc]
  40769b:	89 04 24             	mov    DWORD PTR [esp],eax
  40769e:	e8 9d 9c ff ff       	call   401340 <_badboy>
  4076a3:	83 45 f4 01          	add    DWORD PTR [ebp-0xc],0x1
  4076a7:	c7 45 f0 28 00 00 00 	mov    DWORD PTR [ebp-0x10],0x28
  4076ae:	8b 55 f4             	mov    edx,DWORD PTR [ebp-0xc]
  4076b1:	8b 45 08             	mov    eax,DWORD PTR [ebp+0x8]
  4076b4:	01 d0                	add    eax,edx
  4076b6:	0f b6 00             	movzx  eax,BYTE PTR [eax]
  4076b9:	83 f0 5a             	xor    eax,0x5a
  4076bc:	0f be c0             	movsx  eax,al
  4076bf:	3b 45 f0             	cmp    eax,DWORD PTR [ebp-0x10]
  4076c2:	74 0b                	je     4076cf <_check+0x61bb>
  4076c4:	8b 45 f4             	mov    eax,DWORD PTR [ebp-0xc]
  4076c7:	89 04 24             	mov    DWORD PTR [esp],eax
  4076ca:	e8 71 9c ff ff       	call   401340 <_badboy>
  4076cf:	83 45 f4 01          	add    DWORD PTR [ebp-0xc],0x1
  4076d3:	c7 45 f0 b8 00 00 00 	mov    DWORD PTR [ebp-0x10],0xb8
  4076da:	8b 55 f4             	mov    edx,DWORD PTR [ebp-0xc]
  4076dd:	8b 45 08             	mov    eax,DWORD PTR [ebp+0x8]
  4076e0:	01 d0                	add    eax,edx
  4076e2:	0f b6 00             	movzx  eax,BYTE PTR [eax]
  4076e5:	0f be c0             	movsx  eax,al
  4076e8:	34 d6                	xor    al,0xd6
  4076ea:	3b 45 f0             	cmp    eax,DWORD PTR [ebp-0x10]
  4076ed:	74 0b                	je     4076fa <_check+0x61e6>
  4076ef:	8b 45 f4             	mov    eax,DWORD PTR [ebp-0xc]
  4076f2:	89 04 24             	mov    DWORD PTR [esp],eax
  4076f5:	e8 46 9c ff ff       	call   401340 <_badboy>
  4076fa:	83 45 f4 01          	add    DWORD PTR [ebp-0xc],0x1
  4076fe:	c7 45 f0 a8 00 00 00 	mov    DWORD PTR [ebp-0x10],0xa8
  407705:	8b 55 f4             	mov    edx,DWORD PTR [ebp-0xc]
  407708:	8b 45 08             	mov    eax,DWORD PTR [ebp+0x8]
  40770b:	01 d0                	add    eax,edx
  40770d:	0f b6 00             	movzx  eax,BYTE PTR [eax]
  407710:	0f be c0             	movsx  eax,al
  407713:	34 88                	xor    al,0x88
  407715:	3b 45 f0             	cmp    eax,DWORD PTR [ebp-0x10]
  407718:	74 0b                	je     407725 <_check+0x6211>
  40771a:	8b 45 f4             	mov    eax,DWORD PTR [ebp-0xc]
  40771d:	89 04 24             	mov    DWORD PTR [esp],eax
  407720:	e8 1b 9c ff ff       	call   401340 <_badboy>
  407725:	83 45 f4 01          	add    DWORD PTR [ebp-0xc],0x1
  407729:	c7 45 f0 dd 00 00 00 	mov    DWORD PTR [ebp-0x10],0xdd
  407730:	8b 55 f4             	mov    edx,DWORD PTR [ebp-0xc]
  407733:	8b 45 08             	mov    eax,DWORD PTR [ebp+0x8]
  407736:	01 d0                	add    eax,edx
  407738:	0f b6 00             	movzx  eax,BYTE PTR [eax]
  40773b:	0f be c0             	movsx  eax,al
  40773e:	34 ae                	xor    al,0xae
  407740:	3b 45 f0             	cmp    eax,DWORD PTR [ebp-0x10]
  407743:	74 0b                	je     407750 <_check+0x623c>
  407745:	8b 45 f4             	mov    eax,DWORD PTR [ebp-0xc]
  407748:	89 04 24             	mov    DWORD PTR [esp],eax
  40774b:	e8 f0 9b ff ff       	call   401340 <_badboy>
  407750:	83 45 f4 01          	add    DWORD PTR [ebp-0xc],0x1
  407754:	c7 45 f0 e6 00 00 00 	mov    DWORD PTR [ebp-0x10],0xe6
  40775b:	8b 55 f4             	mov    edx,DWORD PTR [ebp-0xc]
  40775e:	8b 45 08             	mov    eax,DWORD PTR [ebp+0x8]
  407761:	01 d0                	add    eax,edx
  407763:	0f b6 00             	movzx  eax,BYTE PTR [eax]
  407766:	0f be c0             	movsx  eax,al
  407769:	34 89                	xor    al,0x89
  40776b:	3b 45 f0             	cmp    eax,DWORD PTR [ebp-0x10]
  40776e:	74 0b                	je     40777b <_check+0x6267>
  407770:	8b 45 f4             	mov    eax,DWORD PTR [ebp-0xc]
  407773:	89 04 24             	mov    DWORD PTR [esp],eax
  407776:	e8 c5 9b ff ff       	call   401340 <_badboy>
  40777b:	83 45 f4 01          	add    DWORD PTR [ebp-0xc],0x1
  40777f:	c7 45 f0 3c 00 00 00 	mov    DWORD PTR [ebp-0x10],0x3c
  407786:	8b 55 f4             	mov    edx,DWORD PTR [ebp-0xc]
  407789:	8b 45 08             	mov    eax,DWORD PTR [ebp+0x8]
  40778c:	01 d0                	add    eax,edx
  40778e:	0f b6 00             	movzx  eax,BYTE PTR [eax]
  407791:	83 f0 51             	xor    eax,0x51
  407794:	0f be c0             	movsx  eax,al
  407797:	3b 45 f0             	cmp    eax,DWORD PTR [ebp-0x10]
  40779a:	74 0b                	je     4077a7 <_check+0x6293>
  40779c:	8b 45 f4             	mov    eax,DWORD PTR [ebp-0xc]
  40779f:	89 04 24             	mov    DWORD PTR [esp],eax
  4077a2:	e8 99 9b ff ff       	call   401340 <_badboy>
  4077a7:	83 45 f4 01          	add    DWORD PTR [ebp-0xc],0x1
  4077ab:	c7 45 f0 5b 00 00 00 	mov    DWORD PTR [ebp-0x10],0x5b
  4077b2:	8b 55 f4             	mov    edx,DWORD PTR [ebp-0xc]
  4077b5:	8b 45 08             	mov    eax,DWORD PTR [ebp+0x8]
  4077b8:	01 d0                	add    eax,edx
  4077ba:	0f b6 00             	movzx  eax,BYTE PTR [eax]
  4077bd:	83 f0 3e             	xor    eax,0x3e
  4077c0:	0f be c0             	movsx  eax,al
  4077c3:	3b 45 f0             	cmp    eax,DWORD PTR [ebp-0x10]
  4077c6:	74 0b                	je     4077d3 <_check+0x62bf>
  4077c8:	8b 45 f4             	mov    eax,DWORD PTR [ebp-0xc]
  4077cb:	89 04 24             	mov    DWORD PTR [esp],eax
  4077ce:	e8 6d 9b ff ff       	call   401340 <_badboy>
  4077d3:	83 45 f4 01          	add    DWORD PTR [ebp-0xc],0x1
  4077d7:	c7 45 f0 d5 00 00 00 	mov    DWORD PTR [ebp-0x10],0xd5
  4077de:	8b 55 f4             	mov    edx,DWORD PTR [ebp-0xc]
  4077e1:	8b 45 08             	mov    eax,DWORD PTR [ebp+0x8]
  4077e4:	01 d0                	add    eax,edx
  4077e6:	0f b6 00             	movzx  eax,BYTE PTR [eax]
  4077e9:	0f be c0             	movsx  eax,al
  4077ec:	34 f5                	xor    al,0xf5
  4077ee:	3b 45 f0             	cmp    eax,DWORD PTR [ebp-0x10]
  4077f1:	74 0b                	je     4077fe <_check+0x62ea>
  4077f3:	8b 45 f4             	mov    eax,DWORD PTR [ebp-0xc]
  4077f6:	89 04 24             	mov    DWORD PTR [esp],eax
  4077f9:	e8 42 9b ff ff       	call   401340 <_badboy>
  4077fe:	83 45 f4 01          	add    DWORD PTR [ebp-0xc],0x1
  407802:	c7 45 f0 8d 00 00 00 	mov    DWORD PTR [ebp-0x10],0x8d
  407809:	8b 55 f4             	mov    edx,DWORD PTR [ebp-0xc]
  40780c:	8b 45 08             	mov    eax,DWORD PTR [ebp+0x8]
  40780f:	01 d0                	add    eax,edx
  407811:	0f b6 00             	movzx  eax,BYTE PTR [eax]
  407814:	0f be c0             	movsx  eax,al
  407817:	34 ea                	xor    al,0xea
  407819:	3b 45 f0             	cmp    eax,DWORD PTR [ebp-0x10]
  40781c:	74 0b                	je     407829 <_check+0x6315>
  40781e:	8b 45 f4             	mov    eax,DWORD PTR [ebp-0xc]
  407821:	89 04 24             	mov    DWORD PTR [esp],eax
  407824:	e8 17 9b ff ff       	call   401340 <_badboy>
  407829:	83 45 f4 01          	add    DWORD PTR [ebp-0xc],0x1
  40782d:	c7 45 f0 99 00 00 00 	mov    DWORD PTR [ebp-0x10],0x99
  407834:	8b 55 f4             	mov    edx,DWORD PTR [ebp-0xc]
  407837:	8b 45 08             	mov    eax,DWORD PTR [ebp+0x8]
  40783a:	01 d0                	add    eax,edx
  40783c:	0f b6 00             	movzx  eax,BYTE PTR [eax]
  40783f:	0f be c0             	movsx  eax,al
  407842:	34 f6                	xor    al,0xf6
  407844:	3b 45 f0             	cmp    eax,DWORD PTR [ebp-0x10]
  407847:	74 0b                	je     407854 <_check+0x6340>
  407849:	8b 45 f4             	mov    eax,DWORD PTR [ebp-0xc]
  40784c:	89 04 24             	mov    DWORD PTR [esp],eax
  40784f:	e8 ec 9a ff ff       	call   401340 <_badboy>
  407854:	83 45 f4 01          	add    DWORD PTR [ebp-0xc],0x1
  407858:	c7 45 f0 17 00 00 00 	mov    DWORD PTR [ebp-0x10],0x17
  40785f:	8b 55 f4             	mov    edx,DWORD PTR [ebp-0xc]
  407862:	8b 45 08             	mov    eax,DWORD PTR [ebp+0x8]
  407865:	01 d0                	add    eax,edx
  407867:	0f b6 00             	movzx  eax,BYTE PTR [eax]
  40786a:	83 f0 78             	xor    eax,0x78
  40786d:	0f be c0             	movsx  eax,al
  407870:	3b 45 f0             	cmp    eax,DWORD PTR [ebp-0x10]
  407873:	74 0b                	je     407880 <_check+0x636c>
  407875:	8b 45 f4             	mov    eax,DWORD PTR [ebp-0xc]
  407878:	89 04 24             	mov    DWORD PTR [esp],eax
  40787b:	e8 c0 9a ff ff       	call   401340 <_badboy>
  407880:	83 45 f4 01          	add    DWORD PTR [ebp-0xc],0x1
  407884:	c7 45 f0 63 00 00 00 	mov    DWORD PTR [ebp-0x10],0x63
  40788b:	8b 55 f4             	mov    edx,DWORD PTR [ebp-0xc]
  40788e:	8b 45 08             	mov    eax,DWORD PTR [ebp+0x8]
  407891:	01 d0                	add    eax,edx
  407893:	0f b6 00             	movzx  eax,BYTE PTR [eax]
  407896:	83 f0 07             	xor    eax,0x7
  407899:	0f be c0             	movsx  eax,al
  40789c:	3b 45 f0             	cmp    eax,DWORD PTR [ebp-0x10]
  40789f:	74 0b                	je     4078ac <_check+0x6398>
  4078a1:	8b 45 f4             	mov    eax,DWORD PTR [ebp-0xc]
  4078a4:	89 04 24             	mov    DWORD PTR [esp],eax
  4078a7:	e8 94 9a ff ff       	call   401340 <_badboy>
  4078ac:	83 45 f4 01          	add    DWORD PTR [ebp-0xc],0x1
  4078b0:	c7 45 f0 cd 00 00 00 	mov    DWORD PTR [ebp-0x10],0xcd
  4078b7:	8b 55 f4             	mov    edx,DWORD PTR [ebp-0xc]
  4078ba:	8b 45 08             	mov    eax,DWORD PTR [ebp+0x8]
  4078bd:	01 d0                	add    eax,edx
  4078bf:	0f b6 00             	movzx  eax,BYTE PTR [eax]
  4078c2:	0f be c0             	movsx  eax,al
  4078c5:	34 ed                	xor    al,0xed
  4078c7:	3b 45 f0             	cmp    eax,DWORD PTR [ebp-0x10]
  4078ca:	74 0b                	je     4078d7 <_check+0x63c3>
  4078cc:	8b 45 f4             	mov    eax,DWORD PTR [ebp-0xc]
  4078cf:	89 04 24             	mov    DWORD PTR [esp],eax
  4078d2:	e8 69 9a ff ff       	call   401340 <_badboy>
  4078d7:	83 45 f4 01          	add    DWORD PTR [ebp-0xc],0x1
  4078db:	c7 45 f0 66 00 00 00 	mov    DWORD PTR [ebp-0x10],0x66
  4078e2:	8b 55 f4             	mov    edx,DWORD PTR [ebp-0xc]
  4078e5:	8b 45 08             	mov    eax,DWORD PTR [ebp+0x8]
  4078e8:	01 d0                	add    eax,edx
  4078ea:	0f b6 00             	movzx  eax,BYTE PTR [eax]
  4078ed:	83 f0 12             	xor    eax,0x12
  4078f0:	0f be c0             	movsx  eax,al
  4078f3:	3b 45 f0             	cmp    eax,DWORD PTR [ebp-0x10]
  4078f6:	74 0b                	je     407903 <_check+0x63ef>
  4078f8:	8b 45 f4             	mov    eax,DWORD PTR [ebp-0xc]
  4078fb:	89 04 24             	mov    DWORD PTR [esp],eax
  4078fe:	e8 3d 9a ff ff       	call   401340 <_badboy>
  407903:	83 45 f4 01          	add    DWORD PTR [ebp-0xc],0x1
  407907:	c7 45 f0 68 00 00 00 	mov    DWORD PTR [ebp-0x10],0x68
  40790e:	8b 55 f4             	mov    edx,DWORD PTR [ebp-0xc]
  407911:	8b 45 08             	mov    eax,DWORD PTR [ebp+0x8]
  407914:	01 d0                	add    eax,edx
  407916:	0f b6 00             	movzx  eax,BYTE PTR [eax]
  407919:	0f be c0             	movsx  eax,al
  40791c:	3b 45 f0             	cmp    eax,DWORD PTR [ebp-0x10]
  40791f:	74 0b                	je     40792c <_check+0x6418>
  407921:	8b 45 f4             	mov    eax,DWORD PTR [ebp-0xc]
  407924:	89 04 24             	mov    DWORD PTR [esp],eax
  407927:	e8 14 9a ff ff       	call   401340 <_badboy>
  40792c:	83 45 f4 01          	add    DWORD PTR [ebp-0xc],0x1
  407930:	c7 45 f0 b5 00 00 00 	mov    DWORD PTR [ebp-0x10],0xb5
  407937:	8b 55 f4             	mov    edx,DWORD PTR [ebp-0xc]
  40793a:	8b 45 08             	mov    eax,DWORD PTR [ebp+0x8]
  40793d:	01 d0                	add    eax,edx
  40793f:	0f b6 00             	movzx  eax,BYTE PTR [eax]
  407942:	0f be c0             	movsx  eax,al
  407945:	34 dc                	xor    al,0xdc
  407947:	3b 45 f0             	cmp    eax,DWORD PTR [ebp-0x10]
  40794a:	74 0b                	je     407957 <_check+0x6443>
  40794c:	8b 45 f4             	mov    eax,DWORD PTR [ebp-0xc]
  40794f:	89 04 24             	mov    DWORD PTR [esp],eax
  407952:	e8 e9 99 ff ff       	call   401340 <_badboy>
  407957:	83 45 f4 01          	add    DWORD PTR [ebp-0xc],0x1
  40795b:	c7 45 f0 d8 00 00 00 	mov    DWORD PTR [ebp-0x10],0xd8
  407962:	8b 55 f4             	mov    edx,DWORD PTR [ebp-0xc]
  407965:	8b 45 08             	mov    eax,DWORD PTR [ebp+0x8]
  407968:	01 d0                	add    eax,edx
  40796a:	0f b6 00             	movzx  eax,BYTE PTR [eax]
  40796d:	0f be c0             	movsx  eax,al
  407970:	34 b6                	xor    al,0xb6
  407972:	3b 45 f0             	cmp    eax,DWORD PTR [ebp-0x10]
  407975:	74 0b                	je     407982 <_check+0x646e>
  407977:	8b 45 f4             	mov    eax,DWORD PTR [ebp-0xc]
  40797a:	89 04 24             	mov    DWORD PTR [esp],eax
  40797d:	e8 be 99 ff ff       	call   401340 <_badboy>
  407982:	83 45 f4 01          	add    DWORD PTR [ebp-0xc],0x1
  407986:	c7 45 f0 cb 00 00 00 	mov    DWORD PTR [ebp-0x10],0xcb
  40798d:	8b 55 f4             	mov    edx,DWORD PTR [ebp-0xc]
  407990:	8b 45 08             	mov    eax,DWORD PTR [ebp+0x8]
  407993:	01 d0                	add    eax,edx
  407995:	0f b6 00             	movzx  eax,BYTE PTR [eax]
  407998:	0f be c0             	movsx  eax,al
  40799b:	34 ac                	xor    al,0xac
  40799d:	3b 45 f0             	cmp    eax,DWORD PTR [ebp-0x10]
  4079a0:	74 0b                	je     4079ad <_check+0x6499>
  4079a2:	8b 45 f4             	mov    eax,DWORD PTR [ebp-0xc]
  4079a5:	89 04 24             	mov    DWORD PTR [esp],eax
  4079a8:	e8 93 99 ff ff       	call   401340 <_badboy>
  4079ad:	83 45 f4 01          	add    DWORD PTR [ebp-0xc],0x1
  4079b1:	c7 45 f0 1a 00 00 00 	mov    DWORD PTR [ebp-0x10],0x1a
  4079b8:	8b 55 f4             	mov    edx,DWORD PTR [ebp-0xc]
  4079bb:	8b 45 08             	mov    eax,DWORD PTR [ebp+0x8]
  4079be:	01 d0                	add    eax,edx
  4079c0:	0f b6 00             	movzx  eax,BYTE PTR [eax]
  4079c3:	83 f0 69             	xor    eax,0x69
  4079c6:	0f be c0             	movsx  eax,al
  4079c9:	3b 45 f0             	cmp    eax,DWORD PTR [ebp-0x10]
  4079cc:	74 0b                	je     4079d9 <_check+0x64c5>
  4079ce:	8b 45 f4             	mov    eax,DWORD PTR [ebp-0xc]
  4079d1:	89 04 24             	mov    DWORD PTR [esp],eax
  4079d4:	e8 67 99 ff ff       	call   401340 <_badboy>
  4079d9:	83 45 f4 01          	add    DWORD PTR [ebp-0xc],0x1
  4079dd:	c7 45 f0 2d 00 00 00 	mov    DWORD PTR [ebp-0x10],0x2d
  4079e4:	8b 55 f4             	mov    edx,DWORD PTR [ebp-0xc]
  4079e7:	8b 45 08             	mov    eax,DWORD PTR [ebp+0x8]
  4079ea:	01 d0                	add    eax,edx
  4079ec:	0f b6 00             	movzx  eax,BYTE PTR [eax]
  4079ef:	83 f0 03             	xor    eax,0x3
  4079f2:	0f be c0             	movsx  eax,al
  4079f5:	3b 45 f0             	cmp    eax,DWORD PTR [ebp-0x10]
  4079f8:	74 0b                	je     407a05 <_check+0x64f1>
  4079fa:	8b 45 f4             	mov    eax,DWORD PTR [ebp-0xc]
  4079fd:	89 04 24             	mov    DWORD PTR [esp],eax
  407a00:	e8 3b 99 ff ff       	call   401340 <_badboy>
  407a05:	83 45 f4 01          	add    DWORD PTR [ebp-0xc],0x1
  407a09:	c7 45 f0 d8 00 00 00 	mov    DWORD PTR [ebp-0x10],0xd8
  407a10:	8b 55 f4             	mov    edx,DWORD PTR [ebp-0xc]
  407a13:	8b 45 08             	mov    eax,DWORD PTR [ebp+0x8]
  407a16:	01 d0                	add    eax,edx
  407a18:	0f b6 00             	movzx  eax,BYTE PTR [eax]
  407a1b:	0f be c0             	movsx  eax,al
  407a1e:	34 f8                	xor    al,0xf8
  407a20:	3b 45 f0             	cmp    eax,DWORD PTR [ebp-0x10]
  407a23:	74 0b                	je     407a30 <_check+0x651c>
  407a25:	8b 45 f4             	mov    eax,DWORD PTR [ebp-0xc]
  407a28:	89 04 24             	mov    DWORD PTR [esp],eax
  407a2b:	e8 10 99 ff ff       	call   401340 <_badboy>
  407a30:	83 45 f4 01          	add    DWORD PTR [ebp-0xc],0x1
  407a34:	c7 45 f0 20 00 00 00 	mov    DWORD PTR [ebp-0x10],0x20
  407a3b:	8b 55 f4             	mov    edx,DWORD PTR [ebp-0xc]
  407a3e:	8b 45 08             	mov    eax,DWORD PTR [ebp+0x8]
  407a41:	01 d0                	add    eax,edx
  407a43:	0f b6 00             	movzx  eax,BYTE PTR [eax]
  407a46:	83 f0 61             	xor    eax,0x61
  407a49:	0f be c0             	movsx  eax,al
  407a4c:	3b 45 f0             	cmp    eax,DWORD PTR [ebp-0x10]
  407a4f:	74 0b                	je     407a5c <_check+0x6548>
  407a51:	8b 45 f4             	mov    eax,DWORD PTR [ebp-0xc]
  407a54:	89 04 24             	mov    DWORD PTR [esp],eax
  407a57:	e8 e4 98 ff ff       	call   401340 <_badboy>
  407a5c:	83 45 f4 01          	add    DWORD PTR [ebp-0xc],0x1
  407a60:	c7 45 f0 20 00 00 00 	mov    DWORD PTR [ebp-0x10],0x20
  407a67:	8b 55 f4             	mov    edx,DWORD PTR [ebp-0xc]
  407a6a:	8b 45 08             	mov    eax,DWORD PTR [ebp+0x8]
  407a6d:	01 d0                	add    eax,edx
  407a6f:	0f b6 00             	movzx  eax,BYTE PTR [eax]
  407a72:	83 f0 55             	xor    eax,0x55
  407a75:	0f be c0             	movsx  eax,al
  407a78:	3b 45 f0             	cmp    eax,DWORD PTR [ebp-0x10]
  407a7b:	74 0b                	je     407a88 <_check+0x6574>
  407a7d:	8b 45 f4             	mov    eax,DWORD PTR [ebp-0xc]
  407a80:	89 04 24             	mov    DWORD PTR [esp],eax
  407a83:	e8 b8 98 ff ff       	call   401340 <_badboy>
  407a88:	83 45 f4 01          	add    DWORD PTR [ebp-0xc],0x1
  407a8c:	c7 45 f0 51 00 00 00 	mov    DWORD PTR [ebp-0x10],0x51
  407a93:	8b 55 f4             	mov    edx,DWORD PTR [ebp-0xc]
  407a96:	8b 45 08             	mov    eax,DWORD PTR [ebp+0x8]
  407a99:	01 d0                	add    eax,edx
  407a9b:	0f b6 00             	movzx  eax,BYTE PTR [eax]
  407a9e:	83 f0 25             	xor    eax,0x25
  407aa1:	0f be c0             	movsx  eax,al
  407aa4:	3b 45 f0             	cmp    eax,DWORD PTR [ebp-0x10]
  407aa7:	74 0b                	je     407ab4 <_check+0x65a0>
  407aa9:	8b 45 f4             	mov    eax,DWORD PTR [ebp-0xc]
  407aac:	89 04 24             	mov    DWORD PTR [esp],eax
  407aaf:	e8 8c 98 ff ff       	call   401340 <_badboy>
  407ab4:	83 45 f4 01          	add    DWORD PTR [ebp-0xc],0x1
  407ab8:	c7 45 f0 6c 00 00 00 	mov    DWORD PTR [ebp-0x10],0x6c
  407abf:	8b 55 f4             	mov    edx,DWORD PTR [ebp-0xc]
  407ac2:	8b 45 08             	mov    eax,DWORD PTR [ebp+0x8]
  407ac5:	01 d0                	add    eax,edx
  407ac7:	0f b6 00             	movzx  eax,BYTE PTR [eax]
  407aca:	83 f0 03             	xor    eax,0x3
  407acd:	0f be c0             	movsx  eax,al
  407ad0:	3b 45 f0             	cmp    eax,DWORD PTR [ebp-0x10]
  407ad3:	74 0b                	je     407ae0 <_check+0x65cc>
  407ad5:	8b 45 f4             	mov    eax,DWORD PTR [ebp-0xc]
  407ad8:	89 04 24             	mov    DWORD PTR [esp],eax
  407adb:	e8 60 98 ff ff       	call   401340 <_badboy>
  407ae0:	83 45 f4 01          	add    DWORD PTR [ebp-0xc],0x1
  407ae4:	c7 45 f0 be 00 00 00 	mov    DWORD PTR [ebp-0x10],0xbe
  407aeb:	8b 55 f4             	mov    edx,DWORD PTR [ebp-0xc]
  407aee:	8b 45 08             	mov    eax,DWORD PTR [ebp+0x8]
  407af1:	01 d0                	add    eax,edx
  407af3:	0f b6 00             	movzx  eax,BYTE PTR [eax]
  407af6:	0f be c0             	movsx  eax,al
  407af9:	34 d3                	xor    al,0xd3
  407afb:	3b 45 f0             	cmp    eax,DWORD PTR [ebp-0x10]
  407afe:	74 0b                	je     407b0b <_check+0x65f7>
  407b00:	8b 45 f4             	mov    eax,DWORD PTR [ebp-0xc]
  407b03:	89 04 24             	mov    DWORD PTR [esp],eax
  407b06:	e8 35 98 ff ff       	call   401340 <_badboy>
  407b0b:	83 45 f4 01          	add    DWORD PTR [ebp-0xc],0x1
  407b0f:	c7 45 f0 c8 00 00 00 	mov    DWORD PTR [ebp-0x10],0xc8
  407b16:	8b 55 f4             	mov    edx,DWORD PTR [ebp-0xc]
  407b19:	8b 45 08             	mov    eax,DWORD PTR [ebp+0x8]
  407b1c:	01 d0                	add    eax,edx
  407b1e:	0f b6 00             	movzx  eax,BYTE PTR [eax]
  407b21:	0f be c0             	movsx  eax,al
  407b24:	34 a9                	xor    al,0xa9
  407b26:	3b 45 f0             	cmp    eax,DWORD PTR [ebp-0x10]
  407b29:	74 0b                	je     407b36 <_check+0x6622>
  407b2b:	8b 45 f4             	mov    eax,DWORD PTR [ebp-0xc]
  407b2e:	89 04 24             	mov    DWORD PTR [esp],eax
  407b31:	e8 0a 98 ff ff       	call   401340 <_badboy>
  407b36:	83 45 f4 01          	add    DWORD PTR [ebp-0xc],0x1
  407b3a:	c7 45 f0 7d 00 00 00 	mov    DWORD PTR [ebp-0x10],0x7d
  407b41:	8b 55 f4             	mov    edx,DWORD PTR [ebp-0xc]
  407b44:	8b 45 08             	mov    eax,DWORD PTR [ebp+0x8]
  407b47:	01 d0                	add    eax,edx
  407b49:	0f b6 00             	movzx  eax,BYTE PTR [eax]
  407b4c:	83 f0 09             	xor    eax,0x9
  407b4f:	0f be c0             	movsx  eax,al
  407b52:	3b 45 f0             	cmp    eax,DWORD PTR [ebp-0x10]
  407b55:	74 0b                	je     407b62 <_check+0x664e>
  407b57:	8b 45 f4             	mov    eax,DWORD PTR [ebp-0xc]
  407b5a:	89 04 24             	mov    DWORD PTR [esp],eax
  407b5d:	e8 de 97 ff ff       	call   401340 <_badboy>
  407b62:	83 45 f4 01          	add    DWORD PTR [ebp-0xc],0x1
  407b66:	c7 45 f0 91 00 00 00 	mov    DWORD PTR [ebp-0x10],0x91
  407b6d:	8b 55 f4             	mov    edx,DWORD PTR [ebp-0xc]
  407b70:	8b 45 08             	mov    eax,DWORD PTR [ebp+0x8]
  407b73:	01 d0                	add    eax,edx
  407b75:	0f b6 00             	movzx  eax,BYTE PTR [eax]
  407b78:	0f be c0             	movsx  eax,al
  407b7b:	34 f8                	xor    al,0xf8
  407b7d:	3b 45 f0             	cmp    eax,DWORD PTR [ebp-0x10]
  407b80:	74 0b                	je     407b8d <_check+0x6679>
  407b82:	8b 45 f4             	mov    eax,DWORD PTR [ebp-0xc]
  407b85:	89 04 24             	mov    DWORD PTR [esp],eax
  407b88:	e8 b3 97 ff ff       	call   401340 <_badboy>
  407b8d:	83 45 f4 01          	add    DWORD PTR [ebp-0xc],0x1
  407b91:	c7 45 f0 61 00 00 00 	mov    DWORD PTR [ebp-0x10],0x61
  407b98:	8b 55 f4             	mov    edx,DWORD PTR [ebp-0xc]
  407b9b:	8b 45 08             	mov    eax,DWORD PTR [ebp+0x8]
  407b9e:	01 d0                	add    eax,edx
  407ba0:	0f b6 00             	movzx  eax,BYTE PTR [eax]
  407ba3:	83 f0 1b             	xor    eax,0x1b
  407ba6:	0f be c0             	movsx  eax,al
  407ba9:	3b 45 f0             	cmp    eax,DWORD PTR [ebp-0x10]
  407bac:	74 0b                	je     407bb9 <_check+0x66a5>
  407bae:	8b 45 f4             	mov    eax,DWORD PTR [ebp-0xc]
  407bb1:	89 04 24             	mov    DWORD PTR [esp],eax
  407bb4:	e8 87 97 ff ff       	call   401340 <_badboy>
  407bb9:	83 45 f4 01          	add    DWORD PTR [ebp-0xc],0x1
  407bbd:	c7 45 f0 2e 00 00 00 	mov    DWORD PTR [ebp-0x10],0x2e
  407bc4:	8b 55 f4             	mov    edx,DWORD PTR [ebp-0xc]
  407bc7:	8b 45 08             	mov    eax,DWORD PTR [ebp+0x8]
  407bca:	01 d0                	add    eax,edx
  407bcc:	0f b6 00             	movzx  eax,BYTE PTR [eax]
  407bcf:	83 f0 47             	xor    eax,0x47
  407bd2:	0f be c0             	movsx  eax,al
  407bd5:	3b 45 f0             	cmp    eax,DWORD PTR [ebp-0x10]
  407bd8:	74 0b                	je     407be5 <_check+0x66d1>
  407bda:	8b 45 f4             	mov    eax,DWORD PTR [ebp-0xc]
  407bdd:	89 04 24             	mov    DWORD PTR [esp],eax
  407be0:	e8 5b 97 ff ff       	call   401340 <_badboy>
  407be5:	83 45 f4 01          	add    DWORD PTR [ebp-0xc],0x1
  407be9:	c7 45 f0 45 00 00 00 	mov    DWORD PTR [ebp-0x10],0x45
  407bf0:	8b 55 f4             	mov    edx,DWORD PTR [ebp-0xc]
  407bf3:	8b 45 08             	mov    eax,DWORD PTR [ebp+0x8]
  407bf6:	01 d0                	add    eax,edx
  407bf8:	0f b6 00             	movzx  eax,BYTE PTR [eax]
  407bfb:	83 f0 2b             	xor    eax,0x2b
  407bfe:	0f be c0             	movsx  eax,al
  407c01:	3b 45 f0             	cmp    eax,DWORD PTR [ebp-0x10]
  407c04:	74 0b                	je     407c11 <_check+0x66fd>
  407c06:	8b 45 f4             	mov    eax,DWORD PTR [ebp-0xc]
  407c09:	89 04 24             	mov    DWORD PTR [esp],eax
  407c0c:	e8 2f 97 ff ff       	call   401340 <_badboy>
  407c11:	83 45 f4 01          	add    DWORD PTR [ebp-0xc],0x1
  407c15:	c7 45 f0 a0 00 00 00 	mov    DWORD PTR [ebp-0x10],0xa0
  407c1c:	8b 55 f4             	mov    edx,DWORD PTR [ebp-0xc]
  407c1f:	8b 45 08             	mov    eax,DWORD PTR [ebp+0x8]
  407c22:	01 d0                	add    eax,edx
  407c24:	0f b6 00             	movzx  eax,BYTE PTR [eax]
  407c27:	0f be c0             	movsx  eax,al
  407c2a:	34 c7                	xor    al,0xc7
  407c2c:	3b 45 f0             	cmp    eax,DWORD PTR [ebp-0x10]
  407c2f:	74 0b                	je     407c3c <_check+0x6728>
  407c31:	8b 45 f4             	mov    eax,DWORD PTR [ebp-0xc]
  407c34:	89 04 24             	mov    DWORD PTR [esp],eax
  407c37:	e8 04 97 ff ff       	call   401340 <_badboy>
  407c3c:	83 45 f4 01          	add    DWORD PTR [ebp-0xc],0x1
  407c40:	c7 45 f0 37 00 00 00 	mov    DWORD PTR [ebp-0x10],0x37
  407c47:	8b 55 f4             	mov    edx,DWORD PTR [ebp-0xc]
  407c4a:	8b 45 08             	mov    eax,DWORD PTR [ebp+0x8]
  407c4d:	01 d0                	add    eax,edx
  407c4f:	0f b6 00             	movzx  eax,BYTE PTR [eax]
  407c52:	83 f0 17             	xor    eax,0x17
  407c55:	0f be c0             	movsx  eax,al
  407c58:	3b 45 f0             	cmp    eax,DWORD PTR [ebp-0x10]
  407c5b:	74 0b                	je     407c68 <_check+0x6754>
  407c5d:	8b 45 f4             	mov    eax,DWORD PTR [ebp-0xc]
  407c60:	89 04 24             	mov    DWORD PTR [esp],eax
  407c63:	e8 d8 96 ff ff       	call   401340 <_badboy>
  407c68:	83 45 f4 01          	add    DWORD PTR [ebp-0xc],0x1
  407c6c:	c7 45 f0 39 00 00 00 	mov    DWORD PTR [ebp-0x10],0x39
  407c73:	8b 55 f4             	mov    edx,DWORD PTR [ebp-0xc]
  407c76:	8b 45 08             	mov    eax,DWORD PTR [ebp+0x8]
  407c79:	01 d0                	add    eax,edx
  407c7b:	0f b6 00             	movzx  eax,BYTE PTR [eax]
  407c7e:	83 f0 4d             	xor    eax,0x4d
  407c81:	0f be c0             	movsx  eax,al
  407c84:	3b 45 f0             	cmp    eax,DWORD PTR [ebp-0x10]
  407c87:	74 0b                	je     407c94 <_check+0x6780>
  407c89:	8b 45 f4             	mov    eax,DWORD PTR [ebp-0xc]
  407c8c:	89 04 24             	mov    DWORD PTR [esp],eax
  407c8f:	e8 ac 96 ff ff       	call   401340 <_badboy>
  407c94:	83 45 f4 01          	add    DWORD PTR [ebp-0xc],0x1
  407c98:	c7 45 f0 d4 00 00 00 	mov    DWORD PTR [ebp-0x10],0xd4
  407c9f:	8b 55 f4             	mov    edx,DWORD PTR [ebp-0xc]
  407ca2:	8b 45 08             	mov    eax,DWORD PTR [ebp+0x8]
  407ca5:	01 d0                	add    eax,edx
  407ca7:	0f b6 00             	movzx  eax,BYTE PTR [eax]
  407caa:	0f be c0             	movsx  eax,al
  407cad:	34 bc                	xor    al,0xbc
  407caf:	3b 45 f0             	cmp    eax,DWORD PTR [ebp-0x10]
  407cb2:	74 0b                	je     407cbf <_check+0x67ab>
  407cb4:	8b 45 f4             	mov    eax,DWORD PTR [ebp-0xc]
  407cb7:	89 04 24             	mov    DWORD PTR [esp],eax
  407cba:	e8 81 96 ff ff       	call   401340 <_badboy>
  407cbf:	83 45 f4 01          	add    DWORD PTR [ebp-0xc],0x1
  407cc3:	c7 45 f0 5d 00 00 00 	mov    DWORD PTR [ebp-0x10],0x5d
  407cca:	8b 55 f4             	mov    edx,DWORD PTR [ebp-0xc]
  407ccd:	8b 45 08             	mov    eax,DWORD PTR [ebp+0x8]
  407cd0:	01 d0                	add    eax,edx
  407cd2:	0f b6 00             	movzx  eax,BYTE PTR [eax]
  407cd5:	83 f0 34             	xor    eax,0x34
  407cd8:	0f be c0             	movsx  eax,al
  407cdb:	3b 45 f0             	cmp    eax,DWORD PTR [ebp-0x10]
  407cde:	74 0b                	je     407ceb <_check+0x67d7>
  407ce0:	8b 45 f4             	mov    eax,DWORD PTR [ebp-0xc]
  407ce3:	89 04 24             	mov    DWORD PTR [esp],eax
  407ce6:	e8 55 96 ff ff       	call   401340 <_badboy>
  407ceb:	83 45 f4 01          	add    DWORD PTR [ebp-0xc],0x1
  407cef:	c7 45 f0 69 00 00 00 	mov    DWORD PTR [ebp-0x10],0x69
  407cf6:	8b 55 f4             	mov    edx,DWORD PTR [ebp-0xc]
  407cf9:	8b 45 08             	mov    eax,DWORD PTR [ebp+0x8]
  407cfc:	01 d0                	add    eax,edx
  407cfe:	0f b6 00             	movzx  eax,BYTE PTR [eax]
  407d01:	83 f0 07             	xor    eax,0x7
  407d04:	0f be c0             	movsx  eax,al
  407d07:	3b 45 f0             	cmp    eax,DWORD PTR [ebp-0x10]
  407d0a:	74 0b                	je     407d17 <_check+0x6803>
  407d0c:	8b 45 f4             	mov    eax,DWORD PTR [ebp-0xc]
  407d0f:	89 04 24             	mov    DWORD PTR [esp],eax
  407d12:	e8 29 96 ff ff       	call   401340 <_badboy>
  407d17:	83 45 f4 01          	add    DWORD PTR [ebp-0xc],0x1
  407d1b:	c7 45 f0 1d 00 00 00 	mov    DWORD PTR [ebp-0x10],0x1d
  407d22:	8b 55 f4             	mov    edx,DWORD PTR [ebp-0xc]
  407d25:	8b 45 08             	mov    eax,DWORD PTR [ebp+0x8]
  407d28:	01 d0                	add    eax,edx
  407d2a:	0f b6 00             	movzx  eax,BYTE PTR [eax]
  407d2d:	83 f0 7a             	xor    eax,0x7a
  407d30:	0f be c0             	movsx  eax,al
  407d33:	3b 45 f0             	cmp    eax,DWORD PTR [ebp-0x10]
  407d36:	74 0b                	je     407d43 <_check+0x682f>
  407d38:	8b 45 f4             	mov    eax,DWORD PTR [ebp-0xc]
  407d3b:	89 04 24             	mov    DWORD PTR [esp],eax
  407d3e:	e8 fd 95 ff ff       	call   401340 <_badboy>
  407d43:	83 45 f4 01          	add    DWORD PTR [ebp-0xc],0x1
  407d47:	c7 45 f0 78 00 00 00 	mov    DWORD PTR [ebp-0x10],0x78
  407d4e:	8b 55 f4             	mov    edx,DWORD PTR [ebp-0xc]
  407d51:	8b 45 08             	mov    eax,DWORD PTR [ebp+0x8]
  407d54:	01 d0                	add    eax,edx
  407d56:	0f b6 00             	movzx  eax,BYTE PTR [eax]
  407d59:	83 f0 0b             	xor    eax,0xb
  407d5c:	0f be c0             	movsx  eax,al
  407d5f:	3b 45 f0             	cmp    eax,DWORD PTR [ebp-0x10]
  407d62:	74 0b                	je     407d6f <_check+0x685b>
  407d64:	8b 45 f4             	mov    eax,DWORD PTR [ebp-0xc]
  407d67:	89 04 24             	mov    DWORD PTR [esp],eax
  407d6a:	e8 d1 95 ff ff       	call   401340 <_badboy>
  407d6f:	83 45 f4 01          	add    DWORD PTR [ebp-0xc],0x1
  407d73:	c7 45 f0 77 00 00 00 	mov    DWORD PTR [ebp-0x10],0x77
  407d7a:	8b 55 f4             	mov    edx,DWORD PTR [ebp-0xc]
  407d7d:	8b 45 08             	mov    eax,DWORD PTR [ebp+0x8]
  407d80:	01 d0                	add    eax,edx
  407d82:	0f b6 00             	movzx  eax,BYTE PTR [eax]
  407d85:	83 f0 57             	xor    eax,0x57
  407d88:	0f be c0             	movsx  eax,al
  407d8b:	3b 45 f0             	cmp    eax,DWORD PTR [ebp-0x10]
  407d8e:	74 0b                	je     407d9b <_check+0x6887>
  407d90:	8b 45 f4             	mov    eax,DWORD PTR [ebp-0xc]
  407d93:	89 04 24             	mov    DWORD PTR [esp],eax
  407d96:	e8 a5 95 ff ff       	call   401340 <_badboy>
  407d9b:	83 45 f4 01          	add    DWORD PTR [ebp-0xc],0x1
  407d9f:	c7 45 f0 d9 00 00 00 	mov    DWORD PTR [ebp-0x10],0xd9
  407da6:	8b 55 f4             	mov    edx,DWORD PTR [ebp-0xc]
  407da9:	8b 45 08             	mov    eax,DWORD PTR [ebp+0x8]
  407dac:	01 d0                	add    eax,edx
  407dae:	0f b6 00             	movzx  eax,BYTE PTR [eax]
  407db1:	0f be c0             	movsx  eax,al
  407db4:	34 ba                	xor    al,0xba
  407db6:	3b 45 f0             	cmp    eax,DWORD PTR [ebp-0x10]
  407db9:	74 0b                	je     407dc6 <_check+0x68b2>
  407dbb:	8b 45 f4             	mov    eax,DWORD PTR [ebp-0xc]
  407dbe:	89 04 24             	mov    DWORD PTR [esp],eax
  407dc1:	e8 7a 95 ff ff       	call   401340 <_badboy>
  407dc6:	83 45 f4 01          	add    DWORD PTR [ebp-0xc],0x1
  407dca:	c7 45 f0 d4 00 00 00 	mov    DWORD PTR [ebp-0x10],0xd4
  407dd1:	8b 55 f4             	mov    edx,DWORD PTR [ebp-0xc]
  407dd4:	8b 45 08             	mov    eax,DWORD PTR [ebp+0x8]
  407dd7:	01 d0                	add    eax,edx
  407dd9:	0f b6 00             	movzx  eax,BYTE PTR [eax]
  407ddc:	0f be c0             	movsx  eax,al
  407ddf:	34 b5                	xor    al,0xb5
  407de1:	3b 45 f0             	cmp    eax,DWORD PTR [ebp-0x10]
  407de4:	74 0b                	je     407df1 <_check+0x68dd>
  407de6:	8b 45 f4             	mov    eax,DWORD PTR [ebp-0xc]
  407de9:	89 04 24             	mov    DWORD PTR [esp],eax
  407dec:	e8 4f 95 ff ff       	call   401340 <_badboy>
  407df1:	83 45 f4 01          	add    DWORD PTR [ebp-0xc],0x1
  407df5:	c7 45 f0 f4 00 00 00 	mov    DWORD PTR [ebp-0x10],0xf4
  407dfc:	8b 55 f4             	mov    edx,DWORD PTR [ebp-0xc]
  407dff:	8b 45 08             	mov    eax,DWORD PTR [ebp+0x8]
  407e02:	01 d0                	add    eax,edx
  407e04:	0f b6 00             	movzx  eax,BYTE PTR [eax]
  407e07:	0f be c0             	movsx  eax,al
  407e0a:	34 9a                	xor    al,0x9a
  407e0c:	3b 45 f0             	cmp    eax,DWORD PTR [ebp-0x10]
  407e0f:	74 0b                	je     407e1c <_check+0x6908>
  407e11:	8b 45 f4             	mov    eax,DWORD PTR [ebp-0xc]
  407e14:	89 04 24             	mov    DWORD PTR [esp],eax
  407e17:	e8 24 95 ff ff       	call   401340 <_badboy>
  407e1c:	83 45 f4 01          	add    DWORD PTR [ebp-0xc],0x1
  407e20:	c7 45 f0 5f 00 00 00 	mov    DWORD PTR [ebp-0x10],0x5f
  407e27:	8b 55 f4             	mov    edx,DWORD PTR [ebp-0xc]
  407e2a:	8b 45 08             	mov    eax,DWORD PTR [ebp+0x8]
  407e2d:	01 d0                	add    eax,edx
  407e2f:	0f b6 00             	movzx  eax,BYTE PTR [eax]
  407e32:	83 f0 7f             	xor    eax,0x7f
  407e35:	0f be c0             	movsx  eax,al
  407e38:	3b 45 f0             	cmp    eax,DWORD PTR [ebp-0x10]
  407e3b:	74 0b                	je     407e48 <_check+0x6934>
  407e3d:	8b 45 f4             	mov    eax,DWORD PTR [ebp-0xc]
  407e40:	89 04 24             	mov    DWORD PTR [esp],eax
  407e43:	e8 f8 94 ff ff       	call   401340 <_badboy>
  407e48:	83 45 f4 01          	add    DWORD PTR [ebp-0xc],0x1
  407e4c:	c7 45 f0 c5 00 00 00 	mov    DWORD PTR [ebp-0x10],0xc5
  407e53:	8b 55 f4             	mov    edx,DWORD PTR [ebp-0xc]
  407e56:	8b 45 08             	mov    eax,DWORD PTR [ebp+0x8]
  407e59:	01 d0                	add    eax,edx
  407e5b:	0f b6 00             	movzx  eax,BYTE PTR [eax]
  407e5e:	0f be c0             	movsx  eax,al
  407e61:	34 a7                	xor    al,0xa7
  407e63:	3b 45 f0             	cmp    eax,DWORD PTR [ebp-0x10]
  407e66:	74 0b                	je     407e73 <_check+0x695f>
  407e68:	8b 45 f4             	mov    eax,DWORD PTR [ebp-0xc]
  407e6b:	89 04 24             	mov    DWORD PTR [esp],eax
  407e6e:	e8 cd 94 ff ff       	call   401340 <_badboy>
  407e73:	83 45 f4 01          	add    DWORD PTR [ebp-0xc],0x1
  407e77:	c7 45 f0 79 00 00 00 	mov    DWORD PTR [ebp-0x10],0x79
  407e7e:	8b 55 f4             	mov    edx,DWORD PTR [ebp-0xc]
  407e81:	8b 45 08             	mov    eax,DWORD PTR [ebp+0x8]
  407e84:	01 d0                	add    eax,edx
  407e86:	0f b6 00             	movzx  eax,BYTE PTR [eax]
  407e89:	83 f0 1c             	xor    eax,0x1c
  407e8c:	0f be c0             	movsx  eax,al
  407e8f:	3b 45 f0             	cmp    eax,DWORD PTR [ebp-0x10]
  407e92:	74 0b                	je     407e9f <_check+0x698b>
  407e94:	8b 45 f4             	mov    eax,DWORD PTR [ebp-0xc]
  407e97:	89 04 24             	mov    DWORD PTR [esp],eax
  407e9a:	e8 a1 94 ff ff       	call   401340 <_badboy>
  407e9f:	83 45 f4 01          	add    DWORD PTR [ebp-0xc],0x1
  407ea3:	c7 45 f0 62 00 00 00 	mov    DWORD PTR [ebp-0x10],0x62
  407eaa:	8b 55 f4             	mov    edx,DWORD PTR [ebp-0xc]
  407ead:	8b 45 08             	mov    eax,DWORD PTR [ebp+0x8]
  407eb0:	01 d0                	add    eax,edx
  407eb2:	0f b6 00             	movzx  eax,BYTE PTR [eax]
  407eb5:	83 f0 42             	xor    eax,0x42
  407eb8:	0f be c0             	movsx  eax,al
  407ebb:	3b 45 f0             	cmp    eax,DWORD PTR [ebp-0x10]
  407ebe:	74 0b                	je     407ecb <_check+0x69b7>
  407ec0:	8b 45 f4             	mov    eax,DWORD PTR [ebp-0xc]
  407ec3:	89 04 24             	mov    DWORD PTR [esp],eax
  407ec6:	e8 75 94 ff ff       	call   401340 <_badboy>
  407ecb:	83 45 f4 01          	add    DWORD PTR [ebp-0xc],0x1
  407ecf:	c7 45 f0 48 00 00 00 	mov    DWORD PTR [ebp-0x10],0x48
  407ed6:	8b 55 f4             	mov    edx,DWORD PTR [ebp-0xc]
  407ed9:	8b 45 08             	mov    eax,DWORD PTR [ebp+0x8]
  407edc:	01 d0                	add    eax,edx
  407ede:	0f b6 00             	movzx  eax,BYTE PTR [eax]
  407ee1:	83 f0 3a             	xor    eax,0x3a
  407ee4:	0f be c0             	movsx  eax,al
  407ee7:	3b 45 f0             	cmp    eax,DWORD PTR [ebp-0x10]
  407eea:	74 0b                	je     407ef7 <_check+0x69e3>
  407eec:	8b 45 f4             	mov    eax,DWORD PTR [ebp-0xc]
  407eef:	89 04 24             	mov    DWORD PTR [esp],eax
  407ef2:	e8 49 94 ff ff       	call   401340 <_badboy>
  407ef7:	83 45 f4 01          	add    DWORD PTR [ebp-0xc],0x1
  407efb:	c7 45 f0 ae 00 00 00 	mov    DWORD PTR [ebp-0x10],0xae
  407f02:	8b 55 f4             	mov    edx,DWORD PTR [ebp-0xc]
  407f05:	8b 45 08             	mov    eax,DWORD PTR [ebp+0x8]
  407f08:	01 d0                	add    eax,edx
  407f0a:	0f b6 00             	movzx  eax,BYTE PTR [eax]
  407f0d:	0f be c0             	movsx  eax,al
  407f10:	34 cb                	xor    al,0xcb
  407f12:	3b 45 f0             	cmp    eax,DWORD PTR [ebp-0x10]
  407f15:	74 0b                	je     407f22 <_check+0x6a0e>
  407f17:	8b 45 f4             	mov    eax,DWORD PTR [ebp-0xc]
  407f1a:	89 04 24             	mov    DWORD PTR [esp],eax
  407f1d:	e8 1e 94 ff ff       	call   401340 <_badboy>
  407f22:	83 45 f4 01          	add    DWORD PTR [ebp-0xc],0x1
  407f26:	c7 45 f0 e3 00 00 00 	mov    DWORD PTR [ebp-0x10],0xe3
  407f2d:	8b 55 f4             	mov    edx,DWORD PTR [ebp-0xc]
  407f30:	8b 45 08             	mov    eax,DWORD PTR [ebp+0x8]
  407f33:	01 d0                	add    eax,edx
  407f35:	0f b6 00             	movzx  eax,BYTE PTR [eax]
  407f38:	0f be c0             	movsx  eax,al
  407f3b:	34 82                	xor    al,0x82
  407f3d:	3b 45 f0             	cmp    eax,DWORD PTR [ebp-0x10]
  407f40:	74 0b                	je     407f4d <_check+0x6a39>
  407f42:	8b 45 f4             	mov    eax,DWORD PTR [ebp-0xc]
  407f45:	89 04 24             	mov    DWORD PTR [esp],eax
  407f48:	e8 f3 93 ff ff       	call   401340 <_badboy>
  407f4d:	83 45 f4 01          	add    DWORD PTR [ebp-0xc],0x1
  407f51:	c7 45 f0 65 00 00 00 	mov    DWORD PTR [ebp-0x10],0x65
  407f58:	8b 55 f4             	mov    edx,DWORD PTR [ebp-0xc]
  407f5b:	8b 45 08             	mov    eax,DWORD PTR [ebp+0x8]
  407f5e:	01 d0                	add    eax,edx
  407f60:	0f b6 00             	movzx  eax,BYTE PTR [eax]
  407f63:	83 f0 09             	xor    eax,0x9
  407f66:	0f be c0             	movsx  eax,al
  407f69:	3b 45 f0             	cmp    eax,DWORD PTR [ebp-0x10]
  407f6c:	74 0b                	je     407f79 <_check+0x6a65>
  407f6e:	8b 45 f4             	mov    eax,DWORD PTR [ebp-0xc]
  407f71:	89 04 24             	mov    DWORD PTR [esp],eax
  407f74:	e8 c7 93 ff ff       	call   401340 <_badboy>
  407f79:	83 45 f4 01          	add    DWORD PTR [ebp-0xc],0x1
  407f7d:	c7 45 f0 a0 00 00 00 	mov    DWORD PTR [ebp-0x10],0xa0
  407f84:	8b 55 f4             	mov    edx,DWORD PTR [ebp-0xc]
  407f87:	8b 45 08             	mov    eax,DWORD PTR [ebp+0x8]
  407f8a:	01 d0                	add    eax,edx
  407f8c:	0f b6 00             	movzx  eax,BYTE PTR [eax]
  407f8f:	0f be c0             	movsx  eax,al
  407f92:	34 cc                	xor    al,0xcc
  407f94:	3b 45 f0             	cmp    eax,DWORD PTR [ebp-0x10]
  407f97:	74 0b                	je     407fa4 <_check+0x6a90>
  407f99:	8b 45 f4             	mov    eax,DWORD PTR [ebp-0xc]
  407f9c:	89 04 24             	mov    DWORD PTR [esp],eax
  407f9f:	e8 9c 93 ff ff       	call   401340 <_badboy>
  407fa4:	83 45 f4 01          	add    DWORD PTR [ebp-0xc],0x1
  407fa8:	c7 45 f0 77 00 00 00 	mov    DWORD PTR [ebp-0x10],0x77
  407faf:	8b 55 f4             	mov    edx,DWORD PTR [ebp-0xc]
  407fb2:	8b 45 08             	mov    eax,DWORD PTR [ebp+0x8]
  407fb5:	01 d0                	add    eax,edx
  407fb7:	0f b6 00             	movzx  eax,BYTE PTR [eax]
  407fba:	83 f0 0e             	xor    eax,0xe
  407fbd:	0f be c0             	movsx  eax,al
  407fc0:	3b 45 f0             	cmp    eax,DWORD PTR [ebp-0x10]
  407fc3:	74 0b                	je     407fd0 <_check+0x6abc>
  407fc5:	8b 45 f4             	mov    eax,DWORD PTR [ebp-0xc]
  407fc8:	89 04 24             	mov    DWORD PTR [esp],eax
  407fcb:	e8 70 93 ff ff       	call   401340 <_badboy>
  407fd0:	83 45 f4 01          	add    DWORD PTR [ebp-0xc],0x1
  407fd4:	c7 45 f0 d5 00 00 00 	mov    DWORD PTR [ebp-0x10],0xd5
  407fdb:	8b 55 f4             	mov    edx,DWORD PTR [ebp-0xc]
  407fde:	8b 45 08             	mov    eax,DWORD PTR [ebp+0x8]
  407fe1:	01 d0                	add    eax,edx
  407fe3:	0f b6 00             	movzx  eax,BYTE PTR [eax]
  407fe6:	0f be c0             	movsx  eax,al
  407fe9:	34 f5                	xor    al,0xf5
  407feb:	3b 45 f0             	cmp    eax,DWORD PTR [ebp-0x10]
  407fee:	74 0b                	je     407ffb <_check+0x6ae7>
  407ff0:	8b 45 f4             	mov    eax,DWORD PTR [ebp-0xc]
  407ff3:	89 04 24             	mov    DWORD PTR [esp],eax
  407ff6:	e8 45 93 ff ff       	call   401340 <_badboy>
  407ffb:	83 45 f4 01          	add    DWORD PTR [ebp-0xc],0x1
  407fff:	c7 45 f0 10 00 00 00 	mov    DWORD PTR [ebp-0x10],0x10
  408006:	8b 55 f4             	mov    edx,DWORD PTR [ebp-0xc]
  408009:	8b 45 08             	mov    eax,DWORD PTR [ebp+0x8]
  40800c:	01 d0                	add    eax,edx
  40800e:	0f b6 00             	movzx  eax,BYTE PTR [eax]
  408011:	83 f0 77             	xor    eax,0x77
  408014:	0f be c0             	movsx  eax,al
  408017:	3b 45 f0             	cmp    eax,DWORD PTR [ebp-0x10]
  40801a:	74 0b                	je     408027 <_check+0x6b13>
  40801c:	8b 45 f4             	mov    eax,DWORD PTR [ebp-0xc]
  40801f:	89 04 24             	mov    DWORD PTR [esp],eax
  408022:	e8 19 93 ff ff       	call   401340 <_badboy>
  408027:	83 45 f4 01          	add    DWORD PTR [ebp-0xc],0x1
  40802b:	c7 45 f0 2d 00 00 00 	mov    DWORD PTR [ebp-0x10],0x2d
  408032:	8b 55 f4             	mov    edx,DWORD PTR [ebp-0xc]
  408035:	8b 45 08             	mov    eax,DWORD PTR [ebp+0x8]
  408038:	01 d0                	add    eax,edx
  40803a:	0f b6 00             	movzx  eax,BYTE PTR [eax]
  40803d:	83 f0 42             	xor    eax,0x42
  408040:	0f be c0             	movsx  eax,al
  408043:	3b 45 f0             	cmp    eax,DWORD PTR [ebp-0x10]
  408046:	74 0b                	je     408053 <_check+0x6b3f>
  408048:	8b 45 f4             	mov    eax,DWORD PTR [ebp-0xc]
  40804b:	89 04 24             	mov    DWORD PTR [esp],eax
  40804e:	e8 ed 92 ff ff       	call   401340 <_badboy>
  408053:	83 45 f4 01          	add    DWORD PTR [ebp-0xc],0x1
  408057:	c7 45 f0 f7 00 00 00 	mov    DWORD PTR [ebp-0x10],0xf7
  40805e:	8b 55 f4             	mov    edx,DWORD PTR [ebp-0xc]
  408061:	8b 45 08             	mov    eax,DWORD PTR [ebp+0x8]
  408064:	01 d0                	add    eax,edx
  408066:	0f b6 00             	movzx  eax,BYTE PTR [eax]
  408069:	0f be c0             	movsx  eax,al
  40806c:	34 98                	xor    al,0x98
  40806e:	3b 45 f0             	cmp    eax,DWORD PTR [ebp-0x10]
  408071:	74 0b                	je     40807e <_check+0x6b6a>
  408073:	8b 45 f4             	mov    eax,DWORD PTR [ebp-0xc]
  408076:	89 04 24             	mov    DWORD PTR [esp],eax
  408079:	e8 c2 92 ff ff       	call   401340 <_badboy>
  40807e:	83 45 f4 01          	add    DWORD PTR [ebp-0xc],0x1
  408082:	c7 45 f0 68 00 00 00 	mov    DWORD PTR [ebp-0x10],0x68
  408089:	8b 55 f4             	mov    edx,DWORD PTR [ebp-0xc]
  40808c:	8b 45 08             	mov    eax,DWORD PTR [ebp+0x8]
  40808f:	01 d0                	add    eax,edx
  408091:	0f b6 00             	movzx  eax,BYTE PTR [eax]
  408094:	83 f0 0c             	xor    eax,0xc
  408097:	0f be c0             	movsx  eax,al
  40809a:	3b 45 f0             	cmp    eax,DWORD PTR [ebp-0x10]
  40809d:	74 0b                	je     4080aa <_check+0x6b96>
  40809f:	8b 45 f4             	mov    eax,DWORD PTR [ebp-0xc]
  4080a2:	89 04 24             	mov    DWORD PTR [esp],eax
  4080a5:	e8 96 92 ff ff       	call   401340 <_badboy>
  4080aa:	83 45 f4 01          	add    DWORD PTR [ebp-0xc],0x1
  4080ae:	c7 45 f0 da 00 00 00 	mov    DWORD PTR [ebp-0x10],0xda
  4080b5:	8b 55 f4             	mov    edx,DWORD PTR [ebp-0xc]
  4080b8:	8b 45 08             	mov    eax,DWORD PTR [ebp+0x8]
  4080bb:	01 d0                	add    eax,edx
  4080bd:	0f b6 00             	movzx  eax,BYTE PTR [eax]
  4080c0:	0f be c0             	movsx  eax,al
  4080c3:	34 f4                	xor    al,0xf4
  4080c5:	3b 45 f0             	cmp    eax,DWORD PTR [ebp-0x10]
  4080c8:	74 0b                	je     4080d5 <_check+0x6bc1>
  4080ca:	8b 45 f4             	mov    eax,DWORD PTR [ebp-0xc]
  4080cd:	89 04 24             	mov    DWORD PTR [esp],eax
  4080d0:	e8 6b 92 ff ff       	call   401340 <_badboy>
  4080d5:	83 45 f4 01          	add    DWORD PTR [ebp-0xc],0x1
  4080d9:	c7 45 f0 2a 00 00 00 	mov    DWORD PTR [ebp-0x10],0x2a
  4080e0:	8b 55 f4             	mov    edx,DWORD PTR [ebp-0xc]
  4080e3:	8b 45 08             	mov    eax,DWORD PTR [ebp+0x8]
  4080e6:	01 d0                	add    eax,edx
  4080e8:	0f b6 00             	movzx  eax,BYTE PTR [eax]
  4080eb:	83 f0 20             	xor    eax,0x20
  4080ee:	0f be c0             	movsx  eax,al
  4080f1:	3b 45 f0             	cmp    eax,DWORD PTR [ebp-0x10]
  4080f4:	74 0b                	je     408101 <_check+0x6bed>
  4080f6:	8b 45 f4             	mov    eax,DWORD PTR [ebp-0xc]
  4080f9:	89 04 24             	mov    DWORD PTR [esp],eax
  4080fc:	e8 3f 92 ff ff       	call   401340 <_badboy>
  408101:	83 45 f4 01          	add    DWORD PTR [ebp-0xc],0x1
  408105:	c7 45 f0 f0 00 00 00 	mov    DWORD PTR [ebp-0x10],0xf0
  40810c:	8b 55 f4             	mov    edx,DWORD PTR [ebp-0xc]
  40810f:	8b 45 08             	mov    eax,DWORD PTR [ebp+0x8]
  408112:	01 d0                	add    eax,edx
  408114:	0f b6 00             	movzx  eax,BYTE PTR [eax]
  408117:	0f be c0             	movsx  eax,al
  40811a:	34 fa                	xor    al,0xfa
  40811c:	3b 45 f0             	cmp    eax,DWORD PTR [ebp-0x10]
  40811f:	74 0b                	je     40812c <_check+0x6c18>
  408121:	8b 45 f4             	mov    eax,DWORD PTR [ebp-0xc]
  408124:	89 04 24             	mov    DWORD PTR [esp],eax
  408127:	e8 14 92 ff ff       	call   401340 <_badboy>
  40812c:	83 45 f4 01          	add    DWORD PTR [ebp-0xc],0x1
  408130:	c7 45 f0 1b 00 00 00 	mov    DWORD PTR [ebp-0x10],0x1b
  408137:	8b 55 f4             	mov    edx,DWORD PTR [ebp-0xc]
  40813a:	8b 45 08             	mov    eax,DWORD PTR [ebp+0x8]
  40813d:	01 d0                	add    eax,edx
  40813f:	0f b6 00             	movzx  eax,BYTE PTR [eax]
  408142:	83 f0 4f             	xor    eax,0x4f
  408145:	0f be c0             	movsx  eax,al
  408148:	3b 45 f0             	cmp    eax,DWORD PTR [ebp-0x10]
  40814b:	74 0b                	je     408158 <_check+0x6c44>
  40814d:	8b 45 f4             	mov    eax,DWORD PTR [ebp-0xc]
  408150:	89 04 24             	mov    DWORD PTR [esp],eax
  408153:	e8 e8 91 ff ff       	call   401340 <_badboy>
  408158:	83 45 f4 01          	add    DWORD PTR [ebp-0xc],0x1
  40815c:	c7 45 f0 41 00 00 00 	mov    DWORD PTR [ebp-0x10],0x41
  408163:	8b 55 f4             	mov    edx,DWORD PTR [ebp-0xc]
  408166:	8b 45 08             	mov    eax,DWORD PTR [ebp+0x8]
  408169:	01 d0                	add    eax,edx
  40816b:	0f b6 00             	movzx  eax,BYTE PTR [eax]
  40816e:	83 f0 29             	xor    eax,0x29
  408171:	0f be c0             	movsx  eax,al
  408174:	3b 45 f0             	cmp    eax,DWORD PTR [ebp-0x10]
  408177:	74 0b                	je     408184 <_check+0x6c70>
  408179:	8b 45 f4             	mov    eax,DWORD PTR [ebp-0xc]
  40817c:	89 04 24             	mov    DWORD PTR [esp],eax
  40817f:	e8 bc 91 ff ff       	call   401340 <_badboy>
  408184:	83 45 f4 01          	add    DWORD PTR [ebp-0xc],0x1
  408188:	c7 45 f0 11 00 00 00 	mov    DWORD PTR [ebp-0x10],0x11
  40818f:	8b 55 f4             	mov    edx,DWORD PTR [ebp-0xc]
  408192:	8b 45 08             	mov    eax,DWORD PTR [ebp+0x8]
  408195:	01 d0                	add    eax,edx
  408197:	0f b6 00             	movzx  eax,BYTE PTR [eax]
  40819a:	83 f0 74             	xor    eax,0x74
  40819d:	0f be c0             	movsx  eax,al
  4081a0:	3b 45 f0             	cmp    eax,DWORD PTR [ebp-0x10]
  4081a3:	74 0b                	je     4081b0 <_check+0x6c9c>
  4081a5:	8b 45 f4             	mov    eax,DWORD PTR [ebp-0xc]
  4081a8:	89 04 24             	mov    DWORD PTR [esp],eax
  4081ab:	e8 90 91 ff ff       	call   401340 <_badboy>
  4081b0:	83 45 f4 01          	add    DWORD PTR [ebp-0xc],0x1
  4081b4:	c7 45 f0 1b 00 00 00 	mov    DWORD PTR [ebp-0x10],0x1b
  4081bb:	8b 55 f4             	mov    edx,DWORD PTR [ebp-0xc]
  4081be:	8b 45 08             	mov    eax,DWORD PTR [ebp+0x8]
  4081c1:	01 d0                	add    eax,edx
  4081c3:	0f b6 00             	movzx  eax,BYTE PTR [eax]
  4081c6:	83 f0 3b             	xor    eax,0x3b
  4081c9:	0f be c0             	movsx  eax,al
  4081cc:	3b 45 f0             	cmp    eax,DWORD PTR [ebp-0x10]
  4081cf:	74 0b                	je     4081dc <_check+0x6cc8>
  4081d1:	8b 45 f4             	mov    eax,DWORD PTR [ebp-0xc]
  4081d4:	89 04 24             	mov    DWORD PTR [esp],eax
  4081d7:	e8 64 91 ff ff       	call   401340 <_badboy>
  4081dc:	83 45 f4 01          	add    DWORD PTR [ebp-0xc],0x1
  4081e0:	c7 45 f0 af 00 00 00 	mov    DWORD PTR [ebp-0x10],0xaf
  4081e7:	8b 55 f4             	mov    edx,DWORD PTR [ebp-0xc]
  4081ea:	8b 45 08             	mov    eax,DWORD PTR [ebp+0x8]
  4081ed:	01 d0                	add    eax,edx
  4081ef:	0f b6 00             	movzx  eax,BYTE PTR [eax]
  4081f2:	0f be c0             	movsx  eax,al
  4081f5:	34 c9                	xor    al,0xc9
  4081f7:	3b 45 f0             	cmp    eax,DWORD PTR [ebp-0x10]
  4081fa:	74 0b                	je     408207 <_check+0x6cf3>
  4081fc:	8b 45 f4             	mov    eax,DWORD PTR [ebp-0xc]
  4081ff:	89 04 24             	mov    DWORD PTR [esp],eax
  408202:	e8 39 91 ff ff       	call   401340 <_badboy>
  408207:	83 45 f4 01          	add    DWORD PTR [ebp-0xc],0x1
  40820b:	c7 45 f0 97 00 00 00 	mov    DWORD PTR [ebp-0x10],0x97
  408212:	8b 55 f4             	mov    edx,DWORD PTR [ebp-0xc]
  408215:	8b 45 08             	mov    eax,DWORD PTR [ebp+0x8]
  408218:	01 d0                	add    eax,edx
  40821a:	0f b6 00             	movzx  eax,BYTE PTR [eax]
  40821d:	0f be c0             	movsx  eax,al
  408220:	34 fb                	xor    al,0xfb
  408222:	3b 45 f0             	cmp    eax,DWORD PTR [ebp-0x10]
  408225:	74 0b                	je     408232 <_check+0x6d1e>
  408227:	8b 45 f4             	mov    eax,DWORD PTR [ebp-0xc]
  40822a:	89 04 24             	mov    DWORD PTR [esp],eax
  40822d:	e8 0e 91 ff ff       	call   401340 <_badboy>
  408232:	83 45 f4 01          	add    DWORD PTR [ebp-0xc],0x1
  408236:	c7 45 f0 9e 00 00 00 	mov    DWORD PTR [ebp-0x10],0x9e
  40823d:	8b 55 f4             	mov    edx,DWORD PTR [ebp-0xc]
  408240:	8b 45 08             	mov    eax,DWORD PTR [ebp+0x8]
  408243:	01 d0                	add    eax,edx
  408245:	0f b6 00             	movzx  eax,BYTE PTR [eax]
  408248:	0f be c0             	movsx  eax,al
  40824b:	34 ff                	xor    al,0xff
  40824d:	3b 45 f0             	cmp    eax,DWORD PTR [ebp-0x10]
  408250:	74 0b                	je     40825d <_check+0x6d49>
  408252:	8b 45 f4             	mov    eax,DWORD PTR [ebp-0xc]
  408255:	89 04 24             	mov    DWORD PTR [esp],eax
  408258:	e8 e3 90 ff ff       	call   401340 <_badboy>
  40825d:	83 45 f4 01          	add    DWORD PTR [ebp-0xc],0x1
  408261:	c7 45 f0 13 00 00 00 	mov    DWORD PTR [ebp-0x10],0x13
  408268:	8b 55 f4             	mov    edx,DWORD PTR [ebp-0xc]
  40826b:	8b 45 08             	mov    eax,DWORD PTR [ebp+0x8]
  40826e:	01 d0                	add    eax,edx
  408270:	0f b6 00             	movzx  eax,BYTE PTR [eax]
  408273:	83 f0 74             	xor    eax,0x74
  408276:	0f be c0             	movsx  eax,al
  408279:	3b 45 f0             	cmp    eax,DWORD PTR [ebp-0x10]
  40827c:	74 0b                	je     408289 <_check+0x6d75>
  40827e:	8b 45 f4             	mov    eax,DWORD PTR [ebp-0xc]
  408281:	89 04 24             	mov    DWORD PTR [esp],eax
  408284:	e8 b7 90 ff ff       	call   401340 <_badboy>
  408289:	83 45 f4 01          	add    DWORD PTR [ebp-0xc],0x1
  40828d:	c7 45 f0 45 00 00 00 	mov    DWORD PTR [ebp-0x10],0x45
  408294:	8b 55 f4             	mov    edx,DWORD PTR [ebp-0xc]
  408297:	8b 45 08             	mov    eax,DWORD PTR [ebp+0x8]
  40829a:	01 d0                	add    eax,edx
  40829c:	0f b6 00             	movzx  eax,BYTE PTR [eax]
  40829f:	83 f0 65             	xor    eax,0x65
  4082a2:	0f be c0             	movsx  eax,al
  4082a5:	3b 45 f0             	cmp    eax,DWORD PTR [ebp-0x10]
  4082a8:	74 0b                	je     4082b5 <_check+0x6da1>
  4082aa:	8b 45 f4             	mov    eax,DWORD PTR [ebp-0xc]
  4082ad:	89 04 24             	mov    DWORD PTR [esp],eax
  4082b0:	e8 8b 90 ff ff       	call   401340 <_badboy>
  4082b5:	83 45 f4 01          	add    DWORD PTR [ebp-0xc],0x1
  4082b9:	c7 45 f0 71 00 00 00 	mov    DWORD PTR [ebp-0x10],0x71
  4082c0:	8b 55 f4             	mov    edx,DWORD PTR [ebp-0xc]
  4082c3:	8b 45 08             	mov    eax,DWORD PTR [ebp+0x8]
  4082c6:	01 d0                	add    eax,edx
  4082c8:	0f b6 00             	movzx  eax,BYTE PTR [eax]
  4082cb:	83 f0 17             	xor    eax,0x17
  4082ce:	0f be c0             	movsx  eax,al
  4082d1:	3b 45 f0             	cmp    eax,DWORD PTR [ebp-0x10]
  4082d4:	74 0b                	je     4082e1 <_check+0x6dcd>
  4082d6:	8b 45 f4             	mov    eax,DWORD PTR [ebp-0xc]
  4082d9:	89 04 24             	mov    DWORD PTR [esp],eax
  4082dc:	e8 5f 90 ff ff       	call   401340 <_badboy>
  4082e1:	83 45 f4 01          	add    DWORD PTR [ebp-0xc],0x1
  4082e5:	c7 45 f0 e5 00 00 00 	mov    DWORD PTR [ebp-0x10],0xe5
  4082ec:	8b 55 f4             	mov    edx,DWORD PTR [ebp-0xc]
  4082ef:	8b 45 08             	mov    eax,DWORD PTR [ebp+0x8]
  4082f2:	01 d0                	add    eax,edx
  4082f4:	0f b6 00             	movzx  eax,BYTE PTR [eax]
  4082f7:	0f be c0             	movsx  eax,al
  4082fa:	34 8a                	xor    al,0x8a
  4082fc:	3b 45 f0             	cmp    eax,DWORD PTR [ebp-0x10]
  4082ff:	74 0b                	je     40830c <_check+0x6df8>
  408301:	8b 45 f4             	mov    eax,DWORD PTR [ebp-0xc]
  408304:	89 04 24             	mov    DWORD PTR [esp],eax
  408307:	e8 34 90 ff ff       	call   401340 <_badboy>
  40830c:	83 45 f4 01          	add    DWORD PTR [ebp-0xc],0x1
  408310:	c7 45 f0 bc 00 00 00 	mov    DWORD PTR [ebp-0x10],0xbc
  408317:	8b 55 f4             	mov    edx,DWORD PTR [ebp-0xc]
  40831a:	8b 45 08             	mov    eax,DWORD PTR [ebp+0x8]
  40831d:	01 d0                	add    eax,edx
  40831f:	0f b6 00             	movzx  eax,BYTE PTR [eax]
  408322:	0f be c0             	movsx  eax,al
  408325:	34 ce                	xor    al,0xce
  408327:	3b 45 f0             	cmp    eax,DWORD PTR [ebp-0x10]
  40832a:	74 0b                	je     408337 <_check+0x6e23>
  40832c:	8b 45 f4             	mov    eax,DWORD PTR [ebp-0xc]
  40832f:	89 04 24             	mov    DWORD PTR [esp],eax
  408332:	e8 09 90 ff ff       	call   401340 <_badboy>
  408337:	83 45 f4 01          	add    DWORD PTR [ebp-0xc],0x1
  40833b:	c7 45 f0 bf 00 00 00 	mov    DWORD PTR [ebp-0x10],0xbf
  408342:	8b 55 f4             	mov    edx,DWORD PTR [ebp-0xc]
  408345:	8b 45 08             	mov    eax,DWORD PTR [ebp+0x8]
  408348:	01 d0                	add    eax,edx
  40834a:	0f b6 00             	movzx  eax,BYTE PTR [eax]
  40834d:	0f be c0             	movsx  eax,al
  408350:	34 9f                	xor    al,0x9f
  408352:	3b 45 f0             	cmp    eax,DWORD PTR [ebp-0x10]
  408355:	74 0b                	je     408362 <_check+0x6e4e>
  408357:	8b 45 f4             	mov    eax,DWORD PTR [ebp-0xc]
  40835a:	89 04 24             	mov    DWORD PTR [esp],eax
  40835d:	e8 de 8f ff ff       	call   401340 <_badboy>
  408362:	83 45 f4 01          	add    DWORD PTR [ebp-0xc],0x1
  408366:	c7 45 f0 a0 00 00 00 	mov    DWORD PTR [ebp-0x10],0xa0
  40836d:	8b 55 f4             	mov    edx,DWORD PTR [ebp-0xc]
  408370:	8b 45 08             	mov    eax,DWORD PTR [ebp+0x8]
  408373:	01 d0                	add    eax,edx
  408375:	0f b6 00             	movzx  eax,BYTE PTR [eax]
  408378:	0f be c0             	movsx  eax,al
  40837b:	34 d4                	xor    al,0xd4
  40837d:	3b 45 f0             	cmp    eax,DWORD PTR [ebp-0x10]
  408380:	74 0b                	je     40838d <_check+0x6e79>
  408382:	8b 45 f4             	mov    eax,DWORD PTR [ebp-0xc]
  408385:	89 04 24             	mov    DWORD PTR [esp],eax
  408388:	e8 b3 8f ff ff       	call   401340 <_badboy>
  40838d:	83 45 f4 01          	add    DWORD PTR [ebp-0xc],0x1
  408391:	c7 45 f0 3c 00 00 00 	mov    DWORD PTR [ebp-0x10],0x3c
  408398:	8b 55 f4             	mov    edx,DWORD PTR [ebp-0xc]
  40839b:	8b 45 08             	mov    eax,DWORD PTR [ebp+0x8]
  40839e:	01 d0                	add    eax,edx
  4083a0:	0f b6 00             	movzx  eax,BYTE PTR [eax]
  4083a3:	83 f0 54             	xor    eax,0x54
  4083a6:	0f be c0             	movsx  eax,al
  4083a9:	3b 45 f0             	cmp    eax,DWORD PTR [ebp-0x10]
  4083ac:	74 0b                	je     4083b9 <_check+0x6ea5>
  4083ae:	8b 45 f4             	mov    eax,DWORD PTR [ebp-0xc]
  4083b1:	89 04 24             	mov    DWORD PTR [esp],eax
  4083b4:	e8 87 8f ff ff       	call   401340 <_badboy>
  4083b9:	83 45 f4 01          	add    DWORD PTR [ebp-0xc],0x1
  4083bd:	c7 45 f0 a7 00 00 00 	mov    DWORD PTR [ebp-0x10],0xa7
  4083c4:	8b 55 f4             	mov    edx,DWORD PTR [ebp-0xc]
  4083c7:	8b 45 08             	mov    eax,DWORD PTR [ebp+0x8]
  4083ca:	01 d0                	add    eax,edx
  4083cc:	0f b6 00             	movzx  eax,BYTE PTR [eax]
  4083cf:	0f be c0             	movsx  eax,al
  4083d2:	34 ce                	xor    al,0xce
  4083d4:	3b 45 f0             	cmp    eax,DWORD PTR [ebp-0x10]
  4083d7:	74 0b                	je     4083e4 <_check+0x6ed0>
  4083d9:	8b 45 f4             	mov    eax,DWORD PTR [ebp-0xc]
  4083dc:	89 04 24             	mov    DWORD PTR [esp],eax
  4083df:	e8 5c 8f ff ff       	call   401340 <_badboy>
  4083e4:	83 45 f4 01          	add    DWORD PTR [ebp-0xc],0x1
  4083e8:	c7 45 f0 e1 00 00 00 	mov    DWORD PTR [ebp-0x10],0xe1
  4083ef:	8b 55 f4             	mov    edx,DWORD PTR [ebp-0xc]
  4083f2:	8b 45 08             	mov    eax,DWORD PTR [ebp+0x8]
  4083f5:	01 d0                	add    eax,edx
  4083f7:	0f b6 00             	movzx  eax,BYTE PTR [eax]
  4083fa:	0f be c0             	movsx  eax,al
  4083fd:	34 92                	xor    al,0x92
  4083ff:	3b 45 f0             	cmp    eax,DWORD PTR [ebp-0x10]
  408402:	74 0b                	je     40840f <_check+0x6efb>
  408404:	8b 45 f4             	mov    eax,DWORD PTR [ebp-0xc]
  408407:	89 04 24             	mov    DWORD PTR [esp],eax
  40840a:	e8 31 8f ff ff       	call   401340 <_badboy>
  40840f:	83 45 f4 01          	add    DWORD PTR [ebp-0xc],0x1
  408413:	c7 45 f0 ad 00 00 00 	mov    DWORD PTR [ebp-0x10],0xad
  40841a:	8b 55 f4             	mov    edx,DWORD PTR [ebp-0xc]
  40841d:	8b 45 08             	mov    eax,DWORD PTR [ebp+0x8]
  408420:	01 d0                	add    eax,edx
  408422:	0f b6 00             	movzx  eax,BYTE PTR [eax]
  408425:	0f be c0             	movsx  eax,al
  408428:	34 8d                	xor    al,0x8d
  40842a:	3b 45 f0             	cmp    eax,DWORD PTR [ebp-0x10]
  40842d:	74 0b                	je     40843a <_check+0x6f26>
  40842f:	8b 45 f4             	mov    eax,DWORD PTR [ebp-0xc]
  408432:	89 04 24             	mov    DWORD PTR [esp],eax
  408435:	e8 06 8f ff ff       	call   401340 <_badboy>
  40843a:	83 45 f4 01          	add    DWORD PTR [ebp-0xc],0x1
  40843e:	c7 45 f0 46 00 00 00 	mov    DWORD PTR [ebp-0x10],0x46
  408445:	8b 55 f4             	mov    edx,DWORD PTR [ebp-0xc]
  408448:	8b 45 08             	mov    eax,DWORD PTR [ebp+0x8]
  40844b:	01 d0                	add    eax,edx
  40844d:	0f b6 00             	movzx  eax,BYTE PTR [eax]
  408450:	83 f0 25             	xor    eax,0x25
  408453:	0f be c0             	movsx  eax,al
  408456:	3b 45 f0             	cmp    eax,DWORD PTR [ebp-0x10]
  408459:	74 0b                	je     408466 <_check+0x6f52>
  40845b:	8b 45 f4             	mov    eax,DWORD PTR [ebp-0xc]
  40845e:	89 04 24             	mov    DWORD PTR [esp],eax
  408461:	e8 da 8e ff ff       	call   401340 <_badboy>
  408466:	83 45 f4 01          	add    DWORD PTR [ebp-0xc],0x1
  40846a:	c7 45 f0 13 00 00 00 	mov    DWORD PTR [ebp-0x10],0x13
  408471:	8b 55 f4             	mov    edx,DWORD PTR [ebp-0xc]
  408474:	8b 45 08             	mov    eax,DWORD PTR [ebp+0x8]
  408477:	01 d0                	add    eax,edx
  408479:	0f b6 00             	movzx  eax,BYTE PTR [eax]
  40847c:	83 f0 7b             	xor    eax,0x7b
  40847f:	0f be c0             	movsx  eax,al
  408482:	3b 45 f0             	cmp    eax,DWORD PTR [ebp-0x10]
  408485:	74 0b                	je     408492 <_check+0x6f7e>
  408487:	8b 45 f4             	mov    eax,DWORD PTR [ebp-0xc]
  40848a:	89 04 24             	mov    DWORD PTR [esp],eax
  40848d:	e8 ae 8e ff ff       	call   401340 <_badboy>
  408492:	83 45 f4 01          	add    DWORD PTR [ebp-0xc],0x1
  408496:	c7 45 f0 9e 00 00 00 	mov    DWORD PTR [ebp-0x10],0x9e
  40849d:	8b 55 f4             	mov    edx,DWORD PTR [ebp-0xc]
  4084a0:	8b 45 08             	mov    eax,DWORD PTR [ebp+0x8]
  4084a3:	01 d0                	add    eax,edx
  4084a5:	0f b6 00             	movzx  eax,BYTE PTR [eax]
  4084a8:	0f be c0             	movsx  eax,al
  4084ab:	34 ff                	xor    al,0xff
  4084ad:	3b 45 f0             	cmp    eax,DWORD PTR [ebp-0x10]
  4084b0:	74 0b                	je     4084bd <_check+0x6fa9>
  4084b2:	8b 45 f4             	mov    eax,DWORD PTR [ebp-0xc]
  4084b5:	89 04 24             	mov    DWORD PTR [esp],eax
  4084b8:	e8 83 8e ff ff       	call   401340 <_badboy>
  4084bd:	83 45 f4 01          	add    DWORD PTR [ebp-0xc],0x1
  4084c1:	c7 45 f0 ca 00 00 00 	mov    DWORD PTR [ebp-0x10],0xca
  4084c8:	8b 55 f4             	mov    edx,DWORD PTR [ebp-0xc]
  4084cb:	8b 45 08             	mov    eax,DWORD PTR [ebp+0x8]
  4084ce:	01 d0                	add    eax,edx
  4084d0:	0f b6 00             	movzx  eax,BYTE PTR [eax]
  4084d3:	0f be c0             	movsx  eax,al
  4084d6:	34 a6                	xor    al,0xa6
  4084d8:	3b 45 f0             	cmp    eax,DWORD PTR [ebp-0x10]
  4084db:	74 0b                	je     4084e8 <_check+0x6fd4>
  4084dd:	8b 45 f4             	mov    eax,DWORD PTR [ebp-0xc]
  4084e0:	89 04 24             	mov    DWORD PTR [esp],eax
  4084e3:	e8 58 8e ff ff       	call   401340 <_badboy>
  4084e8:	83 45 f4 01          	add    DWORD PTR [ebp-0xc],0x1
  4084ec:	c7 45 f0 81 00 00 00 	mov    DWORD PTR [ebp-0x10],0x81
  4084f3:	8b 55 f4             	mov    edx,DWORD PTR [ebp-0xc]
  4084f6:	8b 45 08             	mov    eax,DWORD PTR [ebp+0x8]
  4084f9:	01 d0                	add    eax,edx
  4084fb:	0f b6 00             	movzx  eax,BYTE PTR [eax]
  4084fe:	0f be c0             	movsx  eax,al
  408501:	34 ed                	xor    al,0xed
  408503:	3b 45 f0             	cmp    eax,DWORD PTR [ebp-0x10]
  408506:	74 0b                	je     408513 <_check+0x6fff>
  408508:	8b 45 f4             	mov    eax,DWORD PTR [ebp-0xc]
  40850b:	89 04 24             	mov    DWORD PTR [esp],eax
  40850e:	e8 2d 8e ff ff       	call   401340 <_badboy>
  408513:	83 45 f4 01          	add    DWORD PTR [ebp-0xc],0x1
  408517:	c7 45 f0 4e 00 00 00 	mov    DWORD PTR [ebp-0x10],0x4e
  40851e:	8b 55 f4             	mov    edx,DWORD PTR [ebp-0xc]
  408521:	8b 45 08             	mov    eax,DWORD PTR [ebp+0x8]
  408524:	01 d0                	add    eax,edx
  408526:	0f b6 00             	movzx  eax,BYTE PTR [eax]
  408529:	83 f0 2b             	xor    eax,0x2b
  40852c:	0f be c0             	movsx  eax,al
  40852f:	3b 45 f0             	cmp    eax,DWORD PTR [ebp-0x10]
  408532:	74 0b                	je     40853f <_check+0x702b>
  408534:	8b 45 f4             	mov    eax,DWORD PTR [ebp-0xc]
  408537:	89 04 24             	mov    DWORD PTR [esp],eax
  40853a:	e8 01 8e ff ff       	call   401340 <_badboy>
  40853f:	83 45 f4 01          	add    DWORD PTR [ebp-0xc],0x1
  408543:	c7 45 f0 43 00 00 00 	mov    DWORD PTR [ebp-0x10],0x43
  40854a:	8b 55 f4             	mov    edx,DWORD PTR [ebp-0xc]
  40854d:	8b 45 08             	mov    eax,DWORD PTR [ebp+0x8]
  408550:	01 d0                	add    eax,edx
  408552:	0f b6 00             	movzx  eax,BYTE PTR [eax]
  408555:	83 f0 2d             	xor    eax,0x2d
  408558:	0f be c0             	movsx  eax,al
  40855b:	3b 45 f0             	cmp    eax,DWORD PTR [ebp-0x10]
  40855e:	74 0b                	je     40856b <_check+0x7057>
  408560:	8b 45 f4             	mov    eax,DWORD PTR [ebp-0xc]
  408563:	89 04 24             	mov    DWORD PTR [esp],eax
  408566:	e8 d5 8d ff ff       	call   401340 <_badboy>
  40856b:	83 45 f4 01          	add    DWORD PTR [ebp-0xc],0x1
  40856f:	c7 45 f0 37 00 00 00 	mov    DWORD PTR [ebp-0x10],0x37
  408576:	8b 55 f4             	mov    edx,DWORD PTR [ebp-0xc]
  408579:	8b 45 08             	mov    eax,DWORD PTR [ebp+0x8]
  40857c:	01 d0                	add    eax,edx
  40857e:	0f b6 00             	movzx  eax,BYTE PTR [eax]
  408581:	83 f0 50             	xor    eax,0x50
  408584:	0f be c0             	movsx  eax,al
  408587:	3b 45 f0             	cmp    eax,DWORD PTR [ebp-0x10]
  40858a:	74 0b                	je     408597 <_check+0x7083>
  40858c:	8b 45 f4             	mov    eax,DWORD PTR [ebp-0xc]
  40858f:	89 04 24             	mov    DWORD PTR [esp],eax
  408592:	e8 a9 8d ff ff       	call   401340 <_badboy>
  408597:	83 45 f4 01          	add    DWORD PTR [ebp-0xc],0x1
  40859b:	c7 45 f0 2b 00 00 00 	mov    DWORD PTR [ebp-0x10],0x2b
  4085a2:	8b 55 f4             	mov    edx,DWORD PTR [ebp-0xc]
  4085a5:	8b 45 08             	mov    eax,DWORD PTR [ebp+0x8]
  4085a8:	01 d0                	add    eax,edx
  4085aa:	0f b6 00             	movzx  eax,BYTE PTR [eax]
  4085ad:	83 f0 4e             	xor    eax,0x4e
  4085b0:	0f be c0             	movsx  eax,al
  4085b3:	3b 45 f0             	cmp    eax,DWORD PTR [ebp-0x10]
  4085b6:	74 0b                	je     4085c3 <_check+0x70af>
  4085b8:	8b 45 f4             	mov    eax,DWORD PTR [ebp-0xc]
  4085bb:	89 04 24             	mov    DWORD PTR [esp],eax
  4085be:	e8 7d 8d ff ff       	call   401340 <_badboy>
  4085c3:	83 45 f4 01          	add    DWORD PTR [ebp-0xc],0x1
  4085c7:	c7 45 f0 26 00 00 00 	mov    DWORD PTR [ebp-0x10],0x26
  4085ce:	8b 55 f4             	mov    edx,DWORD PTR [ebp-0xc]
  4085d1:	8b 45 08             	mov    eax,DWORD PTR [ebp+0x8]
  4085d4:	01 d0                	add    eax,edx
  4085d6:	0f b6 00             	movzx  eax,BYTE PTR [eax]
  4085d9:	83 f0 06             	xor    eax,0x6
  4085dc:	0f be c0             	movsx  eax,al
  4085df:	3b 45 f0             	cmp    eax,DWORD PTR [ebp-0x10]
  4085e2:	74 0b                	je     4085ef <_check+0x70db>
  4085e4:	8b 45 f4             	mov    eax,DWORD PTR [ebp-0xc]
  4085e7:	89 04 24             	mov    DWORD PTR [esp],eax
  4085ea:	e8 51 8d ff ff       	call   401340 <_badboy>
  4085ef:	83 45 f4 01          	add    DWORD PTR [ebp-0xc],0x1
  4085f3:	c7 45 f0 84 00 00 00 	mov    DWORD PTR [ebp-0x10],0x84
  4085fa:	8b 55 f4             	mov    edx,DWORD PTR [ebp-0xc]
  4085fd:	8b 45 08             	mov    eax,DWORD PTR [ebp+0x8]
  408600:	01 d0                	add    eax,edx
  408602:	0f b6 00             	movzx  eax,BYTE PTR [eax]
  408605:	0f be c0             	movsx  eax,al
  408608:	34 ed                	xor    al,0xed
  40860a:	3b 45 f0             	cmp    eax,DWORD PTR [ebp-0x10]
  40860d:	74 0b                	je     40861a <_check+0x7106>
  40860f:	8b 45 f4             	mov    eax,DWORD PTR [ebp-0xc]
  408612:	89 04 24             	mov    DWORD PTR [esp],eax
  408615:	e8 26 8d ff ff       	call   401340 <_badboy>
  40861a:	83 45 f4 01          	add    DWORD PTR [ebp-0xc],0x1
  40861e:	c7 45 f0 38 00 00 00 	mov    DWORD PTR [ebp-0x10],0x38
  408625:	8b 55 f4             	mov    edx,DWORD PTR [ebp-0xc]
  408628:	8b 45 08             	mov    eax,DWORD PTR [ebp+0x8]
  40862b:	01 d0                	add    eax,edx
  40862d:	0f b6 00             	movzx  eax,BYTE PTR [eax]
  408630:	83 f0 4b             	xor    eax,0x4b
  408633:	0f be c0             	movsx  eax,al
  408636:	3b 45 f0             	cmp    eax,DWORD PTR [ebp-0x10]
  408639:	74 0b                	je     408646 <_check+0x7132>
  40863b:	8b 45 f4             	mov    eax,DWORD PTR [ebp-0xc]
  40863e:	89 04 24             	mov    DWORD PTR [esp],eax
  408641:	e8 fa 8c ff ff       	call   401340 <_badboy>
  408646:	83 45 f4 01          	add    DWORD PTR [ebp-0xc],0x1
  40864a:	c7 45 f0 03 00 00 00 	mov    DWORD PTR [ebp-0x10],0x3
  408651:	8b 55 f4             	mov    edx,DWORD PTR [ebp-0xc]
  408654:	8b 45 08             	mov    eax,DWORD PTR [ebp+0x8]
  408657:	01 d0                	add    eax,edx
  408659:	0f b6 00             	movzx  eax,BYTE PTR [eax]
  40865c:	83 f0 23             	xor    eax,0x23
  40865f:	0f be c0             	movsx  eax,al
  408662:	3b 45 f0             	cmp    eax,DWORD PTR [ebp-0x10]
  408665:	74 0b                	je     408672 <_check+0x715e>
  408667:	8b 45 f4             	mov    eax,DWORD PTR [ebp-0xc]
  40866a:	89 04 24             	mov    DWORD PTR [esp],eax
  40866d:	e8 ce 8c ff ff       	call   401340 <_badboy>
  408672:	83 45 f4 01          	add    DWORD PTR [ebp-0xc],0x1
  408676:	c7 45 f0 bc 00 00 00 	mov    DWORD PTR [ebp-0x10],0xbc
  40867d:	8b 55 f4             	mov    edx,DWORD PTR [ebp-0xc]
  408680:	8b 45 08             	mov    eax,DWORD PTR [ebp+0x8]
  408683:	01 d0                	add    eax,edx
  408685:	0f b6 00             	movzx  eax,BYTE PTR [eax]
  408688:	0f be c0             	movsx  eax,al
  40868b:	34 9e                	xor    al,0x9e
  40868d:	3b 45 f0             	cmp    eax,DWORD PTR [ebp-0x10]
  408690:	74 0b                	je     40869d <_check+0x7189>
  408692:	8b 45 f4             	mov    eax,DWORD PTR [ebp-0xc]
  408695:	89 04 24             	mov    DWORD PTR [esp],eax
  408698:	e8 a3 8c ff ff       	call   401340 <_badboy>
  40869d:	83 45 f4 01          	add    DWORD PTR [ebp-0xc],0x1
  4086a1:	c7 45 f0 66 00 00 00 	mov    DWORD PTR [ebp-0x10],0x66
  4086a8:	8b 55 f4             	mov    edx,DWORD PTR [ebp-0xc]
  4086ab:	8b 45 08             	mov    eax,DWORD PTR [ebp+0x8]
  4086ae:	01 d0                	add    eax,edx
  4086b0:	0f b6 00             	movzx  eax,BYTE PTR [eax]
  4086b3:	83 f0 2f             	xor    eax,0x2f
  4086b6:	0f be c0             	movsx  eax,al
  4086b9:	3b 45 f0             	cmp    eax,DWORD PTR [ebp-0x10]
  4086bc:	74 0b                	je     4086c9 <_check+0x71b5>
  4086be:	8b 45 f4             	mov    eax,DWORD PTR [ebp-0xc]
  4086c1:	89 04 24             	mov    DWORD PTR [esp],eax
  4086c4:	e8 77 8c ff ff       	call   401340 <_badboy>
  4086c9:	83 45 f4 01          	add    DWORD PTR [ebp-0xc],0x1
  4086cd:	c7 45 f0 88 00 00 00 	mov    DWORD PTR [ebp-0x10],0x88
  4086d4:	8b 55 f4             	mov    edx,DWORD PTR [ebp-0xc]
  4086d7:	8b 45 08             	mov    eax,DWORD PTR [ebp+0x8]
  4086da:	01 d0                	add    eax,edx
  4086dc:	0f b6 00             	movzx  eax,BYTE PTR [eax]
  4086df:	0f be c0             	movsx  eax,al
  4086e2:	34 d7                	xor    al,0xd7
  4086e4:	3b 45 f0             	cmp    eax,DWORD PTR [ebp-0x10]
  4086e7:	74 0b                	je     4086f4 <_check+0x71e0>
  4086e9:	8b 45 f4             	mov    eax,DWORD PTR [ebp-0xc]
  4086ec:	89 04 24             	mov    DWORD PTR [esp],eax
  4086ef:	e8 4c 8c ff ff       	call   401340 <_badboy>
  4086f4:	83 45 f4 01          	add    DWORD PTR [ebp-0xc],0x1
  4086f8:	c7 45 f0 64 00 00 00 	mov    DWORD PTR [ebp-0x10],0x64
  4086ff:	8b 55 f4             	mov    edx,DWORD PTR [ebp-0xc]
  408702:	8b 45 08             	mov    eax,DWORD PTR [ebp+0x8]
  408705:	01 d0                	add    eax,edx
  408707:	0f b6 00             	movzx  eax,BYTE PTR [eax]
  40870a:	83 f0 16             	xor    eax,0x16
  40870d:	0f be c0             	movsx  eax,al
  408710:	3b 45 f0             	cmp    eax,DWORD PTR [ebp-0x10]
  408713:	74 0b                	je     408720 <_check+0x720c>
  408715:	8b 45 f4             	mov    eax,DWORD PTR [ebp-0xc]
  408718:	89 04 24             	mov    DWORD PTR [esp],eax
  40871b:	e8 20 8c ff ff       	call   401340 <_badboy>
  408720:	83 45 f4 01          	add    DWORD PTR [ebp-0xc],0x1
  408724:	c7 45 f0 ed 00 00 00 	mov    DWORD PTR [ebp-0x10],0xed
  40872b:	8b 55 f4             	mov    edx,DWORD PTR [ebp-0xc]
  40872e:	8b 45 08             	mov    eax,DWORD PTR [ebp+0x8]
  408731:	01 d0                	add    eax,edx
  408733:	0f b6 00             	movzx  eax,BYTE PTR [eax]
  408736:	0f be c0             	movsx  eax,al
  408739:	34 88                	xor    al,0x88
  40873b:	3b 45 f0             	cmp    eax,DWORD PTR [ebp-0x10]
  40873e:	74 0b                	je     40874b <_check+0x7237>
  408740:	8b 45 f4             	mov    eax,DWORD PTR [ebp-0xc]
  408743:	89 04 24             	mov    DWORD PTR [esp],eax
  408746:	e8 f5 8b ff ff       	call   401340 <_badboy>
  40874b:	83 45 f4 01          	add    DWORD PTR [ebp-0xc],0x1
  40874f:	c7 45 f0 37 00 00 00 	mov    DWORD PTR [ebp-0x10],0x37
  408756:	8b 55 f4             	mov    edx,DWORD PTR [ebp-0xc]
  408759:	8b 45 08             	mov    eax,DWORD PTR [ebp+0x8]
  40875c:	01 d0                	add    eax,edx
  40875e:	0f b6 00             	movzx  eax,BYTE PTR [eax]
  408761:	83 f0 41             	xor    eax,0x41
  408764:	0f be c0             	movsx  eax,al
  408767:	3b 45 f0             	cmp    eax,DWORD PTR [ebp-0x10]
  40876a:	74 0b                	je     408777 <_check+0x7263>
  40876c:	8b 45 f4             	mov    eax,DWORD PTR [ebp-0xc]
  40876f:	89 04 24             	mov    DWORD PTR [esp],eax
  408772:	e8 c9 8b ff ff       	call   401340 <_badboy>
  408777:	83 45 f4 01          	add    DWORD PTR [ebp-0xc],0x1
  40877b:	c7 45 f0 85 00 00 00 	mov    DWORD PTR [ebp-0x10],0x85
  408782:	8b 55 f4             	mov    edx,DWORD PTR [ebp-0xc]
  408785:	8b 45 08             	mov    eax,DWORD PTR [ebp+0x8]
  408788:	01 d0                	add    eax,edx
  40878a:	0f b6 00             	movzx  eax,BYTE PTR [eax]
  40878d:	0f be c0             	movsx  eax,al
  408790:	34 e0                	xor    al,0xe0
  408792:	3b 45 f0             	cmp    eax,DWORD PTR [ebp-0x10]
  408795:	74 0b                	je     4087a2 <_check+0x728e>
  408797:	8b 45 f4             	mov    eax,DWORD PTR [ebp-0xc]
  40879a:	89 04 24             	mov    DWORD PTR [esp],eax
  40879d:	e8 9e 8b ff ff       	call   401340 <_badboy>
  4087a2:	83 45 f4 01          	add    DWORD PTR [ebp-0xc],0x1
  4087a6:	c7 45 f0 b2 00 00 00 	mov    DWORD PTR [ebp-0x10],0xb2
  4087ad:	8b 55 f4             	mov    edx,DWORD PTR [ebp-0xc]
  4087b0:	8b 45 08             	mov    eax,DWORD PTR [ebp+0x8]
  4087b3:	01 d0                	add    eax,edx
  4087b5:	0f b6 00             	movzx  eax,BYTE PTR [eax]
  4087b8:	0f be c0             	movsx  eax,al
  4087bb:	34 c0                	xor    al,0xc0
  4087bd:	3b 45 f0             	cmp    eax,DWORD PTR [ebp-0x10]
  4087c0:	74 0b                	je     4087cd <_check+0x72b9>
  4087c2:	8b 45 f4             	mov    eax,DWORD PTR [ebp-0xc]
  4087c5:	89 04 24             	mov    DWORD PTR [esp],eax
  4087c8:	e8 73 8b ff ff       	call   401340 <_badboy>
  4087cd:	83 45 f4 01          	add    DWORD PTR [ebp-0xc],0x1
  4087d1:	c7 45 f0 cd 00 00 00 	mov    DWORD PTR [ebp-0x10],0xcd
  4087d8:	8b 55 f4             	mov    edx,DWORD PTR [ebp-0xc]
  4087db:	8b 45 08             	mov    eax,DWORD PTR [ebp+0x8]
  4087de:	01 d0                	add    eax,edx
  4087e0:	0f b6 00             	movzx  eax,BYTE PTR [eax]
  4087e3:	0f be c0             	movsx  eax,al
  4087e6:	34 be                	xor    al,0xbe
  4087e8:	3b 45 f0             	cmp    eax,DWORD PTR [ebp-0x10]
  4087eb:	74 0b                	je     4087f8 <_check+0x72e4>
  4087ed:	8b 45 f4             	mov    eax,DWORD PTR [ebp-0xc]
  4087f0:	89 04 24             	mov    DWORD PTR [esp],eax
  4087f3:	e8 48 8b ff ff       	call   401340 <_badboy>
  4087f8:	83 45 f4 01          	add    DWORD PTR [ebp-0xc],0x1
  4087fc:	c7 45 f0 b5 00 00 00 	mov    DWORD PTR [ebp-0x10],0xb5
  408803:	8b 55 f4             	mov    edx,DWORD PTR [ebp-0xc]
  408806:	8b 45 08             	mov    eax,DWORD PTR [ebp+0x8]
  408809:	01 d0                	add    eax,edx
  40880b:	0f b6 00             	movzx  eax,BYTE PTR [eax]
  40880e:	0f be c0             	movsx  eax,al
  408811:	34 d0                	xor    al,0xd0
  408813:	3b 45 f0             	cmp    eax,DWORD PTR [ebp-0x10]
  408816:	74 0b                	je     408823 <_check+0x730f>
  408818:	8b 45 f4             	mov    eax,DWORD PTR [ebp-0xc]
  40881b:	89 04 24             	mov    DWORD PTR [esp],eax
  40881e:	e8 1d 8b ff ff       	call   401340 <_badboy>
  408823:	83 45 f4 01          	add    DWORD PTR [ebp-0xc],0x1
  408827:	c7 45 f0 84 00 00 00 	mov    DWORD PTR [ebp-0x10],0x84
  40882e:	8b 55 f4             	mov    edx,DWORD PTR [ebp-0xc]
  408831:	8b 45 08             	mov    eax,DWORD PTR [ebp+0x8]
  408834:	01 d0                	add    eax,edx
  408836:	0f b6 00             	movzx  eax,BYTE PTR [eax]
  408839:	0f be c0             	movsx  eax,al
  40883c:	34 db                	xor    al,0xdb
  40883e:	3b 45 f0             	cmp    eax,DWORD PTR [ebp-0x10]
  408841:	74 0b                	je     40884e <_check+0x733a>
  408843:	8b 45 f4             	mov    eax,DWORD PTR [ebp-0xc]
  408846:	89 04 24             	mov    DWORD PTR [esp],eax
  408849:	e8 f2 8a ff ff       	call   401340 <_badboy>
  40884e:	83 45 f4 01          	add    DWORD PTR [ebp-0xc],0x1
  408852:	c7 45 f0 a8 00 00 00 	mov    DWORD PTR [ebp-0x10],0xa8
  408859:	8b 55 f4             	mov    edx,DWORD PTR [ebp-0xc]
  40885c:	8b 45 08             	mov    eax,DWORD PTR [ebp+0x8]
  40885f:	01 d0                	add    eax,edx
  408861:	0f b6 00             	movzx  eax,BYTE PTR [eax]
  408864:	0f be c0             	movsx  eax,al
  408867:	34 c9                	xor    al,0xc9
  408869:	3b 45 f0             	cmp    eax,DWORD PTR [ebp-0x10]
  40886c:	74 0b                	je     408879 <_check+0x7365>
  40886e:	8b 45 f4             	mov    eax,DWORD PTR [ebp-0xc]
  408871:	89 04 24             	mov    DWORD PTR [esp],eax
  408874:	e8 c7 8a ff ff       	call   401340 <_badboy>
  408879:	83 45 f4 01          	add    DWORD PTR [ebp-0xc],0x1
  40887d:	c7 45 f0 ca 00 00 00 	mov    DWORD PTR [ebp-0x10],0xca
  408884:	8b 55 f4             	mov    edx,DWORD PTR [ebp-0xc]
  408887:	8b 45 08             	mov    eax,DWORD PTR [ebp+0x8]
  40888a:	01 d0                	add    eax,edx
  40888c:	0f b6 00             	movzx  eax,BYTE PTR [eax]
  40888f:	0f be c0             	movsx  eax,al
  408892:	34 a6                	xor    al,0xa6
  408894:	3b 45 f0             	cmp    eax,DWORD PTR [ebp-0x10]
  408897:	74 0b                	je     4088a4 <_check+0x7390>
  408899:	8b 45 f4             	mov    eax,DWORD PTR [ebp-0xc]
  40889c:	89 04 24             	mov    DWORD PTR [esp],eax
  40889f:	e8 9c 8a ff ff       	call   401340 <_badboy>
  4088a4:	83 45 f4 01          	add    DWORD PTR [ebp-0xc],0x1
  4088a8:	c7 45 f0 3a 00 00 00 	mov    DWORD PTR [ebp-0x10],0x3a
  4088af:	8b 55 f4             	mov    edx,DWORD PTR [ebp-0xc]
  4088b2:	8b 45 08             	mov    eax,DWORD PTR [ebp+0x8]
  4088b5:	01 d0                	add    eax,edx
  4088b7:	0f b6 00             	movzx  eax,BYTE PTR [eax]
  4088ba:	83 f0 56             	xor    eax,0x56
  4088bd:	0f be c0             	movsx  eax,al
  4088c0:	3b 45 f0             	cmp    eax,DWORD PTR [ebp-0x10]
  4088c3:	74 0b                	je     4088d0 <_check+0x73bc>
  4088c5:	8b 45 f4             	mov    eax,DWORD PTR [ebp-0xc]
  4088c8:	89 04 24             	mov    DWORD PTR [esp],eax
  4088cb:	e8 70 8a ff ff       	call   401340 <_badboy>
  4088d0:	83 45 f4 01          	add    DWORD PTR [ebp-0xc],0x1
  4088d4:	c7 45 f0 36 00 00 00 	mov    DWORD PTR [ebp-0x10],0x36
  4088db:	8b 55 f4             	mov    edx,DWORD PTR [ebp-0xc]
  4088de:	8b 45 08             	mov    eax,DWORD PTR [ebp+0x8]
  4088e1:	01 d0                	add    eax,edx
  4088e3:	0f b6 00             	movzx  eax,BYTE PTR [eax]
  4088e6:	83 f0 69             	xor    eax,0x69
  4088e9:	0f be c0             	movsx  eax,al
  4088ec:	3b 45 f0             	cmp    eax,DWORD PTR [ebp-0x10]
  4088ef:	74 0b                	je     4088fc <_check+0x73e8>
  4088f1:	8b 45 f4             	mov    eax,DWORD PTR [ebp-0xc]
  4088f4:	89 04 24             	mov    DWORD PTR [esp],eax
  4088f7:	e8 44 8a ff ff       	call   401340 <_badboy>
  4088fc:	83 45 f4 01          	add    DWORD PTR [ebp-0xc],0x1
  408900:	c7 45 f0 22 00 00 00 	mov    DWORD PTR [ebp-0x10],0x22
  408907:	8b 55 f4             	mov    edx,DWORD PTR [ebp-0xc]
  40890a:	8b 45 08             	mov    eax,DWORD PTR [ebp+0x8]
  40890d:	01 d0                	add    eax,edx
  40890f:	0f b6 00             	movzx  eax,BYTE PTR [eax]
  408912:	83 f0 56             	xor    eax,0x56
  408915:	0f be c0             	movsx  eax,al
  408918:	3b 45 f0             	cmp    eax,DWORD PTR [ebp-0x10]
  40891b:	74 0b                	je     408928 <_check+0x7414>
  40891d:	8b 45 f4             	mov    eax,DWORD PTR [ebp-0xc]
  408920:	89 04 24             	mov    DWORD PTR [esp],eax
  408923:	e8 18 8a ff ff       	call   401340 <_badboy>
  408928:	83 45 f4 01          	add    DWORD PTR [ebp-0xc],0x1
  40892c:	c7 45 f0 02 00 00 00 	mov    DWORD PTR [ebp-0x10],0x2
  408933:	8b 55 f4             	mov    edx,DWORD PTR [ebp-0xc]
  408936:	8b 45 08             	mov    eax,DWORD PTR [ebp+0x8]
  408939:	01 d0                	add    eax,edx
  40893b:	0f b6 00             	movzx  eax,BYTE PTR [eax]
  40893e:	83 f0 6a             	xor    eax,0x6a
  408941:	0f be c0             	movsx  eax,al
  408944:	3b 45 f0             	cmp    eax,DWORD PTR [ebp-0x10]
  408947:	74 0b                	je     408954 <_check+0x7440>
  408949:	8b 45 f4             	mov    eax,DWORD PTR [ebp-0xc]
  40894c:	89 04 24             	mov    DWORD PTR [esp],eax
  40894f:	e8 ec 89 ff ff       	call   401340 <_badboy>
  408954:	83 45 f4 01          	add    DWORD PTR [ebp-0xc],0x1
  408958:	c7 45 f0 4a 00 00 00 	mov    DWORD PTR [ebp-0x10],0x4a
  40895f:	8b 55 f4             	mov    edx,DWORD PTR [ebp-0xc]
  408962:	8b 45 08             	mov    eax,DWORD PTR [ebp+0x8]
  408965:	01 d0                	add    eax,edx
  408967:	0f b6 00             	movzx  eax,BYTE PTR [eax]
  40896a:	83 f0 23             	xor    eax,0x23
  40896d:	0f be c0             	movsx  eax,al
  408970:	3b 45 f0             	cmp    eax,DWORD PTR [ebp-0x10]
  408973:	74 0b                	je     408980 <_check+0x746c>
  408975:	8b 45 f4             	mov    eax,DWORD PTR [ebp-0xc]
  408978:	89 04 24             	mov    DWORD PTR [esp],eax
  40897b:	e8 c0 89 ff ff       	call   401340 <_badboy>
  408980:	83 45 f4 01          	add    DWORD PTR [ebp-0xc],0x1
  408984:	c7 45 f0 a2 00 00 00 	mov    DWORD PTR [ebp-0x10],0xa2
  40898b:	8b 55 f4             	mov    edx,DWORD PTR [ebp-0xc]
  40898e:	8b 45 08             	mov    eax,DWORD PTR [ebp+0x8]
  408991:	01 d0                	add    eax,edx
  408993:	0f b6 00             	movzx  eax,BYTE PTR [eax]
  408996:	0f be c0             	movsx  eax,al
  408999:	34 d1                	xor    al,0xd1
  40899b:	3b 45 f0             	cmp    eax,DWORD PTR [ebp-0x10]
  40899e:	74 0b                	je     4089ab <_check+0x7497>
  4089a0:	8b 45 f4             	mov    eax,DWORD PTR [ebp-0xc]
  4089a3:	89 04 24             	mov    DWORD PTR [esp],eax
  4089a6:	e8 95 89 ff ff       	call   401340 <_badboy>
  4089ab:	83 45 f4 01          	add    DWORD PTR [ebp-0xc],0x1
  4089af:	c7 45 f0 1d 00 00 00 	mov    DWORD PTR [ebp-0x10],0x1d
  4089b6:	8b 55 f4             	mov    edx,DWORD PTR [ebp-0xc]
  4089b9:	8b 45 08             	mov    eax,DWORD PTR [ebp+0x8]
  4089bc:	01 d0                	add    eax,edx
  4089be:	0f b6 00             	movzx  eax,BYTE PTR [eax]
  4089c1:	83 f0 42             	xor    eax,0x42
  4089c4:	0f be c0             	movsx  eax,al
  4089c7:	3b 45 f0             	cmp    eax,DWORD PTR [ebp-0x10]
  4089ca:	74 0b                	je     4089d7 <_check+0x74c3>
  4089cc:	8b 45 f4             	mov    eax,DWORD PTR [ebp-0xc]
  4089cf:	89 04 24             	mov    DWORD PTR [esp],eax
  4089d2:	e8 69 89 ff ff       	call   401340 <_badboy>
  4089d7:	83 45 f4 01          	add    DWORD PTR [ebp-0xc],0x1
  4089db:	c7 45 f0 22 00 00 00 	mov    DWORD PTR [ebp-0x10],0x22
  4089e2:	8b 55 f4             	mov    edx,DWORD PTR [ebp-0xc]
  4089e5:	8b 45 08             	mov    eax,DWORD PTR [ebp+0x8]
  4089e8:	01 d0                	add    eax,edx
  4089ea:	0f b6 00             	movzx  eax,BYTE PTR [eax]
  4089ed:	83 f0 43             	xor    eax,0x43
  4089f0:	0f be c0             	movsx  eax,al
  4089f3:	3b 45 f0             	cmp    eax,DWORD PTR [ebp-0x10]
  4089f6:	74 0b                	je     408a03 <_check+0x74ef>
  4089f8:	8b 45 f4             	mov    eax,DWORD PTR [ebp-0xc]
  4089fb:	89 04 24             	mov    DWORD PTR [esp],eax
  4089fe:	e8 3d 89 ff ff       	call   401340 <_badboy>
  408a03:	83 45 f4 01          	add    DWORD PTR [ebp-0xc],0x1
  408a07:	c7 45 f0 d4 00 00 00 	mov    DWORD PTR [ebp-0x10],0xd4
  408a0e:	8b 55 f4             	mov    edx,DWORD PTR [ebp-0xc]
  408a11:	8b 45 08             	mov    eax,DWORD PTR [ebp+0x8]
  408a14:	01 d0                	add    eax,edx
  408a16:	0f b6 00             	movzx  eax,BYTE PTR [eax]
  408a19:	0f be c0             	movsx  eax,al
  408a1c:	34 ba                	xor    al,0xba
  408a1e:	3b 45 f0             	cmp    eax,DWORD PTR [ebp-0x10]
  408a21:	74 0b                	je     408a2e <_check+0x751a>
  408a23:	8b 45 f4             	mov    eax,DWORD PTR [ebp-0xc]
  408a26:	89 04 24             	mov    DWORD PTR [esp],eax
  408a29:	e8 12 89 ff ff       	call   401340 <_badboy>
  408a2e:	83 45 f4 01          	add    DWORD PTR [ebp-0xc],0x1
  408a32:	c7 45 f0 d5 00 00 00 	mov    DWORD PTR [ebp-0x10],0xd5
  408a39:	8b 55 f4             	mov    edx,DWORD PTR [ebp-0xc]
  408a3c:	8b 45 08             	mov    eax,DWORD PTR [ebp+0x8]
  408a3f:	01 d0                	add    eax,edx
  408a41:	0f b6 00             	movzx  eax,BYTE PTR [eax]
  408a44:	0f be c0             	movsx  eax,al
  408a47:	34 b1                	xor    al,0xb1
  408a49:	3b 45 f0             	cmp    eax,DWORD PTR [ebp-0x10]
  408a4c:	74 0b                	je     408a59 <_check+0x7545>
  408a4e:	8b 45 f4             	mov    eax,DWORD PTR [ebp-0xc]
  408a51:	89 04 24             	mov    DWORD PTR [esp],eax
  408a54:	e8 e7 88 ff ff       	call   401340 <_badboy>
  408a59:	83 45 f4 01          	add    DWORD PTR [ebp-0xc],0x1
  408a5d:	c7 45 f0 11 00 00 00 	mov    DWORD PTR [ebp-0x10],0x11
  408a64:	8b 55 f4             	mov    edx,DWORD PTR [ebp-0xc]
  408a67:	8b 45 08             	mov    eax,DWORD PTR [ebp+0x8]
  408a6a:	01 d0                	add    eax,edx
  408a6c:	0f b6 00             	movzx  eax,BYTE PTR [eax]
  408a6f:	83 f0 4e             	xor    eax,0x4e
  408a72:	0f be c0             	movsx  eax,al
  408a75:	3b 45 f0             	cmp    eax,DWORD PTR [ebp-0x10]
  408a78:	74 0b                	je     408a85 <_check+0x7571>
  408a7a:	8b 45 f4             	mov    eax,DWORD PTR [ebp-0xc]
  408a7d:	89 04 24             	mov    DWORD PTR [esp],eax
  408a80:	e8 bb 88 ff ff       	call   401340 <_badboy>
  408a85:	83 45 f4 01          	add    DWORD PTR [ebp-0xc],0x1
  408a89:	c7 45 f0 40 00 00 00 	mov    DWORD PTR [ebp-0x10],0x40
  408a90:	8b 55 f4             	mov    edx,DWORD PTR [ebp-0xc]
  408a93:	8b 45 08             	mov    eax,DWORD PTR [ebp+0x8]
  408a96:	01 d0                	add    eax,edx
  408a98:	0f b6 00             	movzx  eax,BYTE PTR [eax]
  408a9b:	83 f0 21             	xor    eax,0x21
  408a9e:	0f be c0             	movsx  eax,al
  408aa1:	3b 45 f0             	cmp    eax,DWORD PTR [ebp-0x10]
  408aa4:	74 0b                	je     408ab1 <_check+0x759d>
  408aa6:	8b 45 f4             	mov    eax,DWORD PTR [ebp-0xc]
  408aa9:	89 04 24             	mov    DWORD PTR [esp],eax
  408aac:	e8 8f 88 ff ff       	call   401340 <_badboy>
  408ab1:	83 45 f4 01          	add    DWORD PTR [ebp-0xc],0x1
  408ab5:	c7 45 f0 d9 00 00 00 	mov    DWORD PTR [ebp-0x10],0xd9
  408abc:	8b 55 f4             	mov    edx,DWORD PTR [ebp-0xc]
  408abf:	8b 45 08             	mov    eax,DWORD PTR [ebp+0x8]
  408ac2:	01 d0                	add    eax,edx
  408ac4:	0f b6 00             	movzx  eax,BYTE PTR [eax]
  408ac7:	0f be c0             	movsx  eax,al
  408aca:	34 b5                	xor    al,0xb5
  408acc:	3b 45 f0             	cmp    eax,DWORD PTR [ebp-0x10]
  408acf:	74 0b                	je     408adc <_check+0x75c8>
  408ad1:	8b 45 f4             	mov    eax,DWORD PTR [ebp-0xc]
  408ad4:	89 04 24             	mov    DWORD PTR [esp],eax
  408ad7:	e8 64 88 ff ff       	call   401340 <_badboy>
  408adc:	83 45 f4 01          	add    DWORD PTR [ebp-0xc],0x1
  408ae0:	c7 45 f0 19 00 00 00 	mov    DWORD PTR [ebp-0x10],0x19
  408ae7:	8b 55 f4             	mov    edx,DWORD PTR [ebp-0xc]
  408aea:	8b 45 08             	mov    eax,DWORD PTR [ebp+0x8]
  408aed:	01 d0                	add    eax,edx
  408aef:	0f b6 00             	movzx  eax,BYTE PTR [eax]
  408af2:	83 f0 75             	xor    eax,0x75
  408af5:	0f be c0             	movsx  eax,al
  408af8:	3b 45 f0             	cmp    eax,DWORD PTR [ebp-0x10]
  408afb:	74 0b                	je     408b08 <_check+0x75f4>
  408afd:	8b 45 f4             	mov    eax,DWORD PTR [ebp-0xc]
  408b00:	89 04 24             	mov    DWORD PTR [esp],eax
  408b03:	e8 38 88 ff ff       	call   401340 <_badboy>
  408b08:	83 45 f4 01          	add    DWORD PTR [ebp-0xc],0x1
  408b0c:	c7 45 f0 b1 00 00 00 	mov    DWORD PTR [ebp-0x10],0xb1
  408b13:	8b 55 f4             	mov    edx,DWORD PTR [ebp-0xc]
  408b16:	8b 45 08             	mov    eax,DWORD PTR [ebp+0x8]
  408b19:	01 d0                	add    eax,edx
  408b1b:	0f b6 00             	movzx  eax,BYTE PTR [eax]
  408b1e:	0f be c0             	movsx  eax,al
  408b21:	34 ee                	xor    al,0xee
  408b23:	3b 45 f0             	cmp    eax,DWORD PTR [ebp-0x10]
  408b26:	74 0b                	je     408b33 <_check+0x761f>
  408b28:	8b 45 f4             	mov    eax,DWORD PTR [ebp-0xc]
  408b2b:	89 04 24             	mov    DWORD PTR [esp],eax
  408b2e:	e8 0d 88 ff ff       	call   401340 <_badboy>
  408b33:	83 45 f4 01          	add    DWORD PTR [ebp-0xc],0x1
  408b37:	c7 45 f0 61 00 00 00 	mov    DWORD PTR [ebp-0x10],0x61
  408b3e:	8b 55 f4             	mov    edx,DWORD PTR [ebp-0xc]
  408b41:	8b 45 08             	mov    eax,DWORD PTR [ebp+0x8]
  408b44:	01 d0                	add    eax,edx
  408b46:	0f b6 00             	movzx  eax,BYTE PTR [eax]
  408b49:	83 f0 28             	xor    eax,0x28
  408b4c:	0f be c0             	movsx  eax,al
  408b4f:	3b 45 f0             	cmp    eax,DWORD PTR [ebp-0x10]
  408b52:	74 0b                	je     408b5f <_check+0x764b>
  408b54:	8b 45 f4             	mov    eax,DWORD PTR [ebp-0xc]
  408b57:	89 04 24             	mov    DWORD PTR [esp],eax
  408b5a:	e8 e1 87 ff ff       	call   401340 <_badboy>
  408b5f:	83 45 f4 01          	add    DWORD PTR [ebp-0xc],0x1
  408b63:	c7 45 f0 f3 00 00 00 	mov    DWORD PTR [ebp-0x10],0xf3
  408b6a:	8b 55 f4             	mov    edx,DWORD PTR [ebp-0xc]
  408b6d:	8b 45 08             	mov    eax,DWORD PTR [ebp+0x8]
  408b70:	01 d0                	add    eax,edx
  408b72:	0f b6 00             	movzx  eax,BYTE PTR [eax]
  408b75:	0f be c0             	movsx  eax,al
  408b78:	34 ac                	xor    al,0xac
  408b7a:	3b 45 f0             	cmp    eax,DWORD PTR [ebp-0x10]
  408b7d:	74 0b                	je     408b8a <_check+0x7676>
  408b7f:	8b 45 f4             	mov    eax,DWORD PTR [ebp-0xc]
  408b82:	89 04 24             	mov    DWORD PTR [esp],eax
  408b85:	e8 b6 87 ff ff       	call   401340 <_badboy>
  408b8a:	83 45 f4 01          	add    DWORD PTR [ebp-0xc],0x1
  408b8e:	c7 45 f0 78 00 00 00 	mov    DWORD PTR [ebp-0x10],0x78
  408b95:	8b 55 f4             	mov    edx,DWORD PTR [ebp-0xc]
  408b98:	8b 45 08             	mov    eax,DWORD PTR [ebp+0x8]
  408b9b:	01 d0                	add    eax,edx
  408b9d:	0f b6 00             	movzx  eax,BYTE PTR [eax]
  408ba0:	83 f0 1f             	xor    eax,0x1f
  408ba3:	0f be c0             	movsx  eax,al
  408ba6:	3b 45 f0             	cmp    eax,DWORD PTR [ebp-0x10]
  408ba9:	74 0b                	je     408bb6 <_check+0x76a2>
  408bab:	8b 45 f4             	mov    eax,DWORD PTR [ebp-0xc]
  408bae:	89 04 24             	mov    DWORD PTR [esp],eax
  408bb1:	e8 8a 87 ff ff       	call   401340 <_badboy>
  408bb6:	83 45 f4 01          	add    DWORD PTR [ebp-0xc],0x1
  408bba:	c7 45 f0 98 00 00 00 	mov    DWORD PTR [ebp-0x10],0x98
  408bc1:	8b 55 f4             	mov    edx,DWORD PTR [ebp-0xc]
  408bc4:	8b 45 08             	mov    eax,DWORD PTR [ebp+0x8]
  408bc7:	01 d0                	add    eax,edx
  408bc9:	0f b6 00             	movzx  eax,BYTE PTR [eax]
  408bcc:	0f be c0             	movsx  eax,al
  408bcf:	34 f7                	xor    al,0xf7
  408bd1:	3b 45 f0             	cmp    eax,DWORD PTR [ebp-0x10]
  408bd4:	74 0b                	je     408be1 <_check+0x76cd>
  408bd6:	8b 45 f4             	mov    eax,DWORD PTR [ebp-0xc]
  408bd9:	89 04 24             	mov    DWORD PTR [esp],eax
  408bdc:	e8 5f 87 ff ff       	call   401340 <_badboy>
  408be1:	83 45 f4 01          	add    DWORD PTR [ebp-0xc],0x1
  408be5:	c7 45 f0 e7 00 00 00 	mov    DWORD PTR [ebp-0x10],0xe7
  408bec:	8b 55 f4             	mov    edx,DWORD PTR [ebp-0xc]
  408bef:	8b 45 08             	mov    eax,DWORD PTR [ebp+0x8]
  408bf2:	01 d0                	add    eax,edx
  408bf4:	0f b6 00             	movzx  eax,BYTE PTR [eax]
  408bf7:	0f be c0             	movsx  eax,al
  408bfa:	34 93                	xor    al,0x93
  408bfc:	3b 45 f0             	cmp    eax,DWORD PTR [ebp-0x10]
  408bff:	74 0b                	je     408c0c <_check+0x76f8>
  408c01:	8b 45 f4             	mov    eax,DWORD PTR [ebp-0xc]
  408c04:	89 04 24             	mov    DWORD PTR [esp],eax
  408c07:	e8 34 87 ff ff       	call   401340 <_badboy>
  408c0c:	83 45 f4 01          	add    DWORD PTR [ebp-0xc],0x1
  408c10:	c7 45 f0 c0 00 00 00 	mov    DWORD PTR [ebp-0x10],0xc0
  408c17:	8b 55 f4             	mov    edx,DWORD PTR [ebp-0xc]
  408c1a:	8b 45 08             	mov    eax,DWORD PTR [ebp+0x8]
  408c1d:	01 d0                	add    eax,edx
  408c1f:	0f b6 00             	movzx  eax,BYTE PTR [eax]
  408c22:	0f be c0             	movsx  eax,al
  408c25:	34 9f                	xor    al,0x9f
  408c27:	3b 45 f0             	cmp    eax,DWORD PTR [ebp-0x10]
  408c2a:	74 0b                	je     408c37 <_check+0x7723>
  408c2c:	8b 45 f4             	mov    eax,DWORD PTR [ebp-0xc]
  408c2f:	89 04 24             	mov    DWORD PTR [esp],eax
  408c32:	e8 09 87 ff ff       	call   401340 <_badboy>
  408c37:	83 45 f4 01          	add    DWORD PTR [ebp-0xc],0x1
  408c3b:	c7 45 f0 c8 00 00 00 	mov    DWORD PTR [ebp-0x10],0xc8
  408c42:	8b 55 f4             	mov    edx,DWORD PTR [ebp-0xc]
  408c45:	8b 45 08             	mov    eax,DWORD PTR [ebp+0x8]
  408c48:	01 d0                	add    eax,edx
  408c4a:	0f b6 00             	movzx  eax,BYTE PTR [eax]
  408c4d:	0f be c0             	movsx  eax,al
  408c50:	34 a1                	xor    al,0xa1
  408c52:	3b 45 f0             	cmp    eax,DWORD PTR [ebp-0x10]
  408c55:	74 0b                	je     408c62 <_check+0x774e>
  408c57:	8b 45 f4             	mov    eax,DWORD PTR [ebp-0xc]
  408c5a:	89 04 24             	mov    DWORD PTR [esp],eax
  408c5d:	e8 de 86 ff ff       	call   401340 <_badboy>
  408c62:	83 45 f4 01          	add    DWORD PTR [ebp-0xc],0x1
  408c66:	c7 45 f0 96 00 00 00 	mov    DWORD PTR [ebp-0x10],0x96
  408c6d:	8b 55 f4             	mov    edx,DWORD PTR [ebp-0xc]
  408c70:	8b 45 08             	mov    eax,DWORD PTR [ebp+0x8]
  408c73:	01 d0                	add    eax,edx
  408c75:	0f b6 00             	movzx  eax,BYTE PTR [eax]
  408c78:	0f be c0             	movsx  eax,al
  408c7b:	34 e5                	xor    al,0xe5
  408c7d:	3b 45 f0             	cmp    eax,DWORD PTR [ebp-0x10]
  408c80:	74 0b                	je     408c8d <_check+0x7779>
  408c82:	8b 45 f4             	mov    eax,DWORD PTR [ebp-0xc]
  408c85:	89 04 24             	mov    DWORD PTR [esp],eax
  408c88:	e8 b3 86 ff ff       	call   401340 <_badboy>
  408c8d:	83 45 f4 01          	add    DWORD PTR [ebp-0xc],0x1
  408c91:	c7 45 f0 32 00 00 00 	mov    DWORD PTR [ebp-0x10],0x32
  408c98:	8b 55 f4             	mov    edx,DWORD PTR [ebp-0xc]
  408c9b:	8b 45 08             	mov    eax,DWORD PTR [ebp+0x8]
  408c9e:	01 d0                	add    eax,edx
  408ca0:	0f b6 00             	movzx  eax,BYTE PTR [eax]
  408ca3:	83 f0 6d             	xor    eax,0x6d
  408ca6:	0f be c0             	movsx  eax,al
  408ca9:	3b 45 f0             	cmp    eax,DWORD PTR [ebp-0x10]
  408cac:	74 0b                	je     408cb9 <_check+0x77a5>
  408cae:	8b 45 f4             	mov    eax,DWORD PTR [ebp-0xc]
  408cb1:	89 04 24             	mov    DWORD PTR [esp],eax
  408cb4:	e8 87 86 ff ff       	call   401340 <_badboy>
  408cb9:	83 45 f4 01          	add    DWORD PTR [ebp-0xc],0x1
  408cbd:	c7 45 f0 29 00 00 00 	mov    DWORD PTR [ebp-0x10],0x29
  408cc4:	8b 55 f4             	mov    edx,DWORD PTR [ebp-0xc]
  408cc7:	8b 45 08             	mov    eax,DWORD PTR [ebp+0x8]
  408cca:	01 d0                	add    eax,edx
  408ccc:	0f b6 00             	movzx  eax,BYTE PTR [eax]
  408ccf:	83 f0 5d             	xor    eax,0x5d
  408cd2:	0f be c0             	movsx  eax,al
  408cd5:	3b 45 f0             	cmp    eax,DWORD PTR [ebp-0x10]
  408cd8:	74 0b                	je     408ce5 <_check+0x77d1>
  408cda:	8b 45 f4             	mov    eax,DWORD PTR [ebp-0xc]
  408cdd:	89 04 24             	mov    DWORD PTR [esp],eax
  408ce0:	e8 5b 86 ff ff       	call   401340 <_badboy>
  408ce5:	83 45 f4 01          	add    DWORD PTR [ebp-0xc],0x1
  408ce9:	c7 45 f0 0b 00 00 00 	mov    DWORD PTR [ebp-0x10],0xb
  408cf0:	8b 55 f4             	mov    edx,DWORD PTR [ebp-0xc]
  408cf3:	8b 45 08             	mov    eax,DWORD PTR [ebp+0x8]
  408cf6:	01 d0                	add    eax,edx
  408cf8:	0f b6 00             	movzx  eax,BYTE PTR [eax]
  408cfb:	83 f0 63             	xor    eax,0x63
  408cfe:	0f be c0             	movsx  eax,al
  408d01:	3b 45 f0             	cmp    eax,DWORD PTR [ebp-0x10]
  408d04:	74 0b                	je     408d11 <_check+0x77fd>
  408d06:	8b 45 f4             	mov    eax,DWORD PTR [ebp-0xc]
  408d09:	89 04 24             	mov    DWORD PTR [esp],eax
  408d0c:	e8 2f 86 ff ff       	call   401340 <_badboy>
  408d11:	83 45 f4 01          	add    DWORD PTR [ebp-0xc],0x1
  408d15:	c7 45 f0 a4 00 00 00 	mov    DWORD PTR [ebp-0x10],0xa4
  408d1c:	8b 55 f4             	mov    edx,DWORD PTR [ebp-0xc]
  408d1f:	8b 45 08             	mov    eax,DWORD PTR [ebp+0x8]
  408d22:	01 d0                	add    eax,edx
  408d24:	0f b6 00             	movzx  eax,BYTE PTR [eax]
  408d27:	0f be c0             	movsx  eax,al
  408d2a:	34 cd                	xor    al,0xcd
  408d2c:	3b 45 f0             	cmp    eax,DWORD PTR [ebp-0x10]
  408d2f:	74 0b                	je     408d3c <_check+0x7828>
  408d31:	8b 45 f4             	mov    eax,DWORD PTR [ebp-0xc]
  408d34:	89 04 24             	mov    DWORD PTR [esp],eax
  408d37:	e8 04 86 ff ff       	call   401340 <_badboy>
  408d3c:	83 45 f4 01          	add    DWORD PTR [ebp-0xc],0x1
  408d40:	c7 45 f0 de 00 00 00 	mov    DWORD PTR [ebp-0x10],0xde
  408d47:	8b 55 f4             	mov    edx,DWORD PTR [ebp-0xc]
  408d4a:	8b 45 08             	mov    eax,DWORD PTR [ebp+0x8]
  408d4d:	01 d0                	add    eax,edx
  408d4f:	0f b6 00             	movzx  eax,BYTE PTR [eax]
  408d52:	0f be c0             	movsx  eax,al
  408d55:	34 ad                	xor    al,0xad
  408d57:	3b 45 f0             	cmp    eax,DWORD PTR [ebp-0x10]
  408d5a:	74 0b                	je     408d67 <_check+0x7853>
  408d5c:	8b 45 f4             	mov    eax,DWORD PTR [ebp-0xc]
  408d5f:	89 04 24             	mov    DWORD PTR [esp],eax
  408d62:	e8 d9 85 ff ff       	call   401340 <_badboy>
  408d67:	83 45 f4 01          	add    DWORD PTR [ebp-0xc],0x1
  408d6b:	c7 45 f0 c9 00 00 00 	mov    DWORD PTR [ebp-0x10],0xc9
  408d72:	8b 55 f4             	mov    edx,DWORD PTR [ebp-0xc]
  408d75:	8b 45 08             	mov    eax,DWORD PTR [ebp+0x8]
  408d78:	01 d0                	add    eax,edx
  408d7a:	0f b6 00             	movzx  eax,BYTE PTR [eax]
  408d7d:	0f be c0             	movsx  eax,al
  408d80:	34 96                	xor    al,0x96
  408d82:	3b 45 f0             	cmp    eax,DWORD PTR [ebp-0x10]
  408d85:	74 0b                	je     408d92 <_check+0x787e>
  408d87:	8b 45 f4             	mov    eax,DWORD PTR [ebp-0xc]
  408d8a:	89 04 24             	mov    DWORD PTR [esp],eax
  408d8d:	e8 ae 85 ff ff       	call   401340 <_badboy>
  408d92:	83 45 f4 01          	add    DWORD PTR [ebp-0xc],0x1
  408d96:	c7 45 f0 0b 00 00 00 	mov    DWORD PTR [ebp-0x10],0xb
  408d9d:	8b 55 f4             	mov    edx,DWORD PTR [ebp-0xc]
  408da0:	8b 45 08             	mov    eax,DWORD PTR [ebp+0x8]
  408da3:	01 d0                	add    eax,edx
  408da5:	0f b6 00             	movzx  eax,BYTE PTR [eax]
  408da8:	83 f0 6d             	xor    eax,0x6d
  408dab:	0f be c0             	movsx  eax,al
  408dae:	3b 45 f0             	cmp    eax,DWORD PTR [ebp-0x10]
  408db1:	74 0b                	je     408dbe <_check+0x78aa>
  408db3:	8b 45 f4             	mov    eax,DWORD PTR [ebp-0xc]
  408db6:	89 04 24             	mov    DWORD PTR [esp],eax
  408db9:	e8 82 85 ff ff       	call   401340 <_badboy>
  408dbe:	83 45 f4 01          	add    DWORD PTR [ebp-0xc],0x1
  408dc2:	c7 45 f0 22 00 00 00 	mov    DWORD PTR [ebp-0x10],0x22
  408dc9:	8b 55 f4             	mov    edx,DWORD PTR [ebp-0xc]
  408dcc:	8b 45 08             	mov    eax,DWORD PTR [ebp+0x8]
  408dcf:	01 d0                	add    eax,edx
  408dd1:	0f b6 00             	movzx  eax,BYTE PTR [eax]
  408dd4:	83 f0 4e             	xor    eax,0x4e
  408dd7:	0f be c0             	movsx  eax,al
  408dda:	3b 45 f0             	cmp    eax,DWORD PTR [ebp-0x10]
  408ddd:	74 0b                	je     408dea <_check+0x78d6>
  408ddf:	8b 45 f4             	mov    eax,DWORD PTR [ebp-0xc]
  408de2:	89 04 24             	mov    DWORD PTR [esp],eax
  408de5:	e8 56 85 ff ff       	call   401340 <_badboy>
  408dea:	83 45 f4 01          	add    DWORD PTR [ebp-0xc],0x1
  408dee:	c7 45 f0 64 00 00 00 	mov    DWORD PTR [ebp-0x10],0x64
  408df5:	8b 55 f4             	mov    edx,DWORD PTR [ebp-0xc]
  408df8:	8b 45 08             	mov    eax,DWORD PTR [ebp+0x8]
  408dfb:	01 d0                	add    eax,edx
  408dfd:	0f b6 00             	movzx  eax,BYTE PTR [eax]
  408e00:	83 f0 05             	xor    eax,0x5
  408e03:	0f be c0             	movsx  eax,al
  408e06:	3b 45 f0             	cmp    eax,DWORD PTR [ebp-0x10]
  408e09:	74 0b                	je     408e16 <_check+0x7902>
  408e0b:	8b 45 f4             	mov    eax,DWORD PTR [ebp-0xc]
  408e0e:	89 04 24             	mov    DWORD PTR [esp],eax
  408e11:	e8 2a 85 ff ff       	call   401340 <_badboy>
  408e16:	83 45 f4 01          	add    DWORD PTR [ebp-0xc],0x1
  408e1a:	c7 45 f0 d1 00 00 00 	mov    DWORD PTR [ebp-0x10],0xd1
  408e21:	8b 55 f4             	mov    edx,DWORD PTR [ebp-0xc]
  408e24:	8b 45 08             	mov    eax,DWORD PTR [ebp+0x8]
  408e27:	01 d0                	add    eax,edx
  408e29:	0f b6 00             	movzx  eax,BYTE PTR [eax]
  408e2c:	0f be c0             	movsx  eax,al
  408e2f:	34 b6                	xor    al,0xb6
  408e31:	3b 45 f0             	cmp    eax,DWORD PTR [ebp-0x10]
  408e34:	74 0b                	je     408e41 <_check+0x792d>
  408e36:	8b 45 f4             	mov    eax,DWORD PTR [ebp-0xc]
  408e39:	89 04 24             	mov    DWORD PTR [esp],eax
  408e3c:	e8 ff 84 ff ff       	call   401340 <_badboy>
  408e41:	83 45 f4 01          	add    DWORD PTR [ebp-0xc],0x1
  408e45:	c7 45 f0 dc 00 00 00 	mov    DWORD PTR [ebp-0x10],0xdc
  408e4c:	8b 55 f4             	mov    edx,DWORD PTR [ebp-0xc]
  408e4f:	8b 45 08             	mov    eax,DWORD PTR [ebp+0x8]
  408e52:	01 d0                	add    eax,edx
  408e54:	0f b6 00             	movzx  eax,BYTE PTR [eax]
  408e57:	0f be c0             	movsx  eax,al
  408e5a:	34 fe                	xor    al,0xfe
  408e5c:	3b 45 f0             	cmp    eax,DWORD PTR [ebp-0x10]
  408e5f:	74 0b                	je     408e6c <_check+0x7958>
  408e61:	8b 45 f4             	mov    eax,DWORD PTR [ebp-0xc]
  408e64:	89 04 24             	mov    DWORD PTR [esp],eax
  408e67:	e8 d4 84 ff ff       	call   401340 <_badboy>
  408e6c:	83 45 f4 01          	add    DWORD PTR [ebp-0xc],0x1
  408e70:	c7 45 f0 17 00 00 00 	mov    DWORD PTR [ebp-0x10],0x17
  408e77:	8b 55 f4             	mov    edx,DWORD PTR [ebp-0xc]
  408e7a:	8b 45 08             	mov    eax,DWORD PTR [ebp+0x8]
  408e7d:	01 d0                	add    eax,edx
  408e7f:	0f b6 00             	movzx  eax,BYTE PTR [eax]
  408e82:	83 f0 37             	xor    eax,0x37
  408e85:	0f be c0             	movsx  eax,al
  408e88:	3b 45 f0             	cmp    eax,DWORD PTR [ebp-0x10]
  408e8b:	74 0b                	je     408e98 <_check+0x7984>
  408e8d:	8b 45 f4             	mov    eax,DWORD PTR [ebp-0xc]
  408e90:	89 04 24             	mov    DWORD PTR [esp],eax
  408e93:	e8 a8 84 ff ff       	call   401340 <_badboy>
  408e98:	83 45 f4 01          	add    DWORD PTR [ebp-0xc],0x1
  408e9c:	c7 45 f0 bd 00 00 00 	mov    DWORD PTR [ebp-0x10],0xbd
  408ea3:	8b 55 f4             	mov    edx,DWORD PTR [ebp-0xc]
  408ea6:	8b 45 08             	mov    eax,DWORD PTR [ebp+0x8]
  408ea9:	01 d0                	add    eax,edx
  408eab:	0f b6 00             	movzx  eax,BYTE PTR [eax]
  408eae:	0f be c0             	movsx  eax,al
  408eb1:	34 ca                	xor    al,0xca
  408eb3:	3b 45 f0             	cmp    eax,DWORD PTR [ebp-0x10]
  408eb6:	74 0b                	je     408ec3 <_check+0x79af>
  408eb8:	8b 45 f4             	mov    eax,DWORD PTR [ebp-0xc]
  408ebb:	89 04 24             	mov    DWORD PTR [esp],eax
  408ebe:	e8 7d 84 ff ff       	call   401340 <_badboy>
  408ec3:	83 45 f4 01          	add    DWORD PTR [ebp-0xc],0x1
  408ec7:	c7 45 f0 4f 00 00 00 	mov    DWORD PTR [ebp-0x10],0x4f
  408ece:	8b 55 f4             	mov    edx,DWORD PTR [ebp-0xc]
  408ed1:	8b 45 08             	mov    eax,DWORD PTR [ebp+0x8]
  408ed4:	01 d0                	add    eax,edx
  408ed6:	0f b6 00             	movzx  eax,BYTE PTR [eax]
  408ed9:	83 f0 26             	xor    eax,0x26
  408edc:	0f be c0             	movsx  eax,al
  408edf:	3b 45 f0             	cmp    eax,DWORD PTR [ebp-0x10]
  408ee2:	74 0b                	je     408eef <_check+0x79db>
  408ee4:	8b 45 f4             	mov    eax,DWORD PTR [ebp-0xc]
  408ee7:	89 04 24             	mov    DWORD PTR [esp],eax
  408eea:	e8 51 84 ff ff       	call   401340 <_badboy>
  408eef:	83 45 f4 01          	add    DWORD PTR [ebp-0xc],0x1
  408ef3:	c7 45 f0 22 00 00 00 	mov    DWORD PTR [ebp-0x10],0x22
  408efa:	8b 55 f4             	mov    edx,DWORD PTR [ebp-0xc]
  408efd:	8b 45 08             	mov    eax,DWORD PTR [ebp+0x8]
  408f00:	01 d0                	add    eax,edx
  408f02:	0f b6 00             	movzx  eax,BYTE PTR [eax]
  408f05:	83 f0 56             	xor    eax,0x56
  408f08:	0f be c0             	movsx  eax,al
  408f0b:	3b 45 f0             	cmp    eax,DWORD PTR [ebp-0x10]
  408f0e:	74 0b                	je     408f1b <_check+0x7a07>
  408f10:	8b 45 f4             	mov    eax,DWORD PTR [ebp-0xc]
  408f13:	89 04 24             	mov    DWORD PTR [esp],eax
  408f16:	e8 25 84 ff ff       	call   401340 <_badboy>
  408f1b:	83 45 f4 01          	add    DWORD PTR [ebp-0xc],0x1
  408f1f:	c7 45 f0 f0 00 00 00 	mov    DWORD PTR [ebp-0x10],0xf0
  408f26:	8b 55 f4             	mov    edx,DWORD PTR [ebp-0xc]
  408f29:	8b 45 08             	mov    eax,DWORD PTR [ebp+0x8]
  408f2c:	01 d0                	add    eax,edx
  408f2e:	0f b6 00             	movzx  eax,BYTE PTR [eax]
  408f31:	0f be c0             	movsx  eax,al
  408f34:	34 98                	xor    al,0x98
  408f36:	3b 45 f0             	cmp    eax,DWORD PTR [ebp-0x10]
  408f39:	74 0b                	je     408f46 <_check+0x7a32>
  408f3b:	8b 45 f4             	mov    eax,DWORD PTR [ebp-0xc]
  408f3e:	89 04 24             	mov    DWORD PTR [esp],eax
  408f41:	e8 fa 83 ff ff       	call   401340 <_badboy>
  408f46:	83 45 f4 01          	add    DWORD PTR [ebp-0xc],0x1
  408f4a:	c7 45 f0 04 00 00 00 	mov    DWORD PTR [ebp-0x10],0x4
  408f51:	8b 55 f4             	mov    edx,DWORD PTR [ebp-0xc]
  408f54:	8b 45 08             	mov    eax,DWORD PTR [ebp+0x8]
  408f57:	01 d0                	add    eax,edx
  408f59:	0f b6 00             	movzx  eax,BYTE PTR [eax]
  408f5c:	83 f0 6b             	xor    eax,0x6b
  408f5f:	0f be c0             	movsx  eax,al
  408f62:	3b 45 f0             	cmp    eax,DWORD PTR [ebp-0x10]
  408f65:	74 0b                	je     408f72 <_check+0x7a5e>
  408f67:	8b 45 f4             	mov    eax,DWORD PTR [ebp-0xc]
  408f6a:	89 04 24             	mov    DWORD PTR [esp],eax
  408f6d:	e8 ce 83 ff ff       	call   401340 <_badboy>
  408f72:	83 45 f4 01          	add    DWORD PTR [ebp-0xc],0x1
  408f76:	c7 45 f0 2f 00 00 00 	mov    DWORD PTR [ebp-0x10],0x2f
  408f7d:	8b 55 f4             	mov    edx,DWORD PTR [ebp-0xc]
  408f80:	8b 45 08             	mov    eax,DWORD PTR [ebp+0x8]
  408f83:	01 d0                	add    eax,edx
  408f85:	0f b6 00             	movzx  eax,BYTE PTR [eax]
  408f88:	83 f0 5a             	xor    eax,0x5a
  408f8b:	0f be c0             	movsx  eax,al
  408f8e:	3b 45 f0             	cmp    eax,DWORD PTR [ebp-0x10]
  408f91:	74 0b                	je     408f9e <_check+0x7a8a>
  408f93:	8b 45 f4             	mov    eax,DWORD PTR [ebp-0xc]
  408f96:	89 04 24             	mov    DWORD PTR [esp],eax
  408f99:	e8 a2 83 ff ff       	call   401340 <_badboy>
  408f9e:	83 45 f4 01          	add    DWORD PTR [ebp-0xc],0x1
  408fa2:	c7 45 f0 b3 00 00 00 	mov    DWORD PTR [ebp-0x10],0xb3
  408fa9:	8b 55 f4             	mov    edx,DWORD PTR [ebp-0xc]
  408fac:	8b 45 08             	mov    eax,DWORD PTR [ebp+0x8]
  408faf:	01 d0                	add    eax,edx
  408fb1:	0f b6 00             	movzx  eax,BYTE PTR [eax]
  408fb4:	0f be c0             	movsx  eax,al
  408fb7:	34 c7                	xor    al,0xc7
  408fb9:	3b 45 f0             	cmp    eax,DWORD PTR [ebp-0x10]
  408fbc:	74 0b                	je     408fc9 <_check+0x7ab5>
  408fbe:	8b 45 f4             	mov    eax,DWORD PTR [ebp-0xc]
  408fc1:	89 04 24             	mov    DWORD PTR [esp],eax
  408fc4:	e8 77 83 ff ff       	call   401340 <_badboy>
  408fc9:	83 45 f4 01          	add    DWORD PTR [ebp-0xc],0x1
  408fcd:	c7 45 f0 c3 00 00 00 	mov    DWORD PTR [ebp-0x10],0xc3
  408fd4:	8b 55 f4             	mov    edx,DWORD PTR [ebp-0xc]
  408fd7:	8b 45 08             	mov    eax,DWORD PTR [ebp+0x8]
  408fda:	01 d0                	add    eax,edx
  408fdc:	0f b6 00             	movzx  eax,BYTE PTR [eax]
  408fdf:	0f be c0             	movsx  eax,al
  408fe2:	34 e3                	xor    al,0xe3
  408fe4:	3b 45 f0             	cmp    eax,DWORD PTR [ebp-0x10]
  408fe7:	74 0b                	je     408ff4 <_check+0x7ae0>
  408fe9:	8b 45 f4             	mov    eax,DWORD PTR [ebp-0xc]
  408fec:	89 04 24             	mov    DWORD PTR [esp],eax
  408fef:	e8 4c 83 ff ff       	call   401340 <_badboy>
  408ff4:	83 45 f4 01          	add    DWORD PTR [ebp-0xc],0x1
  408ff8:	c7 45 f0 b2 00 00 00 	mov    DWORD PTR [ebp-0x10],0xb2
  408fff:	8b 55 f4             	mov    edx,DWORD PTR [ebp-0xc]
  409002:	8b 45 08             	mov    eax,DWORD PTR [ebp+0x8]
  409005:	01 d0                	add    eax,edx
  409007:	0f b6 00             	movzx  eax,BYTE PTR [eax]
  40900a:	0f be c0             	movsx  eax,al
  40900d:	34 c6                	xor    al,0xc6
  40900f:	3b 45 f0             	cmp    eax,DWORD PTR [ebp-0x10]
  409012:	74 0b                	je     40901f <_check+0x7b0b>
  409014:	8b 45 f4             	mov    eax,DWORD PTR [ebp-0xc]
  409017:	89 04 24             	mov    DWORD PTR [esp],eax
  40901a:	e8 21 83 ff ff       	call   401340 <_badboy>
  40901f:	83 45 f4 01          	add    DWORD PTR [ebp-0xc],0x1
  409023:	c7 45 f0 e3 00 00 00 	mov    DWORD PTR [ebp-0x10],0xe3
  40902a:	8b 55 f4             	mov    edx,DWORD PTR [ebp-0xc]
  40902d:	8b 45 08             	mov    eax,DWORD PTR [ebp+0x8]
  409030:	01 d0                	add    eax,edx
  409032:	0f b6 00             	movzx  eax,BYTE PTR [eax]
  409035:	0f be c0             	movsx  eax,al
  409038:	34 8b                	xor    al,0x8b
  40903a:	3b 45 f0             	cmp    eax,DWORD PTR [ebp-0x10]
  40903d:	74 0b                	je     40904a <_check+0x7b36>
  40903f:	8b 45 f4             	mov    eax,DWORD PTR [ebp-0xc]
  409042:	89 04 24             	mov    DWORD PTR [esp],eax
  409045:	e8 f6 82 ff ff       	call   401340 <_badboy>
  40904a:	83 45 f4 01          	add    DWORD PTR [ebp-0xc],0x1
  40904e:	c7 45 f0 c5 00 00 00 	mov    DWORD PTR [ebp-0x10],0xc5
  409055:	8b 55 f4             	mov    edx,DWORD PTR [ebp-0xc]
  409058:	8b 45 08             	mov    eax,DWORD PTR [ebp+0x8]
  40905b:	01 d0                	add    eax,edx
  40905d:	0f b6 00             	movzx  eax,BYTE PTR [eax]
  409060:	0f be c0             	movsx  eax,al
  409063:	34 a0                	xor    al,0xa0
  409065:	3b 45 f0             	cmp    eax,DWORD PTR [ebp-0x10]
  409068:	74 0b                	je     409075 <_check+0x7b61>
  40906a:	8b 45 f4             	mov    eax,DWORD PTR [ebp-0xc]
  40906d:	89 04 24             	mov    DWORD PTR [esp],eax
  409070:	e8 cb 82 ff ff       	call   401340 <_badboy>
  409075:	83 45 f4 01          	add    DWORD PTR [ebp-0xc],0x1
  409079:	c7 45 f0 b2 00 00 00 	mov    DWORD PTR [ebp-0x10],0xb2
  409080:	8b 55 f4             	mov    edx,DWORD PTR [ebp-0xc]
  409083:	8b 45 08             	mov    eax,DWORD PTR [ebp+0x8]
  409086:	01 d0                	add    eax,edx
  409088:	0f b6 00             	movzx  eax,BYTE PTR [eax]
  40908b:	0f be c0             	movsx  eax,al
  40908e:	34 92                	xor    al,0x92
  409090:	3b 45 f0             	cmp    eax,DWORD PTR [ebp-0x10]
  409093:	74 0b                	je     4090a0 <_check+0x7b8c>
  409095:	8b 45 f4             	mov    eax,DWORD PTR [ebp-0xc]
  409098:	89 04 24             	mov    DWORD PTR [esp],eax
  40909b:	e8 a0 82 ff ff       	call   401340 <_badboy>
  4090a0:	83 45 f4 01          	add    DWORD PTR [ebp-0xc],0x1
  4090a4:	c7 45 f0 3c 00 00 00 	mov    DWORD PTR [ebp-0x10],0x3c
  4090ab:	8b 55 f4             	mov    edx,DWORD PTR [ebp-0xc]
  4090ae:	8b 45 08             	mov    eax,DWORD PTR [ebp+0x8]
  4090b1:	01 d0                	add    eax,edx
  4090b3:	0f b6 00             	movzx  eax,BYTE PTR [eax]
  4090b6:	83 f0 4d             	xor    eax,0x4d
  4090b9:	0f be c0             	movsx  eax,al
  4090bc:	3b 45 f0             	cmp    eax,DWORD PTR [ebp-0x10]
  4090bf:	74 0b                	je     4090cc <_check+0x7bb8>
  4090c1:	8b 45 f4             	mov    eax,DWORD PTR [ebp-0xc]
  4090c4:	89 04 24             	mov    DWORD PTR [esp],eax
  4090c7:	e8 74 82 ff ff       	call   401340 <_badboy>
  4090cc:	83 45 f4 01          	add    DWORD PTR [ebp-0xc],0x1
  4090d0:	c7 45 f0 50 00 00 00 	mov    DWORD PTR [ebp-0x10],0x50
  4090d7:	8b 55 f4             	mov    edx,DWORD PTR [ebp-0xc]
  4090da:	8b 45 08             	mov    eax,DWORD PTR [ebp+0x8]
  4090dd:	01 d0                	add    eax,edx
  4090df:	0f b6 00             	movzx  eax,BYTE PTR [eax]
  4090e2:	83 f0 25             	xor    eax,0x25
  4090e5:	0f be c0             	movsx  eax,al
  4090e8:	3b 45 f0             	cmp    eax,DWORD PTR [ebp-0x10]
  4090eb:	74 0b                	je     4090f8 <_check+0x7be4>
  4090ed:	8b 45 f4             	mov    eax,DWORD PTR [ebp-0xc]
  4090f0:	89 04 24             	mov    DWORD PTR [esp],eax
  4090f3:	e8 48 82 ff ff       	call   401340 <_badboy>
  4090f8:	83 45 f4 01          	add    DWORD PTR [ebp-0xc],0x1
  4090fc:	c7 45 f0 0f 00 00 00 	mov    DWORD PTR [ebp-0x10],0xf
  409103:	8b 55 f4             	mov    edx,DWORD PTR [ebp-0xc]
  409106:	8b 45 08             	mov    eax,DWORD PTR [ebp+0x8]
  409109:	01 d0                	add    eax,edx
  40910b:	0f b6 00             	movzx  eax,BYTE PTR [eax]
  40910e:	83 f0 60             	xor    eax,0x60
  409111:	0f be c0             	movsx  eax,al
  409114:	3b 45 f0             	cmp    eax,DWORD PTR [ebp-0x10]
  409117:	74 0b                	je     409124 <_check+0x7c10>
  409119:	8b 45 f4             	mov    eax,DWORD PTR [ebp-0xc]
  40911c:	89 04 24             	mov    DWORD PTR [esp],eax
  40911f:	e8 1c 82 ff ff       	call   401340 <_badboy>
  409124:	83 45 f4 01          	add    DWORD PTR [ebp-0xc],0x1
  409128:	c7 45 f0 bf 00 00 00 	mov    DWORD PTR [ebp-0x10],0xbf
  40912f:	8b 55 f4             	mov    edx,DWORD PTR [ebp-0xc]
  409132:	8b 45 08             	mov    eax,DWORD PTR [ebp+0x8]
  409135:	01 d0                	add    eax,edx
  409137:	0f b6 00             	movzx  eax,BYTE PTR [eax]
  40913a:	0f be c0             	movsx  eax,al
  40913d:	34 cb                	xor    al,0xcb
  40913f:	3b 45 f0             	cmp    eax,DWORD PTR [ebp-0x10]
  409142:	74 0b                	je     40914f <_check+0x7c3b>
  409144:	8b 45 f4             	mov    eax,DWORD PTR [ebp-0xc]
  409147:	89 04 24             	mov    DWORD PTR [esp],eax
  40914a:	e8 f1 81 ff ff       	call   401340 <_badboy>
  40914f:	83 45 f4 01          	add    DWORD PTR [ebp-0xc],0x1
  409153:	c7 45 f0 0a 00 00 00 	mov    DWORD PTR [ebp-0x10],0xa
  40915a:	8b 55 f4             	mov    edx,DWORD PTR [ebp-0xc]
  40915d:	8b 45 08             	mov    eax,DWORD PTR [ebp+0x8]
  409160:	01 d0                	add    eax,edx
  409162:	0f b6 00             	movzx  eax,BYTE PTR [eax]
  409165:	83 f0 6f             	xor    eax,0x6f
  409168:	0f be c0             	movsx  eax,al
  40916b:	3b 45 f0             	cmp    eax,DWORD PTR [ebp-0x10]
  40916e:	74 0b                	je     40917b <_check+0x7c67>
  409170:	8b 45 f4             	mov    eax,DWORD PTR [ebp-0xc]
  409173:	89 04 24             	mov    DWORD PTR [esp],eax
  409176:	e8 c5 81 ff ff       	call   401340 <_badboy>
  40917b:	83 45 f4 01          	add    DWORD PTR [ebp-0xc],0x1
  40917f:	c7 45 f0 5a 00 00 00 	mov    DWORD PTR [ebp-0x10],0x5a
  409186:	8b 55 f4             	mov    edx,DWORD PTR [ebp-0xc]
  409189:	8b 45 08             	mov    eax,DWORD PTR [ebp+0x8]
  40918c:	01 d0                	add    eax,edx
  40918e:	0f b6 00             	movzx  eax,BYTE PTR [eax]
  409191:	83 f0 29             	xor    eax,0x29
  409194:	0f be c0             	movsx  eax,al
  409197:	3b 45 f0             	cmp    eax,DWORD PTR [ebp-0x10]
  40919a:	74 0b                	je     4091a7 <_check+0x7c93>
  40919c:	8b 45 f4             	mov    eax,DWORD PTR [ebp-0xc]
  40919f:	89 04 24             	mov    DWORD PTR [esp],eax
  4091a2:	e8 99 81 ff ff       	call   401340 <_badboy>
  4091a7:	83 45 f4 01          	add    DWORD PTR [ebp-0xc],0x1
  4091ab:	c7 45 f0 e9 00 00 00 	mov    DWORD PTR [ebp-0x10],0xe9
  4091b2:	8b 55 f4             	mov    edx,DWORD PTR [ebp-0xc]
  4091b5:	8b 45 08             	mov    eax,DWORD PTR [ebp+0x8]
  4091b8:	01 d0                	add    eax,edx
  4091ba:	0f b6 00             	movzx  eax,BYTE PTR [eax]
  4091bd:	0f be c0             	movsx  eax,al
  4091c0:	34 c7                	xor    al,0xc7
  4091c2:	3b 45 f0             	cmp    eax,DWORD PTR [ebp-0x10]
  4091c5:	74 0b                	je     4091d2 <_check+0x7cbe>
  4091c7:	8b 45 f4             	mov    eax,DWORD PTR [ebp-0xc]
  4091ca:	89 04 24             	mov    DWORD PTR [esp],eax
  4091cd:	e8 6e 81 ff ff       	call   401340 <_badboy>
  4091d2:	83 45 f4 01          	add    DWORD PTR [ebp-0xc],0x1
  4091d6:	c7 45 f0 ef 00 00 00 	mov    DWORD PTR [ebp-0x10],0xef
  4091dd:	8b 55 f4             	mov    edx,DWORD PTR [ebp-0xc]
  4091e0:	8b 45 08             	mov    eax,DWORD PTR [ebp+0x8]
  4091e3:	01 d0                	add    eax,edx
  4091e5:	0f b6 00             	movzx  eax,BYTE PTR [eax]
  4091e8:	0f be c0             	movsx  eax,al
  4091eb:	34 e5                	xor    al,0xe5
  4091ed:	3b 45 f0             	cmp    eax,DWORD PTR [ebp-0x10]
  4091f0:	74 0b                	je     4091fd <_check+0x7ce9>
  4091f2:	8b 45 f4             	mov    eax,DWORD PTR [ebp-0xc]
  4091f5:	89 04 24             	mov    DWORD PTR [esp],eax
  4091f8:	e8 43 81 ff ff       	call   401340 <_badboy>
  4091fd:	83 45 f4 01          	add    DWORD PTR [ebp-0xc],0x1
  409201:	c7 45 f0 0f 00 00 00 	mov    DWORD PTR [ebp-0x10],0xf
  409208:	8b 55 f4             	mov    edx,DWORD PTR [ebp-0xc]
  40920b:	8b 45 08             	mov    eax,DWORD PTR [ebp+0x8]
  40920e:	01 d0                	add    eax,edx
  409210:	0f b6 00             	movzx  eax,BYTE PTR [eax]
  409213:	83 f0 05             	xor    eax,0x5
  409216:	0f be c0             	movsx  eax,al
  409219:	3b 45 f0             	cmp    eax,DWORD PTR [ebp-0x10]
  40921c:	74 0b                	je     409229 <_check+0x7d15>
  40921e:	8b 45 f4             	mov    eax,DWORD PTR [ebp-0xc]
  409221:	89 04 24             	mov    DWORD PTR [esp],eax
  409224:	e8 17 81 ff ff       	call   401340 <_badboy>
  409229:	83 45 f4 01          	add    DWORD PTR [ebp-0xc],0x1
  40922d:	b8 00 00 00 00       	mov    eax,0x0
  409232:	c9                   	leave  
  409233:	c3                   	ret    
  409234:	66 90                	xchg   ax,ax
  409236:	66 90                	xchg   ax,ax
  409238:	66 90                	xchg   ax,ax
  40923a:	66 90                	xchg   ax,ax
  40923c:	66 90                	xchg   ax,ax
  40923e:	66 90                	xchg   ax,ax

00409240 <___dyn_tls_dtor@12>:
  409240:	83 ec 1c             	sub    esp,0x1c
  409243:	8b 44 24 24          	mov    eax,DWORD PTR [esp+0x24]
  409247:	85 c0                	test   eax,eax
  409249:	74 15                	je     409260 <___dyn_tls_dtor@12+0x20>
  40924b:	83 f8 03             	cmp    eax,0x3
  40924e:	74 10                	je     409260 <___dyn_tls_dtor@12+0x20>
  409250:	b8 01 00 00 00       	mov    eax,0x1
  409255:	83 c4 1c             	add    esp,0x1c
  409258:	c2 0c 00             	ret    0xc
  40925b:	90                   	nop
  40925c:	8d 74 26 00          	lea    esi,[esi+eiz*1+0x0]
  409260:	8b 54 24 28          	mov    edx,DWORD PTR [esp+0x28]
  409264:	89 44 24 04          	mov    DWORD PTR [esp+0x4],eax
  409268:	8b 44 24 20          	mov    eax,DWORD PTR [esp+0x20]
  40926c:	89 54 24 08          	mov    DWORD PTR [esp+0x8],edx
  409270:	89 04 24             	mov    DWORD PTR [esp],eax
  409273:	e8 18 07 00 00       	call   409990 <___mingw_TLScallback>
  409278:	b8 01 00 00 00       	mov    eax,0x1
  40927d:	83 c4 1c             	add    esp,0x1c
  409280:	c2 0c 00             	ret    0xc
  409283:	8d b6 00 00 00 00    	lea    esi,[esi+0x0]
  409289:	8d bc 27 00 00 00 00 	lea    edi,[edi+eiz*1+0x0]

00409290 <___dyn_tls_init@12>:
  409290:	56                   	push   esi
  409291:	53                   	push   ebx
  409292:	83 ec 14             	sub    esp,0x14
  409295:	83 3d 28 d0 40 00 02 	cmp    DWORD PTR ds:0x40d028,0x2
  40929c:	8b 44 24 24          	mov    eax,DWORD PTR [esp+0x24]
  4092a0:	74 0a                	je     4092ac <___dyn_tls_init@12+0x1c>
  4092a2:	c7 05 28 d0 40 00 02 	mov    DWORD PTR ds:0x40d028,0x2
  4092a9:	00 00 00 
  4092ac:	83 f8 02             	cmp    eax,0x2
  4092af:	74 12                	je     4092c3 <___dyn_tls_init@12+0x33>
  4092b1:	83 f8 01             	cmp    eax,0x1
  4092b4:	74 42                	je     4092f8 <___dyn_tls_init@12+0x68>
  4092b6:	83 c4 14             	add    esp,0x14
  4092b9:	b8 01 00 00 00       	mov    eax,0x1
  4092be:	5b                   	pop    ebx
  4092bf:	5e                   	pop    esi
  4092c0:	c2 0c 00             	ret    0xc
  4092c3:	be 14 f0 40 00       	mov    esi,0x40f014
  4092c8:	81 ee 14 f0 40 00    	sub    esi,0x40f014
  4092ce:	c1 fe 02             	sar    esi,0x2
  4092d1:	85 f6                	test   esi,esi
  4092d3:	7e e1                	jle    4092b6 <___dyn_tls_init@12+0x26>
  4092d5:	31 db                	xor    ebx,ebx
  4092d7:	8b 04 9d 14 f0 40 00 	mov    eax,DWORD PTR [ebx*4+0x40f014]
  4092de:	85 c0                	test   eax,eax
  4092e0:	74 02                	je     4092e4 <___dyn_tls_init@12+0x54>
  4092e2:	ff d0                	call   eax
  4092e4:	83 c3 01             	add    ebx,0x1
  4092e7:	39 f3                	cmp    ebx,esi
  4092e9:	75 ec                	jne    4092d7 <___dyn_tls_init@12+0x47>
  4092eb:	83 c4 14             	add    esp,0x14
  4092ee:	b8 01 00 00 00       	mov    eax,0x1
  4092f3:	5b                   	pop    ebx
  4092f4:	5e                   	pop    esi
  4092f5:	c2 0c 00             	ret    0xc
  4092f8:	8b 44 24 28          	mov    eax,DWORD PTR [esp+0x28]
  4092fc:	c7 44 24 04 01 00 00 	mov    DWORD PTR [esp+0x4],0x1
  409303:	00 
  409304:	89 44 24 08          	mov    DWORD PTR [esp+0x8],eax
  409308:	8b 44 24 20          	mov    eax,DWORD PTR [esp+0x20]
  40930c:	89 04 24             	mov    DWORD PTR [esp],eax
  40930f:	e8 7c 06 00 00       	call   409990 <___mingw_TLScallback>
  409314:	eb a0                	jmp    4092b6 <___dyn_tls_init@12+0x26>
  409316:	8d 76 00             	lea    esi,[esi+0x0]
  409319:	8d bc 27 00 00 00 00 	lea    edi,[edi+eiz*1+0x0]

00409320 <___tlregdtor>:
  409320:	31 c0                	xor    eax,eax
  409322:	c3                   	ret    
  409323:	90                   	nop
  409324:	90                   	nop
  409325:	90                   	nop
  409326:	90                   	nop
  409327:	90                   	nop
  409328:	90                   	nop
  409329:	90                   	nop
  40932a:	90                   	nop
  40932b:	90                   	nop
  40932c:	90                   	nop
  40932d:	90                   	nop
  40932e:	90                   	nop
  40932f:	90                   	nop

00409330 <___cpu_features_init>:
  409330:	9c                   	pushf  
  409331:	9c                   	pushf  
  409332:	58                   	pop    eax
  409333:	89 c2                	mov    edx,eax
  409335:	35 00 00 20 00       	xor    eax,0x200000
  40933a:	50                   	push   eax
  40933b:	9d                   	popf   
  40933c:	9c                   	pushf  
  40933d:	58                   	pop    eax
  40933e:	9d                   	popf   
  40933f:	31 d0                	xor    eax,edx
  409341:	a9 00 00 20 00       	test   eax,0x200000
  409346:	0f 84 a5 00 00 00    	je     4093f1 <___cpu_features_init+0xc1>
  40934c:	53                   	push   ebx
  40934d:	31 c0                	xor    eax,eax
  40934f:	0f a2                	cpuid  
  409351:	85 c0                	test   eax,eax
  409353:	0f 84 97 00 00 00    	je     4093f0 <___cpu_features_init+0xc0>
  409359:	b8 01 00 00 00       	mov    eax,0x1
  40935e:	0f a2                	cpuid  
  409360:	f6 c6 01             	test   dh,0x1
  409363:	74 07                	je     40936c <___cpu_features_init+0x3c>
  409365:	83 0d 1c d0 40 00 01 	or     DWORD PTR ds:0x40d01c,0x1
  40936c:	f6 c6 80             	test   dh,0x80
  40936f:	74 07                	je     409378 <___cpu_features_init+0x48>
  409371:	83 0d 1c d0 40 00 02 	or     DWORD PTR ds:0x40d01c,0x2
  409378:	f7 c2 00 00 80 00    	test   edx,0x800000
  40937e:	74 07                	je     409387 <___cpu_features_init+0x57>
  409380:	83 0d 1c d0 40 00 04 	or     DWORD PTR ds:0x40d01c,0x4
  409387:	f7 c2 00 00 00 01    	test   edx,0x1000000
  40938d:	74 07                	je     409396 <___cpu_features_init+0x66>
  40938f:	83 0d 1c d0 40 00 08 	or     DWORD PTR ds:0x40d01c,0x8
  409396:	f7 c2 00 00 00 02    	test   edx,0x2000000
  40939c:	74 07                	je     4093a5 <___cpu_features_init+0x75>
  40939e:	83 0d 1c d0 40 00 10 	or     DWORD PTR ds:0x40d01c,0x10
  4093a5:	81 e2 00 00 00 04    	and    edx,0x4000000
  4093ab:	74 07                	je     4093b4 <___cpu_features_init+0x84>
  4093ad:	83 0d 1c d0 40 00 20 	or     DWORD PTR ds:0x40d01c,0x20
  4093b4:	f6 c1 01             	test   cl,0x1
  4093b7:	74 07                	je     4093c0 <___cpu_features_init+0x90>
  4093b9:	83 0d 1c d0 40 00 40 	or     DWORD PTR ds:0x40d01c,0x40
  4093c0:	80 e5 20             	and    ch,0x20
  4093c3:	75 2e                	jne    4093f3 <___cpu_features_init+0xc3>
  4093c5:	b8 00 00 00 80       	mov    eax,0x80000000
  4093ca:	0f a2                	cpuid  
  4093cc:	3d 00 00 00 80       	cmp    eax,0x80000000
  4093d1:	76 1d                	jbe    4093f0 <___cpu_features_init+0xc0>
  4093d3:	b8 01 00 00 80       	mov    eax,0x80000001
  4093d8:	0f a2                	cpuid  
  4093da:	85 d2                	test   edx,edx
  4093dc:	78 22                	js     409400 <___cpu_features_init+0xd0>
  4093de:	81 e2 00 00 00 40    	and    edx,0x40000000
  4093e4:	74 0a                	je     4093f0 <___cpu_features_init+0xc0>
  4093e6:	81 0d 1c d0 40 00 00 	or     DWORD PTR ds:0x40d01c,0x200
  4093ed:	02 00 00 
  4093f0:	5b                   	pop    ebx
  4093f1:	f3 c3                	repz ret 
  4093f3:	81 0d 1c d0 40 00 80 	or     DWORD PTR ds:0x40d01c,0x80
  4093fa:	00 00 00 
  4093fd:	eb c6                	jmp    4093c5 <___cpu_features_init+0x95>
  4093ff:	90                   	nop
  409400:	81 0d 1c d0 40 00 00 	or     DWORD PTR ds:0x40d01c,0x100
  409407:	01 00 00 
  40940a:	eb d2                	jmp    4093de <___cpu_features_init+0xae>
  40940c:	90                   	nop
  40940d:	90                   	nop
  40940e:	90                   	nop
  40940f:	90                   	nop

00409410 <__fpreset>:
  409410:	db e3                	fninit 
  409412:	c3                   	ret    
  409413:	90                   	nop
  409414:	90                   	nop
  409415:	90                   	nop
  409416:	90                   	nop
  409417:	90                   	nop
  409418:	90                   	nop
  409419:	90                   	nop
  40941a:	90                   	nop
  40941b:	90                   	nop
  40941c:	90                   	nop
  40941d:	90                   	nop
  40941e:	90                   	nop
  40941f:	90                   	nop

00409420 <___report_error>:
  409420:	53                   	push   ebx
  409421:	83 ec 28             	sub    esp,0x28
  409424:	8b 1d 20 e1 40 00    	mov    ebx,DWORD PTR ds:0x40e120
  40942a:	8d 44 24 34          	lea    eax,[esp+0x34]
  40942e:	c7 44 24 08 17 00 00 	mov    DWORD PTR [esp+0x8],0x17
  409435:	00 
  409436:	c7 44 24 04 01 00 00 	mov    DWORD PTR [esp+0x4],0x1
  40943d:	00 
  40943e:	83 c3 40             	add    ebx,0x40
  409441:	89 5c 24 0c          	mov    DWORD PTR [esp+0xc],ebx
  409445:	c7 04 24 18 b1 40 00 	mov    DWORD PTR [esp],0x40b118
  40944c:	89 44 24 1c          	mov    DWORD PTR [esp+0x1c],eax
  409450:	e8 7f 06 00 00       	call   409ad4 <_fwrite>
  409455:	8b 44 24 1c          	mov    eax,DWORD PTR [esp+0x1c]
  409459:	89 1c 24             	mov    DWORD PTR [esp],ebx
  40945c:	89 44 24 08          	mov    DWORD PTR [esp+0x8],eax
  409460:	8b 44 24 30          	mov    eax,DWORD PTR [esp+0x30]
  409464:	89 44 24 04          	mov    DWORD PTR [esp+0x4],eax
  409468:	e8 6f 06 00 00       	call   409adc <_vfprintf>
  40946d:	e8 72 06 00 00       	call   409ae4 <_abort>
  409472:	8d b4 26 00 00 00 00 	lea    esi,[esi+eiz*1+0x0]
  409479:	8d bc 27 00 00 00 00 	lea    edi,[edi+eiz*1+0x0]

00409480 <___write_memory.part.0>:
  409480:	83 ec 5c             	sub    esp,0x5c
  409483:	89 5c 24 4c          	mov    DWORD PTR [esp+0x4c],ebx
  409487:	89 c3                	mov    ebx,eax
  409489:	8d 44 24 24          	lea    eax,[esp+0x24]
  40948d:	c7 44 24 08 1c 00 00 	mov    DWORD PTR [esp+0x8],0x1c
  409494:	00 
  409495:	89 44 24 04          	mov    DWORD PTR [esp+0x4],eax
  409499:	89 1c 24             	mov    DWORD PTR [esp],ebx
  40949c:	89 74 24 50          	mov    DWORD PTR [esp+0x50],esi
  4094a0:	89 d6                	mov    esi,edx
  4094a2:	89 7c 24 54          	mov    DWORD PTR [esp+0x54],edi
  4094a6:	89 cf                	mov    edi,ecx
  4094a8:	89 6c 24 58          	mov    DWORD PTR [esp+0x58],ebp
  4094ac:	e8 73 06 00 00       	call   409b24 <_VirtualQuery@12>
  4094b1:	83 ec 0c             	sub    esp,0xc
  4094b4:	85 c0                	test   eax,eax
  4094b6:	0f 84 ba 00 00 00    	je     409576 <___write_memory.part.0+0xf6>
  4094bc:	8b 44 24 38          	mov    eax,DWORD PTR [esp+0x38]
  4094c0:	83 f8 04             	cmp    eax,0x4
  4094c3:	75 2b                	jne    4094f0 <___write_memory.part.0+0x70>
  4094c5:	89 7c 24 08          	mov    DWORD PTR [esp+0x8],edi
  4094c9:	89 74 24 04          	mov    DWORD PTR [esp+0x4],esi
  4094cd:	89 1c 24             	mov    DWORD PTR [esp],ebx
  4094d0:	e8 17 06 00 00       	call   409aec <_memcpy>
  4094d5:	8b 5c 24 4c          	mov    ebx,DWORD PTR [esp+0x4c]
  4094d9:	8b 74 24 50          	mov    esi,DWORD PTR [esp+0x50]
  4094dd:	8b 7c 24 54          	mov    edi,DWORD PTR [esp+0x54]
  4094e1:	8b 6c 24 58          	mov    ebp,DWORD PTR [esp+0x58]
  4094e5:	83 c4 5c             	add    esp,0x5c
  4094e8:	c3                   	ret    
  4094e9:	8d b4 26 00 00 00 00 	lea    esi,[esi+eiz*1+0x0]
  4094f0:	83 f8 40             	cmp    eax,0x40
  4094f3:	74 d0                	je     4094c5 <___write_memory.part.0+0x45>
  4094f5:	8b 44 24 30          	mov    eax,DWORD PTR [esp+0x30]
  4094f9:	8d 6c 24 20          	lea    ebp,[esp+0x20]
  4094fd:	89 6c 24 0c          	mov    DWORD PTR [esp+0xc],ebp
  409501:	c7 44 24 08 40 00 00 	mov    DWORD PTR [esp+0x8],0x40
  409508:	00 
  409509:	89 44 24 04          	mov    DWORD PTR [esp+0x4],eax
  40950d:	8b 44 24 24          	mov    eax,DWORD PTR [esp+0x24]
  409511:	89 04 24             	mov    DWORD PTR [esp],eax
  409514:	e8 13 06 00 00       	call   409b2c <_VirtualProtect@16>
  409519:	83 ec 10             	sub    esp,0x10
  40951c:	8b 44 24 38          	mov    eax,DWORD PTR [esp+0x38]
  409520:	89 7c 24 08          	mov    DWORD PTR [esp+0x8],edi
  409524:	89 74 24 04          	mov    DWORD PTR [esp+0x4],esi
  409528:	89 1c 24             	mov    DWORD PTR [esp],ebx
  40952b:	83 f8 40             	cmp    eax,0x40
  40952e:	0f 95 44 24 1e       	setne  BYTE PTR [esp+0x1e]
  409533:	83 f8 04             	cmp    eax,0x4
  409536:	0f 95 44 24 1f       	setne  BYTE PTR [esp+0x1f]
  40953b:	e8 ac 05 00 00       	call   409aec <_memcpy>
  409540:	80 7c 24 1f 00       	cmp    BYTE PTR [esp+0x1f],0x0
  409545:	74 8e                	je     4094d5 <___write_memory.part.0+0x55>
  409547:	80 7c 24 1e 00       	cmp    BYTE PTR [esp+0x1e],0x0
  40954c:	74 87                	je     4094d5 <___write_memory.part.0+0x55>
  40954e:	8b 44 24 20          	mov    eax,DWORD PTR [esp+0x20]
  409552:	89 6c 24 0c          	mov    DWORD PTR [esp+0xc],ebp
  409556:	89 44 24 08          	mov    DWORD PTR [esp+0x8],eax
  40955a:	8b 44 24 30          	mov    eax,DWORD PTR [esp+0x30]
  40955e:	89 44 24 04          	mov    DWORD PTR [esp+0x4],eax
  409562:	8b 44 24 24          	mov    eax,DWORD PTR [esp+0x24]
  409566:	89 04 24             	mov    DWORD PTR [esp],eax
  409569:	e8 be 05 00 00       	call   409b2c <_VirtualProtect@16>
  40956e:	83 ec 10             	sub    esp,0x10
  409571:	e9 5f ff ff ff       	jmp    4094d5 <___write_memory.part.0+0x55>
  409576:	89 5c 24 08          	mov    DWORD PTR [esp+0x8],ebx
  40957a:	c7 44 24 04 1c 00 00 	mov    DWORD PTR [esp+0x4],0x1c
  409581:	00 
  409582:	c7 04 24 30 b1 40 00 	mov    DWORD PTR [esp],0x40b130
  409589:	e8 92 fe ff ff       	call   409420 <___report_error>
  40958e:	66 90                	xchg   ax,ax

00409590 <__pei386_runtime_relocator>:
  409590:	a1 20 d0 40 00       	mov    eax,ds:0x40d020
  409595:	85 c0                	test   eax,eax
  409597:	74 07                	je     4095a0 <__pei386_runtime_relocator+0x10>
  409599:	c3                   	ret    
  40959a:	8d b6 00 00 00 00    	lea    esi,[esi+0x0]
  4095a0:	b8 14 b2 40 00       	mov    eax,0x40b214
  4095a5:	2d 14 b2 40 00       	sub    eax,0x40b214
  4095aa:	83 f8 07             	cmp    eax,0x7
  4095ad:	c7 05 20 d0 40 00 01 	mov    DWORD PTR ds:0x40d020,0x1
  4095b4:	00 00 00 
  4095b7:	7e e0                	jle    409599 <__pei386_runtime_relocator+0x9>
  4095b9:	83 ec 2c             	sub    esp,0x2c
  4095bc:	83 f8 0b             	cmp    eax,0xb
  4095bf:	89 5c 24 20          	mov    DWORD PTR [esp+0x20],ebx
  4095c3:	89 74 24 24          	mov    DWORD PTR [esp+0x24],esi
  4095c7:	89 7c 24 28          	mov    DWORD PTR [esp+0x28],edi
  4095cb:	0f 8e df 00 00 00    	jle    4096b0 <__pei386_runtime_relocator+0x120>
  4095d1:	8b 35 14 b2 40 00    	mov    esi,DWORD PTR ds:0x40b214
  4095d7:	85 f6                	test   esi,esi
  4095d9:	0f 85 85 00 00 00    	jne    409664 <__pei386_runtime_relocator+0xd4>
  4095df:	8b 1d 18 b2 40 00    	mov    ebx,DWORD PTR ds:0x40b218
  4095e5:	85 db                	test   ebx,ebx
  4095e7:	75 7b                	jne    409664 <__pei386_runtime_relocator+0xd4>
  4095e9:	8b 0d 1c b2 40 00    	mov    ecx,DWORD PTR ds:0x40b21c
  4095ef:	bb 20 b2 40 00       	mov    ebx,0x40b220
  4095f4:	85 c9                	test   ecx,ecx
  4095f6:	0f 84 b9 00 00 00    	je     4096b5 <__pei386_runtime_relocator+0x125>
  4095fc:	bb 14 b2 40 00       	mov    ebx,0x40b214
  409601:	8b 43 08             	mov    eax,DWORD PTR [ebx+0x8]
  409604:	83 f8 01             	cmp    eax,0x1
  409607:	0f 85 47 01 00 00    	jne    409754 <__pei386_runtime_relocator+0x1c4>
  40960d:	83 c3 0c             	add    ebx,0xc
  409610:	81 fb 14 b2 40 00    	cmp    ebx,0x40b214
  409616:	0f 83 83 00 00 00    	jae    40969f <__pei386_runtime_relocator+0x10f>
  40961c:	0f b6 53 08          	movzx  edx,BYTE PTR [ebx+0x8]
  409620:	8b 73 04             	mov    esi,DWORD PTR [ebx+0x4]
  409623:	8b 0b                	mov    ecx,DWORD PTR [ebx]
  409625:	83 fa 10             	cmp    edx,0x10
  409628:	8d 86 00 00 40 00    	lea    eax,[esi+0x400000]
  40962e:	8b b9 00 00 40 00    	mov    edi,DWORD PTR [ecx+0x400000]
  409634:	0f 84 8e 00 00 00    	je     4096c8 <__pei386_runtime_relocator+0x138>
  40963a:	83 fa 20             	cmp    edx,0x20
  40963d:	0f 84 f0 00 00 00    	je     409733 <__pei386_runtime_relocator+0x1a3>
  409643:	83 fa 08             	cmp    edx,0x8
  409646:	0f 84 b4 00 00 00    	je     409700 <__pei386_runtime_relocator+0x170>
  40964c:	89 54 24 04          	mov    DWORD PTR [esp+0x4],edx
  409650:	c7 04 24 98 b1 40 00 	mov    DWORD PTR [esp],0x40b198
  409657:	c7 44 24 18 00 00 00 	mov    DWORD PTR [esp+0x18],0x0
  40965e:	00 
  40965f:	e8 bc fd ff ff       	call   409420 <___report_error>
  409664:	bb 14 b2 40 00       	mov    ebx,0x40b214
  409669:	81 fb 14 b2 40 00    	cmp    ebx,0x40b214
  40966f:	73 2e                	jae    40969f <__pei386_runtime_relocator+0x10f>
  409671:	8b 53 04             	mov    edx,DWORD PTR [ebx+0x4]
  409674:	b9 04 00 00 00       	mov    ecx,0x4
  409679:	8d 82 00 00 40 00    	lea    eax,[edx+0x400000]
  40967f:	8b 92 00 00 40 00    	mov    edx,DWORD PTR [edx+0x400000]
  409685:	03 13                	add    edx,DWORD PTR [ebx]
  409687:	83 c3 08             	add    ebx,0x8
  40968a:	89 54 24 1c          	mov    DWORD PTR [esp+0x1c],edx
  40968e:	8d 54 24 1c          	lea    edx,[esp+0x1c]
  409692:	e8 e9 fd ff ff       	call   409480 <___write_memory.part.0>
  409697:	81 fb 14 b2 40 00    	cmp    ebx,0x40b214
  40969d:	72 d2                	jb     409671 <__pei386_runtime_relocator+0xe1>
  40969f:	8b 5c 24 20          	mov    ebx,DWORD PTR [esp+0x20]
  4096a3:	8b 74 24 24          	mov    esi,DWORD PTR [esp+0x24]
  4096a7:	8b 7c 24 28          	mov    edi,DWORD PTR [esp+0x28]
  4096ab:	83 c4 2c             	add    esp,0x2c
  4096ae:	c3                   	ret    
  4096af:	90                   	nop
  4096b0:	bb 14 b2 40 00       	mov    ebx,0x40b214
  4096b5:	8b 13                	mov    edx,DWORD PTR [ebx]
  4096b7:	85 d2                	test   edx,edx
  4096b9:	75 ae                	jne    409669 <__pei386_runtime_relocator+0xd9>
  4096bb:	8b 43 04             	mov    eax,DWORD PTR [ebx+0x4]
  4096be:	85 c0                	test   eax,eax
  4096c0:	0f 84 3b ff ff ff    	je     409601 <__pei386_runtime_relocator+0x71>
  4096c6:	eb a1                	jmp    409669 <__pei386_runtime_relocator+0xd9>
  4096c8:	0f b7 b6 00 00 40 00 	movzx  esi,WORD PTR [esi+0x400000]
  4096cf:	66 85 f6             	test   si,si
  4096d2:	0f b7 d6             	movzx  edx,si
  4096d5:	79 06                	jns    4096dd <__pei386_runtime_relocator+0x14d>
  4096d7:	81 ca 00 00 ff ff    	or     edx,0xffff0000
  4096dd:	29 ca                	sub    edx,ecx
  4096df:	b9 02 00 00 00       	mov    ecx,0x2
  4096e4:	81 ea 00 00 40 00    	sub    edx,0x400000
  4096ea:	01 fa                	add    edx,edi
  4096ec:	89 54 24 18          	mov    DWORD PTR [esp+0x18],edx
  4096f0:	8d 54 24 18          	lea    edx,[esp+0x18]
  4096f4:	e8 87 fd ff ff       	call   409480 <___write_memory.part.0>
  4096f9:	e9 0f ff ff ff       	jmp    40960d <__pei386_runtime_relocator+0x7d>
  4096fe:	66 90                	xchg   ax,ax
  409700:	0f b6 10             	movzx  edx,BYTE PTR [eax]
  409703:	84 d2                	test   dl,dl
  409705:	0f b6 f2             	movzx  esi,dl
  409708:	79 06                	jns    409710 <__pei386_runtime_relocator+0x180>
  40970a:	81 ce 00 ff ff ff    	or     esi,0xffffff00
  409710:	89 f2                	mov    edx,esi
  409712:	81 ea 00 00 40 00    	sub    edx,0x400000
  409718:	29 ca                	sub    edx,ecx
  40971a:	b9 01 00 00 00       	mov    ecx,0x1
  40971f:	01 fa                	add    edx,edi
  409721:	89 54 24 18          	mov    DWORD PTR [esp+0x18],edx
  409725:	8d 54 24 18          	lea    edx,[esp+0x18]
  409729:	e8 52 fd ff ff       	call   409480 <___write_memory.part.0>
  40972e:	e9 da fe ff ff       	jmp    40960d <__pei386_runtime_relocator+0x7d>
  409733:	81 c1 00 00 40 00    	add    ecx,0x400000
  409739:	29 cf                	sub    edi,ecx
  40973b:	b9 04 00 00 00       	mov    ecx,0x4
  409740:	03 38                	add    edi,DWORD PTR [eax]
  409742:	8d 54 24 18          	lea    edx,[esp+0x18]
  409746:	89 7c 24 18          	mov    DWORD PTR [esp+0x18],edi
  40974a:	e8 31 fd ff ff       	call   409480 <___write_memory.part.0>
  40974f:	e9 b9 fe ff ff       	jmp    40960d <__pei386_runtime_relocator+0x7d>
  409754:	89 44 24 04          	mov    DWORD PTR [esp+0x4],eax
  409758:	c7 04 24 64 b1 40 00 	mov    DWORD PTR [esp],0x40b164
  40975f:	e8 bc fc ff ff       	call   409420 <___report_error>
  409764:	90                   	nop
  409765:	90                   	nop
  409766:	90                   	nop
  409767:	90                   	nop
  409768:	90                   	nop
  409769:	90                   	nop
  40976a:	90                   	nop
  40976b:	90                   	nop
  40976c:	90                   	nop
  40976d:	90                   	nop
  40976e:	90                   	nop
  40976f:	90                   	nop

00409770 <___do_global_dtors>:
  409770:	a1 08 a0 40 00       	mov    eax,ds:0x40a008
  409775:	8b 00                	mov    eax,DWORD PTR [eax]
  409777:	85 c0                	test   eax,eax
  409779:	74 1f                	je     40979a <___do_global_dtors+0x2a>
  40977b:	83 ec 0c             	sub    esp,0xc
  40977e:	66 90                	xchg   ax,ax
  409780:	ff d0                	call   eax
  409782:	a1 08 a0 40 00       	mov    eax,ds:0x40a008
  409787:	8d 50 04             	lea    edx,[eax+0x4]
  40978a:	8b 40 04             	mov    eax,DWORD PTR [eax+0x4]
  40978d:	89 15 08 a0 40 00    	mov    DWORD PTR ds:0x40a008,edx
  409793:	85 c0                	test   eax,eax
  409795:	75 e9                	jne    409780 <___do_global_dtors+0x10>
  409797:	83 c4 0c             	add    esp,0xc
  40979a:	f3 c3                	repz ret 
  40979c:	8d 74 26 00          	lea    esi,[esi+eiz*1+0x0]

004097a0 <___do_global_ctors>:
  4097a0:	53                   	push   ebx
  4097a1:	83 ec 18             	sub    esp,0x18
  4097a4:	8b 1d 90 9b 40 00    	mov    ebx,DWORD PTR ds:0x409b90
  4097aa:	83 fb ff             	cmp    ebx,0xffffffff
  4097ad:	74 24                	je     4097d3 <___do_global_ctors+0x33>
  4097af:	85 db                	test   ebx,ebx
  4097b1:	74 0f                	je     4097c2 <___do_global_ctors+0x22>
  4097b3:	ff 14 9d 90 9b 40 00 	call   DWORD PTR [ebx*4+0x409b90]
  4097ba:	83 eb 01             	sub    ebx,0x1
  4097bd:	8d 76 00             	lea    esi,[esi+0x0]
  4097c0:	75 f1                	jne    4097b3 <___do_global_ctors+0x13>
  4097c2:	c7 04 24 70 97 40 00 	mov    DWORD PTR [esp],0x409770
  4097c9:	e8 f2 7a ff ff       	call   4012c0 <_atexit>
  4097ce:	83 c4 18             	add    esp,0x18
  4097d1:	5b                   	pop    ebx
  4097d2:	c3                   	ret    
  4097d3:	31 db                	xor    ebx,ebx
  4097d5:	eb 02                	jmp    4097d9 <___do_global_ctors+0x39>
  4097d7:	89 c3                	mov    ebx,eax
  4097d9:	8d 43 01             	lea    eax,[ebx+0x1]
  4097dc:	8b 14 85 90 9b 40 00 	mov    edx,DWORD PTR [eax*4+0x409b90]
  4097e3:	85 d2                	test   edx,edx
  4097e5:	75 f0                	jne    4097d7 <___do_global_ctors+0x37>
  4097e7:	eb c6                	jmp    4097af <___do_global_ctors+0xf>
  4097e9:	8d b4 26 00 00 00 00 	lea    esi,[esi+eiz*1+0x0]

004097f0 <___main>:
  4097f0:	8b 0d 24 d0 40 00    	mov    ecx,DWORD PTR ds:0x40d024
  4097f6:	85 c9                	test   ecx,ecx
  4097f8:	74 06                	je     409800 <___main+0x10>
  4097fa:	f3 c3                	repz ret 
  4097fc:	8d 74 26 00          	lea    esi,[esi+eiz*1+0x0]
  409800:	c7 05 24 d0 40 00 01 	mov    DWORD PTR ds:0x40d024,0x1
  409807:	00 00 00 
  40980a:	eb 94                	jmp    4097a0 <___do_global_ctors>
  40980c:	90                   	nop
  40980d:	90                   	nop
  40980e:	90                   	nop
  40980f:	90                   	nop

00409810 <___mingwthr_run_key_dtors.part.0>:
  409810:	56                   	push   esi
  409811:	53                   	push   ebx
  409812:	83 ec 14             	sub    esp,0x14
  409815:	c7 04 24 30 d0 40 00 	mov    DWORD PTR [esp],0x40d030
  40981c:	e8 13 03 00 00       	call   409b34 <_EnterCriticalSection@4>
  409821:	8b 1d 48 d0 40 00    	mov    ebx,DWORD PTR ds:0x40d048
  409827:	83 ec 04             	sub    esp,0x4
  40982a:	85 db                	test   ebx,ebx
  40982c:	74 2d                	je     40985b <___mingwthr_run_key_dtors.part.0+0x4b>
  40982e:	66 90                	xchg   ax,ax
  409830:	8b 03                	mov    eax,DWORD PTR [ebx]
  409832:	89 04 24             	mov    DWORD PTR [esp],eax
  409835:	e8 02 03 00 00       	call   409b3c <_TlsGetValue@4>
  40983a:	83 ec 04             	sub    esp,0x4
  40983d:	89 c6                	mov    esi,eax
  40983f:	e8 00 03 00 00       	call   409b44 <_GetLastError@0>
  409844:	85 c0                	test   eax,eax
  409846:	75 0c                	jne    409854 <___mingwthr_run_key_dtors.part.0+0x44>
  409848:	85 f6                	test   esi,esi
  40984a:	74 08                	je     409854 <___mingwthr_run_key_dtors.part.0+0x44>
  40984c:	8b 43 04             	mov    eax,DWORD PTR [ebx+0x4]
  40984f:	89 34 24             	mov    DWORD PTR [esp],esi
  409852:	ff d0                	call   eax
  409854:	8b 5b 08             	mov    ebx,DWORD PTR [ebx+0x8]
  409857:	85 db                	test   ebx,ebx
  409859:	75 d5                	jne    409830 <___mingwthr_run_key_dtors.part.0+0x20>
  40985b:	c7 04 24 30 d0 40 00 	mov    DWORD PTR [esp],0x40d030
  409862:	e8 e5 02 00 00       	call   409b4c <_LeaveCriticalSection@4>
  409867:	83 ec 04             	sub    esp,0x4
  40986a:	83 c4 14             	add    esp,0x14
  40986d:	5b                   	pop    ebx
  40986e:	5e                   	pop    esi
  40986f:	c3                   	ret    

00409870 <____w64_mingwthr_add_key_dtor>:
  409870:	83 ec 1c             	sub    esp,0x1c
  409873:	a1 2c d0 40 00       	mov    eax,ds:0x40d02c
  409878:	89 74 24 18          	mov    DWORD PTR [esp+0x18],esi
  40987c:	31 f6                	xor    esi,esi
  40987e:	89 5c 24 14          	mov    DWORD PTR [esp+0x14],ebx
  409882:	85 c0                	test   eax,eax
  409884:	75 0e                	jne    409894 <____w64_mingwthr_add_key_dtor+0x24>
  409886:	89 f0                	mov    eax,esi
  409888:	8b 5c 24 14          	mov    ebx,DWORD PTR [esp+0x14]
  40988c:	8b 74 24 18          	mov    esi,DWORD PTR [esp+0x18]
  409890:	83 c4 1c             	add    esp,0x1c
  409893:	c3                   	ret    
  409894:	c7 44 24 04 0c 00 00 	mov    DWORD PTR [esp+0x4],0xc
  40989b:	00 
  40989c:	c7 04 24 01 00 00 00 	mov    DWORD PTR [esp],0x1
  4098a3:	e8 4c 02 00 00       	call   409af4 <_calloc>
  4098a8:	85 c0                	test   eax,eax
  4098aa:	89 c3                	mov    ebx,eax
  4098ac:	74 47                	je     4098f5 <____w64_mingwthr_add_key_dtor+0x85>
  4098ae:	8b 44 24 20          	mov    eax,DWORD PTR [esp+0x20]
  4098b2:	c7 04 24 30 d0 40 00 	mov    DWORD PTR [esp],0x40d030
  4098b9:	89 03                	mov    DWORD PTR [ebx],eax
  4098bb:	8b 44 24 24          	mov    eax,DWORD PTR [esp+0x24]
  4098bf:	89 43 04             	mov    DWORD PTR [ebx+0x4],eax
  4098c2:	e8 6d 02 00 00       	call   409b34 <_EnterCriticalSection@4>
  4098c7:	a1 48 d0 40 00       	mov    eax,ds:0x40d048
  4098cc:	89 1d 48 d0 40 00    	mov    DWORD PTR ds:0x40d048,ebx
  4098d2:	89 43 08             	mov    DWORD PTR [ebx+0x8],eax
  4098d5:	83 ec 04             	sub    esp,0x4
  4098d8:	c7 04 24 30 d0 40 00 	mov    DWORD PTR [esp],0x40d030
  4098df:	e8 68 02 00 00       	call   409b4c <_LeaveCriticalSection@4>
  4098e4:	89 f0                	mov    eax,esi
  4098e6:	83 ec 04             	sub    esp,0x4
  4098e9:	8b 5c 24 14          	mov    ebx,DWORD PTR [esp+0x14]
  4098ed:	8b 74 24 18          	mov    esi,DWORD PTR [esp+0x18]
  4098f1:	83 c4 1c             	add    esp,0x1c
  4098f4:	c3                   	ret    
  4098f5:	be ff ff ff ff       	mov    esi,0xffffffff
  4098fa:	eb 8a                	jmp    409886 <____w64_mingwthr_add_key_dtor+0x16>
  4098fc:	8d 74 26 00          	lea    esi,[esi+eiz*1+0x0]

00409900 <____w64_mingwthr_remove_key_dtor>:
  409900:	53                   	push   ebx
  409901:	83 ec 18             	sub    esp,0x18
  409904:	a1 2c d0 40 00       	mov    eax,ds:0x40d02c
  409909:	8b 5c 24 20          	mov    ebx,DWORD PTR [esp+0x20]
  40990d:	85 c0                	test   eax,eax
  40990f:	75 07                	jne    409918 <____w64_mingwthr_remove_key_dtor+0x18>
  409911:	83 c4 18             	add    esp,0x18
  409914:	31 c0                	xor    eax,eax
  409916:	5b                   	pop    ebx
  409917:	c3                   	ret    
  409918:	c7 04 24 30 d0 40 00 	mov    DWORD PTR [esp],0x40d030
  40991f:	e8 10 02 00 00       	call   409b34 <_EnterCriticalSection@4>
  409924:	8b 15 48 d0 40 00    	mov    edx,DWORD PTR ds:0x40d048
  40992a:	83 ec 04             	sub    esp,0x4
  40992d:	85 d2                	test   edx,edx
  40992f:	74 1e                	je     40994f <____w64_mingwthr_remove_key_dtor+0x4f>
  409931:	8b 02                	mov    eax,DWORD PTR [edx]
  409933:	39 d8                	cmp    eax,ebx
  409935:	75 11                	jne    409948 <____w64_mingwthr_remove_key_dtor+0x48>
  409937:	eb 4b                	jmp    409984 <____w64_mingwthr_remove_key_dtor+0x84>
  409939:	8d b4 26 00 00 00 00 	lea    esi,[esi+eiz*1+0x0]
  409940:	8b 08                	mov    ecx,DWORD PTR [eax]
  409942:	39 d9                	cmp    ecx,ebx
  409944:	74 1f                	je     409965 <____w64_mingwthr_remove_key_dtor+0x65>
  409946:	89 c2                	mov    edx,eax
  409948:	8b 42 08             	mov    eax,DWORD PTR [edx+0x8]
  40994b:	85 c0                	test   eax,eax
  40994d:	75 f1                	jne    409940 <____w64_mingwthr_remove_key_dtor+0x40>
  40994f:	c7 04 24 30 d0 40 00 	mov    DWORD PTR [esp],0x40d030
  409956:	e8 f1 01 00 00       	call   409b4c <_LeaveCriticalSection@4>
  40995b:	83 ec 04             	sub    esp,0x4
  40995e:	83 c4 18             	add    esp,0x18
  409961:	31 c0                	xor    eax,eax
  409963:	5b                   	pop    ebx
  409964:	c3                   	ret    
  409965:	8b 48 08             	mov    ecx,DWORD PTR [eax+0x8]
  409968:	89 4a 08             	mov    DWORD PTR [edx+0x8],ecx
  40996b:	89 04 24             	mov    DWORD PTR [esp],eax
  40996e:	e8 89 01 00 00       	call   409afc <_free>
  409973:	c7 04 24 30 d0 40 00 	mov    DWORD PTR [esp],0x40d030
  40997a:	e8 cd 01 00 00       	call   409b4c <_LeaveCriticalSection@4>
  40997f:	83 ec 04             	sub    esp,0x4
  409982:	eb da                	jmp    40995e <____w64_mingwthr_remove_key_dtor+0x5e>
  409984:	8b 42 08             	mov    eax,DWORD PTR [edx+0x8]
  409987:	a3 48 d0 40 00       	mov    ds:0x40d048,eax
  40998c:	89 d0                	mov    eax,edx
  40998e:	eb db                	jmp    40996b <____w64_mingwthr_remove_key_dtor+0x6b>

00409990 <___mingw_TLScallback>:
  409990:	83 ec 1c             	sub    esp,0x1c
  409993:	8b 44 24 24          	mov    eax,DWORD PTR [esp+0x24]
  409997:	83 f8 01             	cmp    eax,0x1
  40999a:	74 44                	je     4099e0 <___mingw_TLScallback+0x50>
  40999c:	72 12                	jb     4099b0 <___mingw_TLScallback+0x20>
  40999e:	83 f8 03             	cmp    eax,0x3
  4099a1:	74 5d                	je     409a00 <___mingw_TLScallback+0x70>
  4099a3:	b8 01 00 00 00       	mov    eax,0x1
  4099a8:	83 c4 1c             	add    esp,0x1c
  4099ab:	c3                   	ret    
  4099ac:	8d 74 26 00          	lea    esi,[esi+eiz*1+0x0]
  4099b0:	a1 2c d0 40 00       	mov    eax,ds:0x40d02c
  4099b5:	85 c0                	test   eax,eax
  4099b7:	75 68                	jne    409a21 <___mingw_TLScallback+0x91>
  4099b9:	a1 2c d0 40 00       	mov    eax,ds:0x40d02c
  4099be:	83 f8 01             	cmp    eax,0x1
  4099c1:	75 e0                	jne    4099a3 <___mingw_TLScallback+0x13>
  4099c3:	c7 04 24 30 d0 40 00 	mov    DWORD PTR [esp],0x40d030
  4099ca:	c7 05 2c d0 40 00 00 	mov    DWORD PTR ds:0x40d02c,0x0
  4099d1:	00 00 00 
  4099d4:	e8 7b 01 00 00       	call   409b54 <_DeleteCriticalSection@4>
  4099d9:	83 ec 04             	sub    esp,0x4
  4099dc:	eb c5                	jmp    4099a3 <___mingw_TLScallback+0x13>
  4099de:	66 90                	xchg   ax,ax
  4099e0:	a1 2c d0 40 00       	mov    eax,ds:0x40d02c
  4099e5:	85 c0                	test   eax,eax
  4099e7:	74 27                	je     409a10 <___mingw_TLScallback+0x80>
  4099e9:	c7 05 2c d0 40 00 01 	mov    DWORD PTR ds:0x40d02c,0x1
  4099f0:	00 00 00 
  4099f3:	b8 01 00 00 00       	mov    eax,0x1
  4099f8:	83 c4 1c             	add    esp,0x1c
  4099fb:	c3                   	ret    
  4099fc:	8d 74 26 00          	lea    esi,[esi+eiz*1+0x0]
  409a00:	a1 2c d0 40 00       	mov    eax,ds:0x40d02c
  409a05:	85 c0                	test   eax,eax
  409a07:	74 9a                	je     4099a3 <___mingw_TLScallback+0x13>
  409a09:	e8 02 fe ff ff       	call   409810 <___mingwthr_run_key_dtors.part.0>
  409a0e:	eb 93                	jmp    4099a3 <___mingw_TLScallback+0x13>
  409a10:	c7 04 24 30 d0 40 00 	mov    DWORD PTR [esp],0x40d030
  409a17:	e8 40 01 00 00       	call   409b5c <_InitializeCriticalSection@4>
  409a1c:	83 ec 04             	sub    esp,0x4
  409a1f:	eb c8                	jmp    4099e9 <___mingw_TLScallback+0x59>
  409a21:	e8 ea fd ff ff       	call   409810 <___mingwthr_run_key_dtors.part.0>
  409a26:	eb 91                	jmp    4099b9 <___mingw_TLScallback+0x29>
  409a28:	90                   	nop
  409a29:	90                   	nop
  409a2a:	90                   	nop
  409a2b:	90                   	nop
  409a2c:	90                   	nop
  409a2d:	90                   	nop
  409a2e:	90                   	nop
  409a2f:	90                   	nop

00409a30 <___chkstk_ms>:
  409a30:	51                   	push   ecx
  409a31:	50                   	push   eax
  409a32:	3d 00 10 00 00       	cmp    eax,0x1000
  409a37:	8d 4c 24 0c          	lea    ecx,[esp+0xc]
  409a3b:	72 15                	jb     409a52 <___chkstk_ms+0x22>
  409a3d:	81 e9 00 10 00 00    	sub    ecx,0x1000
  409a43:	83 09 00             	or     DWORD PTR [ecx],0x0
  409a46:	2d 00 10 00 00       	sub    eax,0x1000
  409a4b:	3d 00 10 00 00       	cmp    eax,0x1000
  409a50:	77 eb                	ja     409a3d <___chkstk_ms+0xd>
  409a52:	29 c1                	sub    ecx,eax
  409a54:	83 09 00             	or     DWORD PTR [ecx],0x0
  409a57:	58                   	pop    eax
  409a58:	59                   	pop    ecx
  409a59:	c3                   	ret    
  409a5a:	90                   	nop
  409a5b:	90                   	nop

00409a5c <___getmainargs>:
  409a5c:	ff 25 0c e1 40 00    	jmp    DWORD PTR ds:0x40e10c
  409a62:	90                   	nop
  409a63:	90                   	nop

00409a64 <__setmode>:
  409a64:	ff 25 28 e1 40 00    	jmp    DWORD PTR ds:0x40e128
  409a6a:	90                   	nop
  409a6b:	90                   	nop

00409a6c <___p__fmode>:
  409a6c:	ff 25 14 e1 40 00    	jmp    DWORD PTR ds:0x40e114
  409a72:	90                   	nop
  409a73:	90                   	nop

00409a74 <___p__environ>:
  409a74:	ff 25 10 e1 40 00    	jmp    DWORD PTR ds:0x40e110
  409a7a:	90                   	nop
  409a7b:	90                   	nop

00409a7c <__cexit>:
  409a7c:	ff 25 1c e1 40 00    	jmp    DWORD PTR ds:0x40e11c
  409a82:	90                   	nop
  409a83:	90                   	nop

00409a84 <_signal>:
  409a84:	ff 25 68 e1 40 00    	jmp    DWORD PTR ds:0x40e168
  409a8a:	90                   	nop
  409a8b:	90                   	nop

00409a8c <_puts>:
  409a8c:	ff 25 64 e1 40 00    	jmp    DWORD PTR ds:0x40e164
  409a92:	90                   	nop
  409a93:	90                   	nop

00409a94 <_exit>:
  409a94:	ff 25 38 e1 40 00    	jmp    DWORD PTR ds:0x40e138
  409a9a:	90                   	nop
  409a9b:	90                   	nop

00409a9c <_printf>:
  409a9c:	ff 25 60 e1 40 00    	jmp    DWORD PTR ds:0x40e160
  409aa2:	90                   	nop
  409aa3:	90                   	nop

00409aa4 <_fopen>:
  409aa4:	ff 25 40 e1 40 00    	jmp    DWORD PTR ds:0x40e140
  409aaa:	90                   	nop
  409aab:	90                   	nop

00409aac <_perror>:
  409aac:	ff 25 5c e1 40 00    	jmp    DWORD PTR ds:0x40e15c
  409ab2:	90                   	nop
  409ab3:	90                   	nop

00409ab4 <_fseek>:
  409ab4:	ff 25 4c e1 40 00    	jmp    DWORD PTR ds:0x40e14c
  409aba:	90                   	nop
  409abb:	90                   	nop

00409abc <_ftell>:
  409abc:	ff 25 50 e1 40 00    	jmp    DWORD PTR ds:0x40e150
  409ac2:	90                   	nop
  409ac3:	90                   	nop

00409ac4 <_fread>:
  409ac4:	ff 25 44 e1 40 00    	jmp    DWORD PTR ds:0x40e144
  409aca:	90                   	nop
  409acb:	90                   	nop

00409acc <_fclose>:
  409acc:	ff 25 3c e1 40 00    	jmp    DWORD PTR ds:0x40e13c
  409ad2:	90                   	nop
  409ad3:	90                   	nop

00409ad4 <_fwrite>:
  409ad4:	ff 25 54 e1 40 00    	jmp    DWORD PTR ds:0x40e154
  409ada:	90                   	nop
  409adb:	90                   	nop

00409adc <_vfprintf>:
  409adc:	ff 25 6c e1 40 00    	jmp    DWORD PTR ds:0x40e16c
  409ae2:	90                   	nop
  409ae3:	90                   	nop

00409ae4 <_abort>:
  409ae4:	ff 25 2c e1 40 00    	jmp    DWORD PTR ds:0x40e12c
  409aea:	90                   	nop
  409aeb:	90                   	nop

00409aec <_memcpy>:
  409aec:	ff 25 58 e1 40 00    	jmp    DWORD PTR ds:0x40e158
  409af2:	90                   	nop
  409af3:	90                   	nop

00409af4 <_calloc>:
  409af4:	ff 25 34 e1 40 00    	jmp    DWORD PTR ds:0x40e134
  409afa:	90                   	nop
  409afb:	90                   	nop

00409afc <_free>:
  409afc:	ff 25 48 e1 40 00    	jmp    DWORD PTR ds:0x40e148
  409b02:	90                   	nop
  409b03:	90                   	nop

00409b04 <_SetUnhandledExceptionFilter@4>:
  409b04:	ff 25 f8 e0 40 00    	jmp    DWORD PTR ds:0x40e0f8
  409b0a:	90                   	nop
  409b0b:	90                   	nop

00409b0c <_ExitProcess@4>:
  409b0c:	ff 25 e0 e0 40 00    	jmp    DWORD PTR ds:0x40e0e0
  409b12:	90                   	nop
  409b13:	90                   	nop

00409b14 <_GetModuleHandleA@4>:
  409b14:	ff 25 e8 e0 40 00    	jmp    DWORD PTR ds:0x40e0e8
  409b1a:	90                   	nop
  409b1b:	90                   	nop

00409b1c <_GetProcAddress@8>:
  409b1c:	ff 25 ec e0 40 00    	jmp    DWORD PTR ds:0x40e0ec
  409b22:	90                   	nop
  409b23:	90                   	nop

00409b24 <_VirtualQuery@12>:
  409b24:	ff 25 04 e1 40 00    	jmp    DWORD PTR ds:0x40e104
  409b2a:	90                   	nop
  409b2b:	90                   	nop

00409b2c <_VirtualProtect@16>:
  409b2c:	ff 25 00 e1 40 00    	jmp    DWORD PTR ds:0x40e100
  409b32:	90                   	nop
  409b33:	90                   	nop

00409b34 <_EnterCriticalSection@4>:
  409b34:	ff 25 dc e0 40 00    	jmp    DWORD PTR ds:0x40e0dc
  409b3a:	90                   	nop
  409b3b:	90                   	nop

00409b3c <_TlsGetValue@4>:
  409b3c:	ff 25 fc e0 40 00    	jmp    DWORD PTR ds:0x40e0fc
  409b42:	90                   	nop
  409b43:	90                   	nop

00409b44 <_GetLastError@0>:
  409b44:	ff 25 e4 e0 40 00    	jmp    DWORD PTR ds:0x40e0e4
  409b4a:	90                   	nop
  409b4b:	90                   	nop

00409b4c <_LeaveCriticalSection@4>:
  409b4c:	ff 25 f4 e0 40 00    	jmp    DWORD PTR ds:0x40e0f4
  409b52:	90                   	nop
  409b53:	90                   	nop

00409b54 <_DeleteCriticalSection@4>:
  409b54:	ff 25 d8 e0 40 00    	jmp    DWORD PTR ds:0x40e0d8
  409b5a:	90                   	nop
  409b5b:	90                   	nop

00409b5c <_InitializeCriticalSection@4>:
  409b5c:	ff 25 f0 e0 40 00    	jmp    DWORD PTR ds:0x40e0f0
  409b62:	90                   	nop
  409b63:	90                   	nop

00409b64 <.text>:
  409b64:	66 90                	xchg   ax,ax
  409b66:	66 90                	xchg   ax,ax
  409b68:	66 90                	xchg   ax,ax
  409b6a:	66 90                	xchg   ax,ax
  409b6c:	66 90                	xchg   ax,ax
  409b6e:	66 90                	xchg   ax,ax

00409b70 <_register_frame_ctor>:
  409b70:	55                   	push   ebp
  409b71:	89 e5                	mov    ebp,esp
  409b73:	83 ec 18             	sub    esp,0x18
  409b76:	e8 65 77 ff ff       	call   4012e0 <___gcc_register_frame>
  409b7b:	c7 04 24 30 13 40 00 	mov    DWORD PTR [esp],0x401330
  409b82:	e8 39 77 ff ff       	call   4012c0 <_atexit>
  409b87:	c9                   	leave  
  409b88:	c3                   	ret    
  409b89:	90                   	nop
  409b8a:	90                   	nop
  409b8b:	90                   	nop
  409b8c:	90                   	nop
  409b8d:	90                   	nop
  409b8e:	90                   	nop
  409b8f:	90                   	nop

00409b90 <__CTOR_LIST__>:
  409b90:	ff                   	(bad)  
  409b91:	ff                   	(bad)  
  409b92:	ff                   	(bad)  
  409b93:	ff                   	.byte 0xff

00409b94 <.ctors.65535>:
  409b94:	70 9b                	jo     409b31 <_VirtualProtect@16+0x5>
  409b96:	40                   	inc    eax
  409b97:	00 00                	add    BYTE PTR [eax],al
  409b99:	00 00                	add    BYTE PTR [eax],al
	...

00409b9c <__DTOR_LIST__>:
  409b9c:	ff                   	(bad)  
  409b9d:	ff                   	(bad)  
  409b9e:	ff                   	(bad)  
  409b9f:	ff 00                	inc    DWORD PTR [eax]
  409ba1:	00 00                	add    BYTE PTR [eax],al
	...
